
encoder_testing.elf:     file format elf32-littlearm

Sections:
Idx Name          Size      VMA       LMA       File off  Algn
  0 .isr_vector   00000188  08000000  08000000  00010000  2**0
                  CONTENTS, ALLOC, LOAD, READONLY, DATA
  1 .text         00004cac  08000190  08000190  00010190  2**4
                  CONTENTS, ALLOC, LOAD, READONLY, CODE
  2 .rodata       000000e0  08004e3c  08004e3c  00014e3c  2**2
                  CONTENTS, ALLOC, LOAD, READONLY, DATA
  3 .ARM          00000008  08004f1c  08004f1c  00014f1c  2**2
                  CONTENTS, ALLOC, LOAD, READONLY, DATA
  4 .init_array   00000004  08004f24  08004f24  00014f24  2**2
                  CONTENTS, ALLOC, LOAD, DATA
  5 .fini_array   00000004  08004f28  08004f28  00014f28  2**2
                  CONTENTS, ALLOC, LOAD, DATA
  6 .data         00000090  20000000  08004f2c  00020000  2**2
                  CONTENTS, ALLOC, LOAD, DATA
  7 .ccmram       00000000  10000000  10000000  00020090  2**0
                  CONTENTS
  8 .bss          0000080c  20000090  20000090  00020090  2**2
                  ALLOC
  9 ._user_heap_stack 00000600  2000089c  2000089c  00020090  2**0
                  ALLOC
 10 .ARM.attributes 00000030  00000000  00000000  00020090  2**0
                  CONTENTS, READONLY
 11 .debug_info   00024495  00000000  00000000  000200c0  2**0
                  CONTENTS, READONLY, DEBUGGING
 12 .debug_abbrev 00004fe0  00000000  00000000  00044555  2**0
                  CONTENTS, READONLY, DEBUGGING
 13 .debug_loc    0000f49c  00000000  00000000  00049535  2**0
                  CONTENTS, READONLY, DEBUGGING
 14 .debug_aranges 000012a0  00000000  00000000  000589d8  2**3
                  CONTENTS, READONLY, DEBUGGING
 15 .debug_ranges 00001800  00000000  00000000  00059c78  2**3
                  CONTENTS, READONLY, DEBUGGING
 16 .debug_line   0000b12a  00000000  00000000  0005b478  2**0
                  CONTENTS, READONLY, DEBUGGING
 17 .debug_str    000070ca  00000000  00000000  000665a2  2**0
                  CONTENTS, READONLY, DEBUGGING
 18 .comment      0000007c  00000000  00000000  0006d66c  2**0
                  CONTENTS, READONLY
 19 .debug_frame  00003e40  00000000  00000000  0006d6e8  2**2
                  CONTENTS, READONLY, DEBUGGING

Disassembly of section .text:

08000190 <__do_global_dtors_aux>:
 8000190:	b510      	push	{r4, lr}
 8000192:	4c05      	ldr	r4, [pc, #20]	; (80001a8 <__do_global_dtors_aux+0x18>)
 8000194:	7823      	ldrb	r3, [r4, #0]
 8000196:	b933      	cbnz	r3, 80001a6 <__do_global_dtors_aux+0x16>
 8000198:	4b04      	ldr	r3, [pc, #16]	; (80001ac <__do_global_dtors_aux+0x1c>)
 800019a:	b113      	cbz	r3, 80001a2 <__do_global_dtors_aux+0x12>
 800019c:	4804      	ldr	r0, [pc, #16]	; (80001b0 <__do_global_dtors_aux+0x20>)
 800019e:	f3af 8000 	nop.w
 80001a2:	2301      	movs	r3, #1
 80001a4:	7023      	strb	r3, [r4, #0]
 80001a6:	bd10      	pop	{r4, pc}
 80001a8:	20000090 	.word	0x20000090
 80001ac:	00000000 	.word	0x00000000
 80001b0:	08004e24 	.word	0x08004e24

080001b4 <frame_dummy>:
 80001b4:	b508      	push	{r3, lr}
 80001b6:	4b03      	ldr	r3, [pc, #12]	; (80001c4 <frame_dummy+0x10>)
 80001b8:	b11b      	cbz	r3, 80001c2 <frame_dummy+0xe>
 80001ba:	4903      	ldr	r1, [pc, #12]	; (80001c8 <frame_dummy+0x14>)
 80001bc:	4803      	ldr	r0, [pc, #12]	; (80001cc <frame_dummy+0x18>)
 80001be:	f3af 8000 	nop.w
 80001c2:	bd08      	pop	{r3, pc}
 80001c4:	00000000 	.word	0x00000000
 80001c8:	20000094 	.word	0x20000094
 80001cc:	08004e24 	.word	0x08004e24

080001d0 <memchr>:
 80001d0:	f001 01ff 	and.w	r1, r1, #255	; 0xff
 80001d4:	2a10      	cmp	r2, #16
 80001d6:	db2b      	blt.n	8000230 <memchr+0x60>
 80001d8:	f010 0f07 	tst.w	r0, #7
 80001dc:	d008      	beq.n	80001f0 <memchr+0x20>
 80001de:	f810 3b01 	ldrb.w	r3, [r0], #1
 80001e2:	3a01      	subs	r2, #1
 80001e4:	428b      	cmp	r3, r1
 80001e6:	d02d      	beq.n	8000244 <memchr+0x74>
 80001e8:	f010 0f07 	tst.w	r0, #7
 80001ec:	b342      	cbz	r2, 8000240 <memchr+0x70>
 80001ee:	d1f6      	bne.n	80001de <memchr+0xe>
 80001f0:	b4f0      	push	{r4, r5, r6, r7}
 80001f2:	ea41 2101 	orr.w	r1, r1, r1, lsl #8
 80001f6:	ea41 4101 	orr.w	r1, r1, r1, lsl #16
 80001fa:	f022 0407 	bic.w	r4, r2, #7
 80001fe:	f07f 0700 	mvns.w	r7, #0
 8000202:	2300      	movs	r3, #0
 8000204:	e8f0 5602 	ldrd	r5, r6, [r0], #8
 8000208:	3c08      	subs	r4, #8
 800020a:	ea85 0501 	eor.w	r5, r5, r1
 800020e:	ea86 0601 	eor.w	r6, r6, r1
 8000212:	fa85 f547 	uadd8	r5, r5, r7
 8000216:	faa3 f587 	sel	r5, r3, r7
 800021a:	fa86 f647 	uadd8	r6, r6, r7
 800021e:	faa5 f687 	sel	r6, r5, r7
 8000222:	b98e      	cbnz	r6, 8000248 <memchr+0x78>
 8000224:	d1ee      	bne.n	8000204 <memchr+0x34>
 8000226:	bcf0      	pop	{r4, r5, r6, r7}
 8000228:	f001 01ff 	and.w	r1, r1, #255	; 0xff
 800022c:	f002 0207 	and.w	r2, r2, #7
 8000230:	b132      	cbz	r2, 8000240 <memchr+0x70>
 8000232:	f810 3b01 	ldrb.w	r3, [r0], #1
 8000236:	3a01      	subs	r2, #1
 8000238:	ea83 0301 	eor.w	r3, r3, r1
 800023c:	b113      	cbz	r3, 8000244 <memchr+0x74>
 800023e:	d1f8      	bne.n	8000232 <memchr+0x62>
 8000240:	2000      	movs	r0, #0
 8000242:	4770      	bx	lr
 8000244:	3801      	subs	r0, #1
 8000246:	4770      	bx	lr
 8000248:	2d00      	cmp	r5, #0
 800024a:	bf06      	itte	eq
 800024c:	4635      	moveq	r5, r6
 800024e:	3803      	subeq	r0, #3
 8000250:	3807      	subne	r0, #7
 8000252:	f015 0f01 	tst.w	r5, #1
 8000256:	d107      	bne.n	8000268 <memchr+0x98>
 8000258:	3001      	adds	r0, #1
 800025a:	f415 7f80 	tst.w	r5, #256	; 0x100
 800025e:	bf02      	ittt	eq
 8000260:	3001      	addeq	r0, #1
 8000262:	f415 3fc0 	tsteq.w	r5, #98304	; 0x18000
 8000266:	3001      	addeq	r0, #1
 8000268:	bcf0      	pop	{r4, r5, r6, r7}
 800026a:	3801      	subs	r0, #1
 800026c:	4770      	bx	lr
 800026e:	bf00      	nop

08000270 <__aeabi_uldivmod>:
 8000270:	b953      	cbnz	r3, 8000288 <__aeabi_uldivmod+0x18>
 8000272:	b94a      	cbnz	r2, 8000288 <__aeabi_uldivmod+0x18>
 8000274:	2900      	cmp	r1, #0
 8000276:	bf08      	it	eq
 8000278:	2800      	cmpeq	r0, #0
 800027a:	bf1c      	itt	ne
 800027c:	f04f 31ff 	movne.w	r1, #4294967295
 8000280:	f04f 30ff 	movne.w	r0, #4294967295
 8000284:	f000 b97a 	b.w	800057c <__aeabi_idiv0>
 8000288:	f1ad 0c08 	sub.w	ip, sp, #8
 800028c:	e96d ce04 	strd	ip, lr, [sp, #-16]!
 8000290:	f000 f806 	bl	80002a0 <__udivmoddi4>
 8000294:	f8dd e004 	ldr.w	lr, [sp, #4]
 8000298:	e9dd 2302 	ldrd	r2, r3, [sp, #8]
 800029c:	b004      	add	sp, #16
 800029e:	4770      	bx	lr

080002a0 <__udivmoddi4>:
 80002a0:	e92d 47f0 	stmdb	sp!, {r4, r5, r6, r7, r8, r9, sl, lr}
 80002a4:	468c      	mov	ip, r1
 80002a6:	460d      	mov	r5, r1
 80002a8:	4604      	mov	r4, r0
 80002aa:	9e08      	ldr	r6, [sp, #32]
 80002ac:	2b00      	cmp	r3, #0
 80002ae:	d151      	bne.n	8000354 <__udivmoddi4+0xb4>
 80002b0:	428a      	cmp	r2, r1
 80002b2:	4617      	mov	r7, r2
 80002b4:	d96d      	bls.n	8000392 <__udivmoddi4+0xf2>
 80002b6:	fab2 fe82 	clz	lr, r2
 80002ba:	f1be 0f00 	cmp.w	lr, #0
 80002be:	d00b      	beq.n	80002d8 <__udivmoddi4+0x38>
 80002c0:	f1ce 0c20 	rsb	ip, lr, #32
 80002c4:	fa01 f50e 	lsl.w	r5, r1, lr
 80002c8:	fa20 fc0c 	lsr.w	ip, r0, ip
 80002cc:	fa02 f70e 	lsl.w	r7, r2, lr
 80002d0:	ea4c 0c05 	orr.w	ip, ip, r5
 80002d4:	fa00 f40e 	lsl.w	r4, r0, lr
 80002d8:	ea4f 4a17 	mov.w	sl, r7, lsr #16
 80002dc:	0c25      	lsrs	r5, r4, #16
 80002de:	fbbc f8fa 	udiv	r8, ip, sl
 80002e2:	fa1f f987 	uxth.w	r9, r7
 80002e6:	fb0a cc18 	mls	ip, sl, r8, ip
 80002ea:	ea45 450c 	orr.w	r5, r5, ip, lsl #16
 80002ee:	fb08 f309 	mul.w	r3, r8, r9
 80002f2:	42ab      	cmp	r3, r5
 80002f4:	d90a      	bls.n	800030c <__udivmoddi4+0x6c>
 80002f6:	19ed      	adds	r5, r5, r7
 80002f8:	f108 32ff 	add.w	r2, r8, #4294967295
 80002fc:	f080 8123 	bcs.w	8000546 <__udivmoddi4+0x2a6>
 8000300:	42ab      	cmp	r3, r5
 8000302:	f240 8120 	bls.w	8000546 <__udivmoddi4+0x2a6>
 8000306:	f1a8 0802 	sub.w	r8, r8, #2
 800030a:	443d      	add	r5, r7
 800030c:	1aed      	subs	r5, r5, r3
 800030e:	b2a4      	uxth	r4, r4
 8000310:	fbb5 f0fa 	udiv	r0, r5, sl
 8000314:	fb0a 5510 	mls	r5, sl, r0, r5
 8000318:	ea44 4405 	orr.w	r4, r4, r5, lsl #16
 800031c:	fb00 f909 	mul.w	r9, r0, r9
 8000320:	45a1      	cmp	r9, r4
 8000322:	d909      	bls.n	8000338 <__udivmoddi4+0x98>
 8000324:	19e4      	adds	r4, r4, r7
 8000326:	f100 33ff 	add.w	r3, r0, #4294967295
 800032a:	f080 810a 	bcs.w	8000542 <__udivmoddi4+0x2a2>
 800032e:	45a1      	cmp	r9, r4
 8000330:	f240 8107 	bls.w	8000542 <__udivmoddi4+0x2a2>
 8000334:	3802      	subs	r0, #2
 8000336:	443c      	add	r4, r7
 8000338:	eba4 0409 	sub.w	r4, r4, r9
 800033c:	ea40 4008 	orr.w	r0, r0, r8, lsl #16
 8000340:	2100      	movs	r1, #0
 8000342:	2e00      	cmp	r6, #0
 8000344:	d061      	beq.n	800040a <__udivmoddi4+0x16a>
 8000346:	fa24 f40e 	lsr.w	r4, r4, lr
 800034a:	2300      	movs	r3, #0
 800034c:	6034      	str	r4, [r6, #0]
 800034e:	6073      	str	r3, [r6, #4]
 8000350:	e8bd 87f0 	ldmia.w	sp!, {r4, r5, r6, r7, r8, r9, sl, pc}
 8000354:	428b      	cmp	r3, r1
 8000356:	d907      	bls.n	8000368 <__udivmoddi4+0xc8>
 8000358:	2e00      	cmp	r6, #0
 800035a:	d054      	beq.n	8000406 <__udivmoddi4+0x166>
 800035c:	2100      	movs	r1, #0
 800035e:	e886 0021 	stmia.w	r6, {r0, r5}
 8000362:	4608      	mov	r0, r1
 8000364:	e8bd 87f0 	ldmia.w	sp!, {r4, r5, r6, r7, r8, r9, sl, pc}
 8000368:	fab3 f183 	clz	r1, r3
 800036c:	2900      	cmp	r1, #0
 800036e:	f040 808e 	bne.w	800048e <__udivmoddi4+0x1ee>
 8000372:	42ab      	cmp	r3, r5
 8000374:	d302      	bcc.n	800037c <__udivmoddi4+0xdc>
 8000376:	4282      	cmp	r2, r0
 8000378:	f200 80fa 	bhi.w	8000570 <__udivmoddi4+0x2d0>
 800037c:	1a84      	subs	r4, r0, r2
 800037e:	eb65 0503 	sbc.w	r5, r5, r3
 8000382:	2001      	movs	r0, #1
 8000384:	46ac      	mov	ip, r5
 8000386:	2e00      	cmp	r6, #0
 8000388:	d03f      	beq.n	800040a <__udivmoddi4+0x16a>
 800038a:	e886 1010 	stmia.w	r6, {r4, ip}
 800038e:	e8bd 87f0 	ldmia.w	sp!, {r4, r5, r6, r7, r8, r9, sl, pc}
 8000392:	b912      	cbnz	r2, 800039a <__udivmoddi4+0xfa>
 8000394:	2701      	movs	r7, #1
 8000396:	fbb7 f7f2 	udiv	r7, r7, r2
 800039a:	fab7 fe87 	clz	lr, r7
 800039e:	f1be 0f00 	cmp.w	lr, #0
 80003a2:	d134      	bne.n	800040e <__udivmoddi4+0x16e>
 80003a4:	1beb      	subs	r3, r5, r7
 80003a6:	0c3a      	lsrs	r2, r7, #16
 80003a8:	fa1f fc87 	uxth.w	ip, r7
 80003ac:	2101      	movs	r1, #1
 80003ae:	fbb3 f8f2 	udiv	r8, r3, r2
 80003b2:	0c25      	lsrs	r5, r4, #16
 80003b4:	fb02 3318 	mls	r3, r2, r8, r3
 80003b8:	ea45 4503 	orr.w	r5, r5, r3, lsl #16
 80003bc:	fb0c f308 	mul.w	r3, ip, r8
 80003c0:	42ab      	cmp	r3, r5
 80003c2:	d907      	bls.n	80003d4 <__udivmoddi4+0x134>
 80003c4:	19ed      	adds	r5, r5, r7
 80003c6:	f108 30ff 	add.w	r0, r8, #4294967295
 80003ca:	d202      	bcs.n	80003d2 <__udivmoddi4+0x132>
 80003cc:	42ab      	cmp	r3, r5
 80003ce:	f200 80d1 	bhi.w	8000574 <__udivmoddi4+0x2d4>
 80003d2:	4680      	mov	r8, r0
 80003d4:	1aed      	subs	r5, r5, r3
 80003d6:	b2a3      	uxth	r3, r4
 80003d8:	fbb5 f0f2 	udiv	r0, r5, r2
 80003dc:	fb02 5510 	mls	r5, r2, r0, r5
 80003e0:	ea43 4405 	orr.w	r4, r3, r5, lsl #16
 80003e4:	fb0c fc00 	mul.w	ip, ip, r0
 80003e8:	45a4      	cmp	ip, r4
 80003ea:	d907      	bls.n	80003fc <__udivmoddi4+0x15c>
 80003ec:	19e4      	adds	r4, r4, r7
 80003ee:	f100 33ff 	add.w	r3, r0, #4294967295
 80003f2:	d202      	bcs.n	80003fa <__udivmoddi4+0x15a>
 80003f4:	45a4      	cmp	ip, r4
 80003f6:	f200 80b8 	bhi.w	800056a <__udivmoddi4+0x2ca>
 80003fa:	4618      	mov	r0, r3
 80003fc:	eba4 040c 	sub.w	r4, r4, ip
 8000400:	ea40 4008 	orr.w	r0, r0, r8, lsl #16
 8000404:	e79d      	b.n	8000342 <__udivmoddi4+0xa2>
 8000406:	4631      	mov	r1, r6
 8000408:	4630      	mov	r0, r6
 800040a:	e8bd 87f0 	ldmia.w	sp!, {r4, r5, r6, r7, r8, r9, sl, pc}
 800040e:	f1ce 0420 	rsb	r4, lr, #32
 8000412:	fa05 f30e 	lsl.w	r3, r5, lr
 8000416:	fa07 f70e 	lsl.w	r7, r7, lr
 800041a:	fa20 f804 	lsr.w	r8, r0, r4
 800041e:	0c3a      	lsrs	r2, r7, #16
 8000420:	fa25 f404 	lsr.w	r4, r5, r4
 8000424:	ea48 0803 	orr.w	r8, r8, r3
 8000428:	fbb4 f1f2 	udiv	r1, r4, r2
 800042c:	ea4f 4518 	mov.w	r5, r8, lsr #16
 8000430:	fb02 4411 	mls	r4, r2, r1, r4
 8000434:	fa1f fc87 	uxth.w	ip, r7
 8000438:	ea45 4504 	orr.w	r5, r5, r4, lsl #16
 800043c:	fb01 f30c 	mul.w	r3, r1, ip
 8000440:	42ab      	cmp	r3, r5
 8000442:	fa00 f40e 	lsl.w	r4, r0, lr
 8000446:	d909      	bls.n	800045c <__udivmoddi4+0x1bc>
 8000448:	19ed      	adds	r5, r5, r7
 800044a:	f101 30ff 	add.w	r0, r1, #4294967295
 800044e:	f080 808a 	bcs.w	8000566 <__udivmoddi4+0x2c6>
 8000452:	42ab      	cmp	r3, r5
 8000454:	f240 8087 	bls.w	8000566 <__udivmoddi4+0x2c6>
 8000458:	3902      	subs	r1, #2
 800045a:	443d      	add	r5, r7
 800045c:	1aeb      	subs	r3, r5, r3
 800045e:	fa1f f588 	uxth.w	r5, r8
 8000462:	fbb3 f0f2 	udiv	r0, r3, r2
 8000466:	fb02 3310 	mls	r3, r2, r0, r3
 800046a:	ea45 4503 	orr.w	r5, r5, r3, lsl #16
 800046e:	fb00 f30c 	mul.w	r3, r0, ip
 8000472:	42ab      	cmp	r3, r5
 8000474:	d907      	bls.n	8000486 <__udivmoddi4+0x1e6>
 8000476:	19ed      	adds	r5, r5, r7
 8000478:	f100 38ff 	add.w	r8, r0, #4294967295
 800047c:	d26f      	bcs.n	800055e <__udivmoddi4+0x2be>
 800047e:	42ab      	cmp	r3, r5
 8000480:	d96d      	bls.n	800055e <__udivmoddi4+0x2be>
 8000482:	3802      	subs	r0, #2
 8000484:	443d      	add	r5, r7
 8000486:	1aeb      	subs	r3, r5, r3
 8000488:	ea40 4101 	orr.w	r1, r0, r1, lsl #16
 800048c:	e78f      	b.n	80003ae <__udivmoddi4+0x10e>
 800048e:	f1c1 0720 	rsb	r7, r1, #32
 8000492:	fa22 f807 	lsr.w	r8, r2, r7
 8000496:	408b      	lsls	r3, r1
 8000498:	fa05 f401 	lsl.w	r4, r5, r1
 800049c:	ea48 0303 	orr.w	r3, r8, r3
 80004a0:	fa20 fe07 	lsr.w	lr, r0, r7
 80004a4:	ea4f 4c13 	mov.w	ip, r3, lsr #16
 80004a8:	40fd      	lsrs	r5, r7
 80004aa:	ea4e 0e04 	orr.w	lr, lr, r4
 80004ae:	fbb5 f9fc 	udiv	r9, r5, ip
 80004b2:	ea4f 441e 	mov.w	r4, lr, lsr #16
 80004b6:	fb0c 5519 	mls	r5, ip, r9, r5
 80004ba:	fa1f f883 	uxth.w	r8, r3
 80004be:	ea44 4505 	orr.w	r5, r4, r5, lsl #16
 80004c2:	fb09 f408 	mul.w	r4, r9, r8
 80004c6:	42ac      	cmp	r4, r5
 80004c8:	fa02 f201 	lsl.w	r2, r2, r1
 80004cc:	fa00 fa01 	lsl.w	sl, r0, r1
 80004d0:	d908      	bls.n	80004e4 <__udivmoddi4+0x244>
 80004d2:	18ed      	adds	r5, r5, r3
 80004d4:	f109 30ff 	add.w	r0, r9, #4294967295
 80004d8:	d243      	bcs.n	8000562 <__udivmoddi4+0x2c2>
 80004da:	42ac      	cmp	r4, r5
 80004dc:	d941      	bls.n	8000562 <__udivmoddi4+0x2c2>
 80004de:	f1a9 0902 	sub.w	r9, r9, #2
 80004e2:	441d      	add	r5, r3
 80004e4:	1b2d      	subs	r5, r5, r4
 80004e6:	fa1f fe8e 	uxth.w	lr, lr
 80004ea:	fbb5 f0fc 	udiv	r0, r5, ip
 80004ee:	fb0c 5510 	mls	r5, ip, r0, r5
 80004f2:	ea4e 4405 	orr.w	r4, lr, r5, lsl #16
 80004f6:	fb00 f808 	mul.w	r8, r0, r8
 80004fa:	45a0      	cmp	r8, r4
 80004fc:	d907      	bls.n	800050e <__udivmoddi4+0x26e>
 80004fe:	18e4      	adds	r4, r4, r3
 8000500:	f100 35ff 	add.w	r5, r0, #4294967295
 8000504:	d229      	bcs.n	800055a <__udivmoddi4+0x2ba>
 8000506:	45a0      	cmp	r8, r4
 8000508:	d927      	bls.n	800055a <__udivmoddi4+0x2ba>
 800050a:	3802      	subs	r0, #2
 800050c:	441c      	add	r4, r3
 800050e:	ea40 4009 	orr.w	r0, r0, r9, lsl #16
 8000512:	eba4 0408 	sub.w	r4, r4, r8
 8000516:	fba0 8902 	umull	r8, r9, r0, r2
 800051a:	454c      	cmp	r4, r9
 800051c:	46c6      	mov	lr, r8
 800051e:	464d      	mov	r5, r9
 8000520:	d315      	bcc.n	800054e <__udivmoddi4+0x2ae>
 8000522:	d012      	beq.n	800054a <__udivmoddi4+0x2aa>
 8000524:	b156      	cbz	r6, 800053c <__udivmoddi4+0x29c>
 8000526:	ebba 030e 	subs.w	r3, sl, lr
 800052a:	eb64 0405 	sbc.w	r4, r4, r5
 800052e:	fa04 f707 	lsl.w	r7, r4, r7
 8000532:	40cb      	lsrs	r3, r1
 8000534:	431f      	orrs	r7, r3
 8000536:	40cc      	lsrs	r4, r1
 8000538:	6037      	str	r7, [r6, #0]
 800053a:	6074      	str	r4, [r6, #4]
 800053c:	2100      	movs	r1, #0
 800053e:	e8bd 87f0 	ldmia.w	sp!, {r4, r5, r6, r7, r8, r9, sl, pc}
 8000542:	4618      	mov	r0, r3
 8000544:	e6f8      	b.n	8000338 <__udivmoddi4+0x98>
 8000546:	4690      	mov	r8, r2
 8000548:	e6e0      	b.n	800030c <__udivmoddi4+0x6c>
 800054a:	45c2      	cmp	sl, r8
 800054c:	d2ea      	bcs.n	8000524 <__udivmoddi4+0x284>
 800054e:	ebb8 0e02 	subs.w	lr, r8, r2
 8000552:	eb69 0503 	sbc.w	r5, r9, r3
 8000556:	3801      	subs	r0, #1
 8000558:	e7e4      	b.n	8000524 <__udivmoddi4+0x284>
 800055a:	4628      	mov	r0, r5
 800055c:	e7d7      	b.n	800050e <__udivmoddi4+0x26e>
 800055e:	4640      	mov	r0, r8
 8000560:	e791      	b.n	8000486 <__udivmoddi4+0x1e6>
 8000562:	4681      	mov	r9, r0
 8000564:	e7be      	b.n	80004e4 <__udivmoddi4+0x244>
 8000566:	4601      	mov	r1, r0
 8000568:	e778      	b.n	800045c <__udivmoddi4+0x1bc>
 800056a:	3802      	subs	r0, #2
 800056c:	443c      	add	r4, r7
 800056e:	e745      	b.n	80003fc <__udivmoddi4+0x15c>
 8000570:	4608      	mov	r0, r1
 8000572:	e708      	b.n	8000386 <__udivmoddi4+0xe6>
 8000574:	f1a8 0802 	sub.w	r8, r8, #2
 8000578:	443d      	add	r5, r7
 800057a:	e72b      	b.n	80003d4 <__udivmoddi4+0x134>

0800057c <__aeabi_idiv0>:
 800057c:	4770      	bx	lr
 800057e:	bf00      	nop

08000580 <HAL_InitTick>:
  *       implementation  in user file.
  * @param TickPriority Tick interrupt priority.
  * @retval HAL status
  */
__weak HAL_StatusTypeDef HAL_InitTick(uint32_t TickPriority)
{
 8000580:	b538      	push	{r3, r4, r5, lr}
  /* Configure the SysTick to have interrupt in 1ms time basis*/
  if (HAL_SYSTICK_Config(SystemCoreClock / (1000U / uwTickFreq)) > 0U)
 8000582:	4a0e      	ldr	r2, [pc, #56]	; (80005bc <HAL_InitTick+0x3c>)
 8000584:	4b0e      	ldr	r3, [pc, #56]	; (80005c0 <HAL_InitTick+0x40>)
{
 8000586:	4605      	mov	r5, r0
  if (HAL_SYSTICK_Config(SystemCoreClock / (1000U / uwTickFreq)) > 0U)
 8000588:	7818      	ldrb	r0, [r3, #0]
 800058a:	f44f 737a 	mov.w	r3, #1000	; 0x3e8
 800058e:	fbb3 f3f0 	udiv	r3, r3, r0
 8000592:	6810      	ldr	r0, [r2, #0]
 8000594:	fbb0 f0f3 	udiv	r0, r0, r3
 8000598:	f000 f8aa 	bl	80006f0 <HAL_SYSTICK_Config>
 800059c:	4604      	mov	r4, r0
 800059e:	b958      	cbnz	r0, 80005b8 <HAL_InitTick+0x38>
  {
    return HAL_ERROR;
  }

  /* Configure the SysTick IRQ priority */
  if (TickPriority < (1UL << __NVIC_PRIO_BITS))
 80005a0:	2d0f      	cmp	r5, #15
 80005a2:	d809      	bhi.n	80005b8 <HAL_InitTick+0x38>
  {
    HAL_NVIC_SetPriority(SysTick_IRQn, TickPriority, 0U);
 80005a4:	4602      	mov	r2, r0
 80005a6:	4629      	mov	r1, r5
 80005a8:	f04f 30ff 	mov.w	r0, #4294967295
 80005ac:	f000 f85e 	bl	800066c <HAL_NVIC_SetPriority>
    uwTickPrio = TickPriority;
 80005b0:	4b04      	ldr	r3, [pc, #16]	; (80005c4 <HAL_InitTick+0x44>)
 80005b2:	4620      	mov	r0, r4
 80005b4:	601d      	str	r5, [r3, #0]
 80005b6:	bd38      	pop	{r3, r4, r5, pc}
    return HAL_ERROR;
 80005b8:	2001      	movs	r0, #1
    return HAL_ERROR;
  }

  /* Return function status */
  return HAL_OK;
}
 80005ba:	bd38      	pop	{r3, r4, r5, pc}
 80005bc:	20000028 	.word	0x20000028
 80005c0:	20000000 	.word	0x20000000
 80005c4:	20000004 	.word	0x20000004

080005c8 <HAL_Init>:
{
 80005c8:	b508      	push	{r3, lr}
  __HAL_FLASH_INSTRUCTION_CACHE_ENABLE();
 80005ca:	4b0b      	ldr	r3, [pc, #44]	; (80005f8 <HAL_Init+0x30>)
 80005cc:	681a      	ldr	r2, [r3, #0]
 80005ce:	f442 7200 	orr.w	r2, r2, #512	; 0x200
 80005d2:	601a      	str	r2, [r3, #0]
  __HAL_FLASH_DATA_CACHE_ENABLE();
 80005d4:	681a      	ldr	r2, [r3, #0]
 80005d6:	f442 6280 	orr.w	r2, r2, #1024	; 0x400
 80005da:	601a      	str	r2, [r3, #0]
  __HAL_FLASH_PREFETCH_BUFFER_ENABLE();
 80005dc:	681a      	ldr	r2, [r3, #0]
 80005de:	f442 7280 	orr.w	r2, r2, #256	; 0x100
 80005e2:	601a      	str	r2, [r3, #0]
  HAL_NVIC_SetPriorityGrouping(NVIC_PRIORITYGROUP_4);
 80005e4:	2003      	movs	r0, #3
 80005e6:	f000 f82f 	bl	8000648 <HAL_NVIC_SetPriorityGrouping>
  HAL_InitTick(TICK_INT_PRIORITY);
 80005ea:	2000      	movs	r0, #0
 80005ec:	f7ff ffc8 	bl	8000580 <HAL_InitTick>
  HAL_MspInit();
 80005f0:	f003 f9fe 	bl	80039f0 <HAL_MspInit>
}
 80005f4:	2000      	movs	r0, #0
 80005f6:	bd08      	pop	{r3, pc}
 80005f8:	40023c00 	.word	0x40023c00

080005fc <HAL_IncTick>:
  *      implementations in user file.
  * @retval None
  */
__weak void HAL_IncTick(void)
{
  uwTick += uwTickFreq;
 80005fc:	4a03      	ldr	r2, [pc, #12]	; (800060c <HAL_IncTick+0x10>)
 80005fe:	4b04      	ldr	r3, [pc, #16]	; (8000610 <HAL_IncTick+0x14>)
 8000600:	6811      	ldr	r1, [r2, #0]
 8000602:	781b      	ldrb	r3, [r3, #0]
 8000604:	440b      	add	r3, r1
 8000606:	6013      	str	r3, [r2, #0]
 8000608:	4770      	bx	lr
 800060a:	bf00      	nop
 800060c:	200000c0 	.word	0x200000c0
 8000610:	20000000 	.word	0x20000000

08000614 <HAL_GetTick>:
  *       implementations in user file.
  * @retval tick value
  */
__weak uint32_t HAL_GetTick(void)
{
  return uwTick;
 8000614:	4b01      	ldr	r3, [pc, #4]	; (800061c <HAL_GetTick+0x8>)
 8000616:	6818      	ldr	r0, [r3, #0]
}
 8000618:	4770      	bx	lr
 800061a:	bf00      	nop
 800061c:	200000c0 	.word	0x200000c0

08000620 <HAL_Delay>:
  *       implementations in user file.
  * @param Delay specifies the delay time length, in milliseconds.
  * @retval None
  */
__weak void HAL_Delay(uint32_t Delay)
{
 8000620:	b538      	push	{r3, r4, r5, lr}
 8000622:	4604      	mov	r4, r0
  uint32_t tickstart = HAL_GetTick();
 8000624:	f7ff fff6 	bl	8000614 <HAL_GetTick>
  uint32_t wait = Delay;

  /* Add a freq to guarantee minimum wait */
  if (wait < HAL_MAX_DELAY)
 8000628:	1c63      	adds	r3, r4, #1
  {
    wait += (uint32_t)(uwTickFreq);
 800062a:	bf1c      	itt	ne
 800062c:	4b05      	ldrne	r3, [pc, #20]	; (8000644 <HAL_Delay+0x24>)
 800062e:	781b      	ldrbne	r3, [r3, #0]
  uint32_t tickstart = HAL_GetTick();
 8000630:	4605      	mov	r5, r0
    wait += (uint32_t)(uwTickFreq);
 8000632:	bf18      	it	ne
 8000634:	18e4      	addne	r4, r4, r3
  }

  while((HAL_GetTick() - tickstart) < wait)
 8000636:	f7ff ffed 	bl	8000614 <HAL_GetTick>
 800063a:	1b40      	subs	r0, r0, r5
 800063c:	4284      	cmp	r4, r0
 800063e:	d8fa      	bhi.n	8000636 <HAL_Delay+0x16>
  {
  }
}
 8000640:	bd38      	pop	{r3, r4, r5, pc}
 8000642:	bf00      	nop
 8000644:	20000000 	.word	0x20000000

08000648 <HAL_NVIC_SetPriorityGrouping>:
__STATIC_INLINE void __NVIC_SetPriorityGrouping(uint32_t PriorityGroup)
{
  uint32_t reg_value;
  uint32_t PriorityGroupTmp = (PriorityGroup & (uint32_t)0x07UL);             /* only values 0..7 are used          */

  reg_value  =  SCB->AIRCR;                                                   /* read old register configuration    */
 8000648:	4a07      	ldr	r2, [pc, #28]	; (8000668 <HAL_NVIC_SetPriorityGrouping+0x20>)
 800064a:	68d3      	ldr	r3, [r2, #12]
  reg_value &= ~((uint32_t)(SCB_AIRCR_VECTKEY_Msk | SCB_AIRCR_PRIGROUP_Msk)); /* clear bits to change               */
 800064c:	f423 63e0 	bic.w	r3, r3, #1792	; 0x700
 8000650:	041b      	lsls	r3, r3, #16
 8000652:	0c1b      	lsrs	r3, r3, #16
 8000654:	f043 63bf 	orr.w	r3, r3, #100139008	; 0x5f80000
  reg_value  =  (reg_value                                   |
                ((uint32_t)0x5FAUL << SCB_AIRCR_VECTKEY_Pos) |
                (PriorityGroupTmp << SCB_AIRCR_PRIGROUP_Pos)  );              /* Insert write key and priority group */
 8000658:	0200      	lsls	r0, r0, #8
 800065a:	f443 3300 	orr.w	r3, r3, #131072	; 0x20000
 800065e:	f400 60e0 	and.w	r0, r0, #1792	; 0x700
  reg_value  =  (reg_value                                   |
 8000662:	4303      	orrs	r3, r0
  SCB->AIRCR =  reg_value;
 8000664:	60d3      	str	r3, [r2, #12]
 8000666:	4770      	bx	lr
 8000668:	e000ed00 	.word	0xe000ed00

0800066c <HAL_NVIC_SetPriority>:
  \details Reads the priority grouping field from the NVIC Interrupt Controller.
  \return                Priority grouping field (SCB->AIRCR [10:8] PRIGROUP field).
 */
__STATIC_INLINE uint32_t __NVIC_GetPriorityGrouping(void)
{
  return ((uint32_t)((SCB->AIRCR & SCB_AIRCR_PRIGROUP_Msk) >> SCB_AIRCR_PRIGROUP_Pos));
 800066c:	4b17      	ldr	r3, [pc, #92]	; (80006cc <HAL_NVIC_SetPriority+0x60>)
  *         This parameter can be a value between 0 and 15
  *         A lower priority value indicates a higher priority.          
  * @retval None
  */
void HAL_NVIC_SetPriority(IRQn_Type IRQn, uint32_t PreemptPriority, uint32_t SubPriority)
{ 
 800066e:	b530      	push	{r4, r5, lr}
 8000670:	68dc      	ldr	r4, [r3, #12]
 8000672:	f3c4 2402 	ubfx	r4, r4, #8, #3
{
  uint32_t PriorityGroupTmp = (PriorityGroup & (uint32_t)0x07UL);   /* only values 0..7 are used          */
  uint32_t PreemptPriorityBits;
  uint32_t SubPriorityBits;

  PreemptPriorityBits = ((7UL - PriorityGroupTmp) > (uint32_t)(__NVIC_PRIO_BITS)) ? (uint32_t)(__NVIC_PRIO_BITS) : (uint32_t)(7UL - PriorityGroupTmp);
 8000676:	f1c4 0307 	rsb	r3, r4, #7
  SubPriorityBits     = ((PriorityGroupTmp + (uint32_t)(__NVIC_PRIO_BITS)) < (uint32_t)7UL) ? (uint32_t)0UL : (uint32_t)((PriorityGroupTmp - 7UL) + (uint32_t)(__NVIC_PRIO_BITS));
 800067a:	1d25      	adds	r5, r4, #4
  PreemptPriorityBits = ((7UL - PriorityGroupTmp) > (uint32_t)(__NVIC_PRIO_BITS)) ? (uint32_t)(__NVIC_PRIO_BITS) : (uint32_t)(7UL - PriorityGroupTmp);
 800067c:	2b04      	cmp	r3, #4
 800067e:	bf28      	it	cs
 8000680:	2304      	movcs	r3, #4
  SubPriorityBits     = ((PriorityGroupTmp + (uint32_t)(__NVIC_PRIO_BITS)) < (uint32_t)7UL) ? (uint32_t)0UL : (uint32_t)((PriorityGroupTmp - 7UL) + (uint32_t)(__NVIC_PRIO_BITS));
 8000682:	2d06      	cmp	r5, #6

  return (
           ((PreemptPriority & (uint32_t)((1UL << (PreemptPriorityBits)) - 1UL)) << SubPriorityBits) |
 8000684:	f04f 0501 	mov.w	r5, #1
 8000688:	fa05 f303 	lsl.w	r3, r5, r3
 800068c:	f103 33ff 	add.w	r3, r3, #4294967295
  SubPriorityBits     = ((PriorityGroupTmp + (uint32_t)(__NVIC_PRIO_BITS)) < (uint32_t)7UL) ? (uint32_t)0UL : (uint32_t)((PriorityGroupTmp - 7UL) + (uint32_t)(__NVIC_PRIO_BITS));
 8000690:	bf8c      	ite	hi
 8000692:	3c03      	subhi	r4, #3
 8000694:	2400      	movls	r4, #0
           ((PreemptPriority & (uint32_t)((1UL << (PreemptPriorityBits)) - 1UL)) << SubPriorityBits) |
 8000696:	4019      	ands	r1, r3
 8000698:	40a1      	lsls	r1, r4
           ((SubPriority     & (uint32_t)((1UL << (SubPriorityBits    )) - 1UL)))
 800069a:	fa05 f404 	lsl.w	r4, r5, r4
 800069e:	3c01      	subs	r4, #1
 80006a0:	4022      	ands	r2, r4
  if ((int32_t)(IRQn) >= 0)
 80006a2:	2800      	cmp	r0, #0
           ((PreemptPriority & (uint32_t)((1UL << (PreemptPriorityBits)) - 1UL)) << SubPriorityBits) |
 80006a4:	ea42 0201 	orr.w	r2, r2, r1
 80006a8:	ea4f 1202 	mov.w	r2, r2, lsl #4
    NVIC->IP[((uint32_t)IRQn)]               = (uint8_t)((priority << (8U - __NVIC_PRIO_BITS)) & (uint32_t)0xFFUL);
 80006ac:	bfad      	iteet	ge
 80006ae:	f100 4060 	addge.w	r0, r0, #3758096384	; 0xe0000000
    SCB->SHP[(((uint32_t)IRQn) & 0xFUL)-4UL] = (uint8_t)((priority << (8U - __NVIC_PRIO_BITS)) & (uint32_t)0xFFUL);
 80006b2:	f000 000f 	andlt.w	r0, r0, #15
 80006b6:	4b06      	ldrlt	r3, [pc, #24]	; (80006d0 <HAL_NVIC_SetPriority+0x64>)
    NVIC->IP[((uint32_t)IRQn)]               = (uint8_t)((priority << (8U - __NVIC_PRIO_BITS)) & (uint32_t)0xFFUL);
 80006b8:	f500 4061 	addge.w	r0, r0, #57600	; 0xe100
    SCB->SHP[(((uint32_t)IRQn) & 0xFUL)-4UL] = (uint8_t)((priority << (8U - __NVIC_PRIO_BITS)) & (uint32_t)0xFFUL);
 80006bc:	bfb5      	itete	lt
 80006be:	b2d2      	uxtblt	r2, r2
    NVIC->IP[((uint32_t)IRQn)]               = (uint8_t)((priority << (8U - __NVIC_PRIO_BITS)) & (uint32_t)0xFFUL);
 80006c0:	b2d2      	uxtbge	r2, r2
    SCB->SHP[(((uint32_t)IRQn) & 0xFUL)-4UL] = (uint8_t)((priority << (8U - __NVIC_PRIO_BITS)) & (uint32_t)0xFFUL);
 80006c2:	541a      	strblt	r2, [r3, r0]
    NVIC->IP[((uint32_t)IRQn)]               = (uint8_t)((priority << (8U - __NVIC_PRIO_BITS)) & (uint32_t)0xFFUL);
 80006c4:	f880 2300 	strbge.w	r2, [r0, #768]	; 0x300
 80006c8:	bd30      	pop	{r4, r5, pc}
 80006ca:	bf00      	nop
 80006cc:	e000ed00 	.word	0xe000ed00
 80006d0:	e000ed14 	.word	0xe000ed14

080006d4 <HAL_NVIC_EnableIRQ>:
  if ((int32_t)(IRQn) >= 0)
 80006d4:	2800      	cmp	r0, #0
 80006d6:	db08      	blt.n	80006ea <HAL_NVIC_EnableIRQ+0x16>
    NVIC->ISER[(((uint32_t)IRQn) >> 5UL)] = (uint32_t)(1UL << (((uint32_t)IRQn) & 0x1FUL));
 80006d8:	0942      	lsrs	r2, r0, #5
 80006da:	2301      	movs	r3, #1
 80006dc:	f000 001f 	and.w	r0, r0, #31
 80006e0:	fa03 f000 	lsl.w	r0, r3, r0
 80006e4:	4b01      	ldr	r3, [pc, #4]	; (80006ec <HAL_NVIC_EnableIRQ+0x18>)
 80006e6:	f843 0022 	str.w	r0, [r3, r2, lsl #2]
 80006ea:	4770      	bx	lr
 80006ec:	e000e100 	.word	0xe000e100

080006f0 <HAL_SYSTICK_Config>:
           function <b>SysTick_Config</b> is not included. In this case, the file <b><i>device</i>.h</b>
           must contain a vendor-specific implementation of this function.
 */
__STATIC_INLINE uint32_t SysTick_Config(uint32_t ticks)
{
  if ((ticks - 1UL) > SysTick_LOAD_RELOAD_Msk)
 80006f0:	3801      	subs	r0, #1
 80006f2:	f1b0 7f80 	cmp.w	r0, #16777216	; 0x1000000
 80006f6:	d20a      	bcs.n	800070e <HAL_SYSTICK_Config+0x1e>
  {
    return (1UL);                                                   /* Reload value impossible */
  }

  SysTick->LOAD  = (uint32_t)(ticks - 1UL);                         /* set reload register */
 80006f8:	4b06      	ldr	r3, [pc, #24]	; (8000714 <HAL_SYSTICK_Config+0x24>)
    SCB->SHP[(((uint32_t)IRQn) & 0xFUL)-4UL] = (uint8_t)((priority << (8U - __NVIC_PRIO_BITS)) & (uint32_t)0xFFUL);
 80006fa:	4a07      	ldr	r2, [pc, #28]	; (8000718 <HAL_SYSTICK_Config+0x28>)
  SysTick->LOAD  = (uint32_t)(ticks - 1UL);                         /* set reload register */
 80006fc:	6058      	str	r0, [r3, #4]
    SCB->SHP[(((uint32_t)IRQn) & 0xFUL)-4UL] = (uint8_t)((priority << (8U - __NVIC_PRIO_BITS)) & (uint32_t)0xFFUL);
 80006fe:	21f0      	movs	r1, #240	; 0xf0
 8000700:	f882 1023 	strb.w	r1, [r2, #35]	; 0x23
  NVIC_SetPriority (SysTick_IRQn, (1UL << __NVIC_PRIO_BITS) - 1UL); /* set Priority for Systick Interrupt */
  SysTick->VAL   = 0UL;                                             /* Load the SysTick Counter Value */
 8000704:	2000      	movs	r0, #0
  SysTick->CTRL  = SysTick_CTRL_CLKSOURCE_Msk |
 8000706:	2207      	movs	r2, #7
  SysTick->VAL   = 0UL;                                             /* Load the SysTick Counter Value */
 8000708:	6098      	str	r0, [r3, #8]
  SysTick->CTRL  = SysTick_CTRL_CLKSOURCE_Msk |
 800070a:	601a      	str	r2, [r3, #0]
 800070c:	4770      	bx	lr
    return (1UL);                                                   /* Reload value impossible */
 800070e:	2001      	movs	r0, #1
  *                  - 1  Function failed.
  */
uint32_t HAL_SYSTICK_Config(uint32_t TicksNumb)
{
   return SysTick_Config(TicksNumb);
}
 8000710:	4770      	bx	lr
 8000712:	bf00      	nop
 8000714:	e000e010 	.word	0xe000e010
 8000718:	e000ed00 	.word	0xe000ed00

0800071c <HAL_GPIO_Init>:
  * @param  GPIO_Init pointer to a GPIO_InitTypeDef structure that contains
  *         the configuration information for the specified GPIO peripheral.
  * @retval None
  */
void HAL_GPIO_Init(GPIO_TypeDef  *GPIOx, GPIO_InitTypeDef *GPIO_Init)
{
 800071c:	e92d 4ff0 	stmdb	sp!, {r4, r5, r6, r7, r8, r9, sl, fp, lr}
 8000720:	b085      	sub	sp, #20
  for(position = 0U; position < GPIO_NUMBER; position++)
  {
    /* Get the IO position */
    ioposition = 0x01U << position;
    /* Get the current IO position */
    iocurrent = (uint32_t)(GPIO_Init->Pin) & ioposition;
 8000722:	680b      	ldr	r3, [r1, #0]
      /*--------------------- EXTI Mode Configuration ------------------------*/
      /* Configure the External Interrupt or event for the current IO */
      if((GPIO_Init->Mode & EXTI_MODE) == EXTI_MODE)
      {
        /* Enable SYSCFG Clock */
        __HAL_RCC_SYSCFG_CLK_ENABLE();
 8000724:	f8df 81ac 	ldr.w	r8, [pc, #428]	; 80008d4 <HAL_GPIO_Init+0x1b8>
        temp &= ~(0x0FU << (4U * (position & 0x03U)));
        temp |= ((uint32_t)(GPIO_GET_INDEX(GPIOx)) << (4U * (position & 0x03U)));
        SYSCFG->EXTICR[position >> 2U] = temp;

        /* Clear EXTI line configuration */
        temp = EXTI->IMR;
 8000728:	4a68      	ldr	r2, [pc, #416]	; (80008cc <HAL_GPIO_Init+0x1b0>)
        temp |= ((uint32_t)(GPIO_GET_INDEX(GPIOx)) << (4U * (position & 0x03U)));
 800072a:	f8df 91ac 	ldr.w	r9, [pc, #428]	; 80008d8 <HAL_GPIO_Init+0x1bc>
    iocurrent = (uint32_t)(GPIO_Init->Pin) & ioposition;
 800072e:	9301      	str	r3, [sp, #4]
  for(position = 0U; position < GPIO_NUMBER; position++)
 8000730:	2300      	movs	r3, #0
    ioposition = 0x01U << position;
 8000732:	2401      	movs	r4, #1
    iocurrent = (uint32_t)(GPIO_Init->Pin) & ioposition;
 8000734:	9d01      	ldr	r5, [sp, #4]
    ioposition = 0x01U << position;
 8000736:	409c      	lsls	r4, r3
    iocurrent = (uint32_t)(GPIO_Init->Pin) & ioposition;
 8000738:	4025      	ands	r5, r4
    if(iocurrent == ioposition)
 800073a:	42ac      	cmp	r4, r5
 800073c:	f040 80b0 	bne.w	80008a0 <HAL_GPIO_Init+0x184>
      if((GPIO_Init->Mode == GPIO_MODE_OUTPUT_PP) || (GPIO_Init->Mode == GPIO_MODE_AF_PP) ||
 8000740:	684c      	ldr	r4, [r1, #4]
 8000742:	f024 0c10 	bic.w	ip, r4, #16
 8000746:	f10c 36ff 	add.w	r6, ip, #4294967295
 800074a:	2e01      	cmp	r6, #1
 800074c:	ea4f 0e43 	mov.w	lr, r3, lsl #1
 8000750:	d812      	bhi.n	8000778 <HAL_GPIO_Init+0x5c>
        temp = GPIOx->OSPEEDR; 
 8000752:	6887      	ldr	r7, [r0, #8]
        temp &= ~(GPIO_OSPEEDER_OSPEEDR0 << (position * 2U));
 8000754:	2603      	movs	r6, #3
 8000756:	fa06 f60e 	lsl.w	r6, r6, lr
 800075a:	ea27 0706 	bic.w	r7, r7, r6
        temp |= (GPIO_Init->Speed << (position * 2U));
 800075e:	68ce      	ldr	r6, [r1, #12]
 8000760:	fa06 f60e 	lsl.w	r6, r6, lr
 8000764:	433e      	orrs	r6, r7
        GPIOx->OSPEEDR = temp;
 8000766:	6086      	str	r6, [r0, #8]
        temp = GPIOx->OTYPER;
 8000768:	6847      	ldr	r7, [r0, #4]
        temp |= (((GPIO_Init->Mode & GPIO_OUTPUT_TYPE) >> 4U) << position);
 800076a:	f3c4 1600 	ubfx	r6, r4, #4, #1
        temp &= ~(GPIO_OTYPER_OT_0 << position) ;
 800076e:	ea27 0705 	bic.w	r7, r7, r5
        temp |= (((GPIO_Init->Mode & GPIO_OUTPUT_TYPE) >> 4U) << position);
 8000772:	409e      	lsls	r6, r3
 8000774:	433e      	orrs	r6, r7
        GPIOx->OTYPER = temp;
 8000776:	6046      	str	r6, [r0, #4]
      temp &= ~(GPIO_PUPDR_PUPDR0 << (position * 2U));
 8000778:	2603      	movs	r6, #3
      temp = GPIOx->PUPDR;
 800077a:	68c7      	ldr	r7, [r0, #12]
      temp &= ~(GPIO_PUPDR_PUPDR0 << (position * 2U));
 800077c:	fa06 f60e 	lsl.w	r6, r6, lr
 8000780:	43f6      	mvns	r6, r6
 8000782:	ea07 0a06 	and.w	sl, r7, r6
      temp |= ((GPIO_Init->Pull) << (position * 2U));
 8000786:	688f      	ldr	r7, [r1, #8]
 8000788:	fa07 f70e 	lsl.w	r7, r7, lr
 800078c:	ea47 070a 	orr.w	r7, r7, sl
      if((GPIO_Init->Mode == GPIO_MODE_AF_PP) || (GPIO_Init->Mode == GPIO_MODE_AF_OD))
 8000790:	f1bc 0f02 	cmp.w	ip, #2
      GPIOx->PUPDR = temp;
 8000794:	60c7      	str	r7, [r0, #12]
      if((GPIO_Init->Mode == GPIO_MODE_AF_PP) || (GPIO_Init->Mode == GPIO_MODE_AF_OD))
 8000796:	d116      	bne.n	80007c6 <HAL_GPIO_Init+0xaa>
        temp = GPIOx->AFR[position >> 3U];
 8000798:	ea4f 0ad3 	mov.w	sl, r3, lsr #3
 800079c:	eb00 0a8a 	add.w	sl, r0, sl, lsl #2
        temp &= ~(0xFU << ((uint32_t)(position & 0x07U) * 4U)) ;
 80007a0:	f003 0b07 	and.w	fp, r3, #7
        temp = GPIOx->AFR[position >> 3U];
 80007a4:	f8da 7020 	ldr.w	r7, [sl, #32]
        temp &= ~(0xFU << ((uint32_t)(position & 0x07U) * 4U)) ;
 80007a8:	ea4f 0b8b 	mov.w	fp, fp, lsl #2
 80007ac:	f04f 0c0f 	mov.w	ip, #15
 80007b0:	fa0c fc0b 	lsl.w	ip, ip, fp
 80007b4:	ea27 0c0c 	bic.w	ip, r7, ip
        temp |= ((uint32_t)(GPIO_Init->Alternate) << (((uint32_t)position & 0x07U) * 4U));
 80007b8:	690f      	ldr	r7, [r1, #16]
 80007ba:	fa07 f70b 	lsl.w	r7, r7, fp
 80007be:	ea47 070c 	orr.w	r7, r7, ip
        GPIOx->AFR[position >> 3U] = temp;
 80007c2:	f8ca 7020 	str.w	r7, [sl, #32]
      temp = GPIOx->MODER;
 80007c6:	6807      	ldr	r7, [r0, #0]
      temp &= ~(GPIO_MODER_MODER0 << (position * 2U));
 80007c8:	403e      	ands	r6, r7
      temp |= ((GPIO_Init->Mode & GPIO_MODE) << (position * 2U));
 80007ca:	f004 0703 	and.w	r7, r4, #3
 80007ce:	fa07 fe0e 	lsl.w	lr, r7, lr
 80007d2:	ea4e 0606 	orr.w	r6, lr, r6
      GPIOx->MODER = temp;
 80007d6:	6006      	str	r6, [r0, #0]
      if((GPIO_Init->Mode & EXTI_MODE) == EXTI_MODE)
 80007d8:	00e6      	lsls	r6, r4, #3
 80007da:	d561      	bpl.n	80008a0 <HAL_GPIO_Init+0x184>
        __HAL_RCC_SYSCFG_CLK_ENABLE();
 80007dc:	f04f 0b00 	mov.w	fp, #0
 80007e0:	f8cd b00c 	str.w	fp, [sp, #12]
 80007e4:	f8d8 7044 	ldr.w	r7, [r8, #68]	; 0x44
        temp |= ((uint32_t)(GPIO_GET_INDEX(GPIOx)) << (4U * (position & 0x03U)));
 80007e8:	4e39      	ldr	r6, [pc, #228]	; (80008d0 <HAL_GPIO_Init+0x1b4>)
        __HAL_RCC_SYSCFG_CLK_ENABLE();
 80007ea:	f447 4780 	orr.w	r7, r7, #16384	; 0x4000
 80007ee:	f8c8 7044 	str.w	r7, [r8, #68]	; 0x44
 80007f2:	f8d8 7044 	ldr.w	r7, [r8, #68]	; 0x44
 80007f6:	f407 4780 	and.w	r7, r7, #16384	; 0x4000
 80007fa:	9703      	str	r7, [sp, #12]
 80007fc:	9f03      	ldr	r7, [sp, #12]
 80007fe:	f023 0703 	bic.w	r7, r3, #3
 8000802:	f107 4780 	add.w	r7, r7, #1073741824	; 0x40000000
 8000806:	f507 379c 	add.w	r7, r7, #79872	; 0x13800
        temp &= ~(0x0FU << (4U * (position & 0x03U)));
 800080a:	f003 0c03 	and.w	ip, r3, #3
        temp = SYSCFG->EXTICR[position >> 2U];
 800080e:	f8d7 a008 	ldr.w	sl, [r7, #8]
        temp &= ~(0x0FU << (4U * (position & 0x03U)));
 8000812:	ea4f 0c8c 	mov.w	ip, ip, lsl #2
 8000816:	f04f 0e0f 	mov.w	lr, #15
 800081a:	fa0e fe0c 	lsl.w	lr, lr, ip
        temp |= ((uint32_t)(GPIO_GET_INDEX(GPIOx)) << (4U * (position & 0x03U)));
 800081e:	42b0      	cmp	r0, r6
        temp &= ~(0x0FU << (4U * (position & 0x03U)));
 8000820:	ea2a 0e0e 	bic.w	lr, sl, lr
        temp |= ((uint32_t)(GPIO_GET_INDEX(GPIOx)) << (4U * (position & 0x03U)));
 8000824:	d043      	beq.n	80008ae <HAL_GPIO_Init+0x192>
 8000826:	f506 6680 	add.w	r6, r6, #1024	; 0x400
 800082a:	42b0      	cmp	r0, r6
 800082c:	d041      	beq.n	80008b2 <HAL_GPIO_Init+0x196>
 800082e:	f506 6680 	add.w	r6, r6, #1024	; 0x400
 8000832:	42b0      	cmp	r0, r6
 8000834:	d03f      	beq.n	80008b6 <HAL_GPIO_Init+0x19a>
 8000836:	f506 6680 	add.w	r6, r6, #1024	; 0x400
 800083a:	42b0      	cmp	r0, r6
 800083c:	d03d      	beq.n	80008ba <HAL_GPIO_Init+0x19e>
 800083e:	f506 6680 	add.w	r6, r6, #1024	; 0x400
 8000842:	42b0      	cmp	r0, r6
 8000844:	d03b      	beq.n	80008be <HAL_GPIO_Init+0x1a2>
 8000846:	4548      	cmp	r0, r9
 8000848:	d03b      	beq.n	80008c2 <HAL_GPIO_Init+0x1a6>
 800084a:	f506 6600 	add.w	r6, r6, #2048	; 0x800
 800084e:	42b0      	cmp	r0, r6
 8000850:	d039      	beq.n	80008c6 <HAL_GPIO_Init+0x1aa>
 8000852:	f506 6680 	add.w	r6, r6, #1024	; 0x400
 8000856:	42b0      	cmp	r0, r6
 8000858:	bf14      	ite	ne
 800085a:	2608      	movne	r6, #8
 800085c:	2607      	moveq	r6, #7
 800085e:	fa06 f60c 	lsl.w	r6, r6, ip
 8000862:	ea46 060e 	orr.w	r6, r6, lr
        SYSCFG->EXTICR[position >> 2U] = temp;
 8000866:	60be      	str	r6, [r7, #8]
        temp = EXTI->IMR;
 8000868:	6816      	ldr	r6, [r2, #0]
        temp &= ~((uint32_t)iocurrent);
 800086a:	43ef      	mvns	r7, r5
        if((GPIO_Init->Mode & GPIO_MODE_IT) == GPIO_MODE_IT)
 800086c:	f414 3f80 	tst.w	r4, #65536	; 0x10000
        temp &= ~((uint32_t)iocurrent);
 8000870:	bf0c      	ite	eq
 8000872:	403e      	andeq	r6, r7
        {
          temp |= iocurrent;
 8000874:	432e      	orrne	r6, r5
        }
        EXTI->IMR = temp;
 8000876:	6016      	str	r6, [r2, #0]

        temp = EXTI->EMR;
 8000878:	6856      	ldr	r6, [r2, #4]
        temp &= ~((uint32_t)iocurrent);
        if((GPIO_Init->Mode & GPIO_MODE_EVT) == GPIO_MODE_EVT)
 800087a:	f414 3f00 	tst.w	r4, #131072	; 0x20000
        temp &= ~((uint32_t)iocurrent);
 800087e:	bf0c      	ite	eq
 8000880:	403e      	andeq	r6, r7
        {
          temp |= iocurrent;
 8000882:	432e      	orrne	r6, r5
        }
        EXTI->EMR = temp;
 8000884:	6056      	str	r6, [r2, #4]

        /* Clear Rising Falling edge configuration */
        temp = EXTI->RTSR;
 8000886:	6896      	ldr	r6, [r2, #8]
        temp &= ~((uint32_t)iocurrent);
        if((GPIO_Init->Mode & RISING_EDGE) == RISING_EDGE)
 8000888:	f414 1f80 	tst.w	r4, #1048576	; 0x100000
        temp &= ~((uint32_t)iocurrent);
 800088c:	bf0c      	ite	eq
 800088e:	403e      	andeq	r6, r7
        {
          temp |= iocurrent;
 8000890:	432e      	orrne	r6, r5
        }
        EXTI->RTSR = temp;
 8000892:	6096      	str	r6, [r2, #8]

        temp = EXTI->FTSR;
 8000894:	68d6      	ldr	r6, [r2, #12]
        temp &= ~((uint32_t)iocurrent);
        if((GPIO_Init->Mode & FALLING_EDGE) == FALLING_EDGE)
 8000896:	02a4      	lsls	r4, r4, #10
        temp &= ~((uint32_t)iocurrent);
 8000898:	bf54      	ite	pl
 800089a:	403e      	andpl	r6, r7
        {
          temp |= iocurrent;
 800089c:	432e      	orrmi	r6, r5
        }
        EXTI->FTSR = temp;
 800089e:	60d6      	str	r6, [r2, #12]
  for(position = 0U; position < GPIO_NUMBER; position++)
 80008a0:	3301      	adds	r3, #1
 80008a2:	2b10      	cmp	r3, #16
 80008a4:	f47f af45 	bne.w	8000732 <HAL_GPIO_Init+0x16>
      }
    }
  }
}
 80008a8:	b005      	add	sp, #20
 80008aa:	e8bd 8ff0 	ldmia.w	sp!, {r4, r5, r6, r7, r8, r9, sl, fp, pc}
        temp |= ((uint32_t)(GPIO_GET_INDEX(GPIOx)) << (4U * (position & 0x03U)));
 80008ae:	465e      	mov	r6, fp
 80008b0:	e7d5      	b.n	800085e <HAL_GPIO_Init+0x142>
 80008b2:	2601      	movs	r6, #1
 80008b4:	e7d3      	b.n	800085e <HAL_GPIO_Init+0x142>
 80008b6:	2602      	movs	r6, #2
 80008b8:	e7d1      	b.n	800085e <HAL_GPIO_Init+0x142>
 80008ba:	2603      	movs	r6, #3
 80008bc:	e7cf      	b.n	800085e <HAL_GPIO_Init+0x142>
 80008be:	2604      	movs	r6, #4
 80008c0:	e7cd      	b.n	800085e <HAL_GPIO_Init+0x142>
 80008c2:	2605      	movs	r6, #5
 80008c4:	e7cb      	b.n	800085e <HAL_GPIO_Init+0x142>
 80008c6:	2606      	movs	r6, #6
 80008c8:	e7c9      	b.n	800085e <HAL_GPIO_Init+0x142>
 80008ca:	bf00      	nop
 80008cc:	40013c00 	.word	0x40013c00
 80008d0:	40020000 	.word	0x40020000
 80008d4:	40023800 	.word	0x40023800
 80008d8:	40021400 	.word	0x40021400

080008dc <HAL_GPIO_WritePin>:
{
  /* Check the parameters */
  assert_param(IS_GPIO_PIN(GPIO_Pin));
  assert_param(IS_GPIO_PIN_ACTION(PinState));

  if(PinState != GPIO_PIN_RESET)
 80008dc:	b10a      	cbz	r2, 80008e2 <HAL_GPIO_WritePin+0x6>
  {
    GPIOx->BSRR = GPIO_Pin;
  }
  else
  {
    GPIOx->BSRR = (uint32_t)GPIO_Pin << 16U;
 80008de:	6181      	str	r1, [r0, #24]
 80008e0:	4770      	bx	lr
 80008e2:	0409      	lsls	r1, r1, #16
 80008e4:	e7fb      	b.n	80008de <HAL_GPIO_WritePin+0x2>

080008e6 <HAL_HCD_HC_Init>:
                                  uint8_t epnum,
                                  uint8_t dev_address,
                                  uint8_t speed,
                                  uint8_t ep_type,
                                  uint16_t mps)
{
 80008e6:	e92d 47ff 	stmdb	sp!, {r0, r1, r2, r3, r4, r5, r6, r7, r8, r9, sl, lr}
 80008ea:	4604      	mov	r4, r0
  HAL_StatusTypeDef status;

  __HAL_LOCK(hhcd);
 80008ec:	f890 02b8 	ldrb.w	r0, [r0, #696]	; 0x2b8
{
 80008f0:	f89d 7030 	ldrb.w	r7, [sp, #48]	; 0x30
 80008f4:	f89d e034 	ldrb.w	lr, [sp, #52]	; 0x34
 80008f8:	f8bd c038 	ldrh.w	ip, [sp, #56]	; 0x38
  __HAL_LOCK(hhcd);
 80008fc:	2801      	cmp	r0, #1
 80008fe:	d028      	beq.n	8000952 <HAL_HCD_HC_Init+0x6c>
  hhcd->hc[ch_num].do_ping = 0U;
 8000900:	2028      	movs	r0, #40	; 0x28
 8000902:	fb00 4001 	mla	r0, r0, r1, r4
  __HAL_LOCK(hhcd);
 8000906:	2501      	movs	r5, #1
  hhcd->hc[ch_num].do_ping = 0U;
 8000908:	2600      	movs	r6, #0
  hhcd->hc[ch_num].ep_type = ep_type;
  hhcd->hc[ch_num].ep_num = epnum & 0x7FU;

  if ((epnum & 0x80U) == 0x80U)
  {
    hhcd->hc[ch_num].ep_is_in = 1U;
 800090a:	f012 0f80 	tst.w	r2, #128	; 0x80
  __HAL_LOCK(hhcd);
 800090e:	f884 52b8 	strb.w	r5, [r4, #696]	; 0x2b8
  hhcd->hc[ch_num].ep_num = epnum & 0x7FU;
 8000912:	f002 097f 	and.w	r9, r2, #127	; 0x7f
    hhcd->hc[ch_num].ep_is_in = 1U;
 8000916:	bf08      	it	eq
 8000918:	4635      	moveq	r5, r6
  hhcd->hc[ch_num].do_ping = 0U;
 800091a:	f880 603d 	strb.w	r6, [r0, #61]	; 0x3d
  hhcd->hc[ch_num].dev_addr = dev_address;
 800091e:	f880 3038 	strb.w	r3, [r0, #56]	; 0x38
  hhcd->hc[ch_num].ch_num = ch_num;
 8000922:	f880 1039 	strb.w	r1, [r0, #57]	; 0x39
  hhcd->hc[ch_num].ep_type = ep_type;
 8000926:	f880 e03f 	strb.w	lr, [r0, #63]	; 0x3f
  hhcd->hc[ch_num].ep_num = epnum & 0x7FU;
 800092a:	f880 903a 	strb.w	r9, [r0, #58]	; 0x3a
    hhcd->hc[ch_num].ep_is_in = 1U;
 800092e:	f880 503b 	strb.w	r5, [r0, #59]	; 0x3b
  else
  {
    hhcd->hc[ch_num].ep_is_in = 0U;
  }

  hhcd->hc[ch_num].speed = speed;
 8000932:	f880 703c 	strb.w	r7, [r0, #60]	; 0x3c
  hhcd->hc[ch_num].max_packet = mps;
 8000936:	f8a0 c040 	strh.w	ip, [r0, #64]	; 0x40

  status =  USB_HC_Init(hhcd->Instance,
 800093a:	f8cd c008 	str.w	ip, [sp, #8]
 800093e:	e88d 4080 	stmia.w	sp, {r7, lr}
 8000942:	6820      	ldr	r0, [r4, #0]
 8000944:	f001 fd3e 	bl	80023c4 <USB_HC_Init>
                        epnum,
                        dev_address,
                        speed,
                        ep_type,
                        mps);
  __HAL_UNLOCK(hhcd);
 8000948:	f884 62b8 	strb.w	r6, [r4, #696]	; 0x2b8

  return status;
}
 800094c:	b004      	add	sp, #16
 800094e:	e8bd 87f0 	ldmia.w	sp!, {r4, r5, r6, r7, r8, r9, sl, pc}
  __HAL_LOCK(hhcd);
 8000952:	2002      	movs	r0, #2
 8000954:	e7fa      	b.n	800094c <HAL_HCD_HC_Init+0x66>

08000956 <HAL_HCD_HC_Halt>:
  */
HAL_StatusTypeDef HAL_HCD_HC_Halt(HCD_HandleTypeDef *hhcd, uint8_t ch_num)
{
  HAL_StatusTypeDef status = HAL_OK;

  __HAL_LOCK(hhcd);
 8000956:	f890 32b8 	ldrb.w	r3, [r0, #696]	; 0x2b8
 800095a:	2b01      	cmp	r3, #1
{
 800095c:	b510      	push	{r4, lr}
 800095e:	4604      	mov	r4, r0
  __HAL_LOCK(hhcd);
 8000960:	d009      	beq.n	8000976 <HAL_HCD_HC_Halt+0x20>
 8000962:	2301      	movs	r3, #1
 8000964:	f880 32b8 	strb.w	r3, [r0, #696]	; 0x2b8
  (void)USB_HC_Halt(hhcd->Instance, (uint8_t)ch_num);
 8000968:	6800      	ldr	r0, [r0, #0]
 800096a:	f001 fdb5 	bl	80024d8 <USB_HC_Halt>
  __HAL_UNLOCK(hhcd);
 800096e:	2000      	movs	r0, #0
 8000970:	f884 02b8 	strb.w	r0, [r4, #696]	; 0x2b8

  return status;
 8000974:	bd10      	pop	{r4, pc}
  __HAL_LOCK(hhcd);
 8000976:	2002      	movs	r0, #2
}
 8000978:	bd10      	pop	{r4, pc}

0800097a <HAL_HCD_Init>:
{
 800097a:	e92d 41f0 	stmdb	sp!, {r4, r5, r6, r7, r8, lr}
  if (hhcd == NULL)
 800097e:	4607      	mov	r7, r0
{
 8000980:	b08a      	sub	sp, #40	; 0x28
  if (hhcd == NULL)
 8000982:	2800      	cmp	r0, #0
 8000984:	d041      	beq.n	8000a0a <HAL_HCD_Init+0x90>
  if (hhcd->State == HAL_HCD_STATE_RESET)
 8000986:	f890 32b9 	ldrb.w	r3, [r0, #697]	; 0x2b9
  USBx = hhcd->Instance;
 800098a:	6804      	ldr	r4, [r0, #0]
  if (hhcd->State == HAL_HCD_STATE_RESET)
 800098c:	f003 02ff 	and.w	r2, r3, #255	; 0xff
 8000990:	b91b      	cbnz	r3, 800099a <HAL_HCD_Init+0x20>
    hhcd->Lock = HAL_UNLOCKED;
 8000992:	f880 22b8 	strb.w	r2, [r0, #696]	; 0x2b8
    HAL_HCD_MspInit(hhcd);
 8000996:	f003 f951 	bl	8003c3c <HAL_HCD_MspInit>
  hhcd->State = HAL_HCD_STATE_BUSY;
 800099a:	2303      	movs	r3, #3
 800099c:	f887 32b9 	strb.w	r3, [r7, #697]	; 0x2b9
  if ((USBx->CID & (0x1U << 8)) == 0U)
 80009a0:	6be3      	ldr	r3, [r4, #60]	; 0x3c
  __HAL_HCD_DISABLE(hhcd);
 80009a2:	463c      	mov	r4, r7
  if ((USBx->CID & (0x1U << 8)) == 0U)
 80009a4:	f413 7380 	ands.w	r3, r3, #256	; 0x100
  __HAL_HCD_DISABLE(hhcd);
 80009a8:	f854 0b10 	ldr.w	r0, [r4], #16
    hhcd->Init.dma_enable = 0U;
 80009ac:	bf08      	it	eq
 80009ae:	613b      	streq	r3, [r7, #16]
  __HAL_HCD_DISABLE(hhcd);
 80009b0:	f001 fbc4 	bl	800213c <USB_DisableGlobalInt>
  (void)USB_CoreInit(hhcd->Instance, hhcd->Init);
 80009b4:	cc0f      	ldmia	r4!, {r0, r1, r2, r3}
 80009b6:	466d      	mov	r5, sp
 80009b8:	c50f      	stmia	r5!, {r0, r1, r2, r3}
 80009ba:	cc0f      	ldmia	r4!, {r0, r1, r2, r3}
 80009bc:	c50f      	stmia	r5!, {r0, r1, r2, r3}
 80009be:	e894 0003 	ldmia.w	r4, {r0, r1}
 80009c2:	e885 0003 	stmia.w	r5, {r0, r1}
 80009c6:	f107 0804 	add.w	r8, r7, #4
  (void)USB_SetCurrentMode(hhcd->Instance, USB_HOST_MODE);
 80009ca:	463e      	mov	r6, r7
  (void)USB_CoreInit(hhcd->Instance, hhcd->Init);
 80009cc:	e898 000e 	ldmia.w	r8, {r1, r2, r3}
 80009d0:	6838      	ldr	r0, [r7, #0]
 80009d2:	f001 fb6d 	bl	80020b0 <USB_CoreInit>
  (void)USB_SetCurrentMode(hhcd->Instance, USB_HOST_MODE);
 80009d6:	f856 0b10 	ldr.w	r0, [r6], #16
 80009da:	2101      	movs	r1, #1
 80009dc:	f001 fbb4 	bl	8002148 <USB_SetCurrentMode>
  (void)USB_HostInit(hhcd->Instance, hhcd->Init);
 80009e0:	ce0f      	ldmia	r6!, {r0, r1, r2, r3}
 80009e2:	466d      	mov	r5, sp
 80009e4:	c50f      	stmia	r5!, {r0, r1, r2, r3}
 80009e6:	ce0f      	ldmia	r6!, {r0, r1, r2, r3}
 80009e8:	c50f      	stmia	r5!, {r0, r1, r2, r3}
 80009ea:	e894 0003 	ldmia.w	r4, {r0, r1}
 80009ee:	e885 0003 	stmia.w	r5, {r0, r1}
 80009f2:	e898 000e 	ldmia.w	r8, {r1, r2, r3}
 80009f6:	6838      	ldr	r0, [r7, #0]
 80009f8:	f001 fc64 	bl	80022c4 <USB_HostInit>
  hhcd->State = HAL_HCD_STATE_READY;
 80009fc:	2301      	movs	r3, #1
 80009fe:	f887 32b9 	strb.w	r3, [r7, #697]	; 0x2b9
  return HAL_OK;
 8000a02:	2000      	movs	r0, #0
}
 8000a04:	b00a      	add	sp, #40	; 0x28
 8000a06:	e8bd 81f0 	ldmia.w	sp!, {r4, r5, r6, r7, r8, pc}
    return HAL_ERROR;
 8000a0a:	2001      	movs	r0, #1
 8000a0c:	e7fa      	b.n	8000a04 <HAL_HCD_Init+0x8a>
	...

08000a10 <HAL_HCD_HC_SubmitRequest>:
                                           uint8_t ep_type,
                                           uint8_t token,
                                           uint8_t *pbuff,
                                           uint16_t length,
                                           uint8_t do_ping)
{
 8000a10:	b5f0      	push	{r4, r5, r6, r7, lr}
  UNUSED(do_ping);

  hhcd->hc[ch_num].ep_is_in = direction;
 8000a12:	2428      	movs	r4, #40	; 0x28
 8000a14:	fb04 0401 	mla	r4, r4, r1, r0
{
 8000a18:	f89d 7014 	ldrb.w	r7, [sp, #20]
 8000a1c:	9e06      	ldr	r6, [sp, #24]
 8000a1e:	f8bd 501c 	ldrh.w	r5, [sp, #28]
  hhcd->hc[ch_num].ep_is_in = direction;
 8000a22:	f884 203b 	strb.w	r2, [r4, #59]	; 0x3b
  hhcd->hc[ch_num].ep_type  = ep_type;
 8000a26:	f884 303f 	strb.w	r3, [r4, #63]	; 0x3f

  if (token == 0U)
 8000a2a:	b96f      	cbnz	r7, 8000a48 <HAL_HCD_HC_SubmitRequest+0x38>
  {
    hhcd->hc[ch_num].data_pid = HC_PID_SETUP;
 8000a2c:	2703      	movs	r7, #3
  {
    hhcd->hc[ch_num].data_pid = HC_PID_DATA1;
  }

  /* Manage Data Toggle */
  switch (ep_type)
 8000a2e:	2b02      	cmp	r3, #2
    hhcd->hc[ch_num].data_pid = HC_PID_SETUP;
 8000a30:	f884 7042 	strb.w	r7, [r4, #66]	; 0x42
  switch (ep_type)
 8000a34:	d02b      	beq.n	8000a8e <HAL_HCD_HC_SubmitRequest+0x7e>
 8000a36:	42bb      	cmp	r3, r7
 8000a38:	d029      	beq.n	8000a8e <HAL_HCD_HC_SubmitRequest+0x7e>
 8000a3a:	2b01      	cmp	r3, #1
 8000a3c:	d131      	bne.n	8000aa2 <HAL_HCD_HC_SubmitRequest+0x92>
        }
      }
      break;

    case EP_TYPE_ISOC:
      hhcd->hc[ch_num].data_pid = HC_PID_DATA0;
 8000a3e:	2328      	movs	r3, #40	; 0x28
 8000a40:	fb03 0301 	mla	r3, r3, r1, r0
 8000a44:	2200      	movs	r2, #0
 8000a46:	e02a      	b.n	8000a9e <HAL_HCD_HC_SubmitRequest+0x8e>
    hhcd->hc[ch_num].data_pid = HC_PID_DATA1;
 8000a48:	f04f 0e02 	mov.w	lr, #2
 8000a4c:	f884 e042 	strb.w	lr, [r4, #66]	; 0x42
  switch (ep_type)
 8000a50:	2b03      	cmp	r3, #3
 8000a52:	d826      	bhi.n	8000aa2 <HAL_HCD_HC_SubmitRequest+0x92>
 8000a54:	a401      	add	r4, pc, #4	; (adr r4, 8000a5c <HAL_HCD_HC_SubmitRequest+0x4c>)
 8000a56:	f854 f023 	ldr.w	pc, [r4, r3, lsl #2]
 8000a5a:	bf00      	nop
 8000a5c:	08000a6d 	.word	0x08000a6d
 8000a60:	08000a3f 	.word	0x08000a3f
 8000a64:	08000a8f 	.word	0x08000a8f
 8000a68:	08000a8f 	.word	0x08000a8f
      if ((token == 1U) && (direction == 0U)) /*send data */
 8000a6c:	2f01      	cmp	r7, #1
 8000a6e:	d118      	bne.n	8000aa2 <HAL_HCD_HC_SubmitRequest+0x92>
 8000a70:	b9ba      	cbnz	r2, 8000aa2 <HAL_HCD_HC_SubmitRequest+0x92>
        if (length == 0U)
 8000a72:	b925      	cbnz	r5, 8000a7e <HAL_HCD_HC_SubmitRequest+0x6e>
          hhcd->hc[ch_num].toggle_out = 1U;
 8000a74:	2328      	movs	r3, #40	; 0x28
 8000a76:	fb03 0301 	mla	r3, r3, r1, r0
 8000a7a:	f883 7051 	strb.w	r7, [r3, #81]	; 0x51
        if (hhcd->hc[ch_num].toggle_out == 0U)
 8000a7e:	2328      	movs	r3, #40	; 0x28
 8000a80:	fb03 0301 	mla	r3, r3, r1, r0
 8000a84:	f893 2051 	ldrb.w	r2, [r3, #81]	; 0x51
        if (hhcd->hc[ch_num].toggle_in == 0U)
 8000a88:	b14a      	cbz	r2, 8000a9e <HAL_HCD_HC_SubmitRequest+0x8e>
          hhcd->hc[ch_num].data_pid = HC_PID_DATA1;
 8000a8a:	2202      	movs	r2, #2
 8000a8c:	e007      	b.n	8000a9e <HAL_HCD_HC_SubmitRequest+0x8e>
 8000a8e:	2328      	movs	r3, #40	; 0x28
        if (hhcd->hc[ch_num].toggle_out == 0U)
 8000a90:	fb03 0301 	mla	r3, r3, r1, r0
      if (direction == 0U)
 8000a94:	b9d2      	cbnz	r2, 8000acc <HAL_HCD_HC_SubmitRequest+0xbc>
        if (hhcd->hc[ch_num].toggle_out == 0U)
 8000a96:	f893 4051 	ldrb.w	r4, [r3, #81]	; 0x51
 8000a9a:	2c00      	cmp	r4, #0
 8000a9c:	d1f5      	bne.n	8000a8a <HAL_HCD_HC_SubmitRequest+0x7a>
      hhcd->hc[ch_num].data_pid = HC_PID_DATA0;
 8000a9e:	f883 2042 	strb.w	r2, [r3, #66]	; 0x42

    default:
      break;
  }

  hhcd->hc[ch_num].xfer_buff = pbuff;
 8000aa2:	2428      	movs	r4, #40	; 0x28
 8000aa4:	fb04 0301 	mla	r3, r4, r1, r0
  hhcd->hc[ch_num].xfer_len  = length;
  hhcd->hc[ch_num].urb_state = URB_IDLE;
 8000aa8:	2200      	movs	r2, #0
  hhcd->hc[ch_num].xfer_count = 0U;
  hhcd->hc[ch_num].ch_num = ch_num;
 8000aaa:	f883 1039 	strb.w	r1, [r3, #57]	; 0x39
  hhcd->hc[ch_num].state = HC_IDLE;

  return USB_HC_StartXfer(hhcd->Instance, &hhcd->hc[ch_num], (uint8_t)hhcd->Init.dma_enable);
 8000aae:	4619      	mov	r1, r3
  hhcd->hc[ch_num].xfer_buff = pbuff;
 8000ab0:	645e      	str	r6, [r3, #68]	; 0x44
  hhcd->hc[ch_num].xfer_len  = length;
 8000ab2:	649d      	str	r5, [r3, #72]	; 0x48
  hhcd->hc[ch_num].urb_state = URB_IDLE;
 8000ab4:	f883 205c 	strb.w	r2, [r3, #92]	; 0x5c
  hhcd->hc[ch_num].xfer_count = 0U;
 8000ab8:	64da      	str	r2, [r3, #76]	; 0x4c
  hhcd->hc[ch_num].state = HC_IDLE;
 8000aba:	f883 205d 	strb.w	r2, [r3, #93]	; 0x5d
  return USB_HC_StartXfer(hhcd->Instance, &hhcd->hc[ch_num], (uint8_t)hhcd->Init.dma_enable);
 8000abe:	3138      	adds	r1, #56	; 0x38
 8000ac0:	7c02      	ldrb	r2, [r0, #16]
 8000ac2:	6800      	ldr	r0, [r0, #0]
}
 8000ac4:	e8bd 40f0 	ldmia.w	sp!, {r4, r5, r6, r7, lr}
  return USB_HC_StartXfer(hhcd->Instance, &hhcd->hc[ch_num], (uint8_t)hhcd->Init.dma_enable);
 8000ac8:	f001 bd6a 	b.w	80025a0 <USB_HC_StartXfer>
        if (hhcd->hc[ch_num].toggle_in == 0U)
 8000acc:	f893 2050 	ldrb.w	r2, [r3, #80]	; 0x50
 8000ad0:	e7da      	b.n	8000a88 <HAL_HCD_HC_SubmitRequest+0x78>
 8000ad2:	bf00      	nop

08000ad4 <HAL_HCD_IRQHandler>:
  * @brief  Handle HCD interrupt request.
  * @param  hhcd HCD handle
  * @retval None
  */
void HAL_HCD_IRQHandler(HCD_HandleTypeDef *hhcd)
{
 8000ad4:	e92d 4ff0 	stmdb	sp!, {r4, r5, r6, r7, r8, r9, sl, fp, lr}
  USB_OTG_GlobalTypeDef *USBx = hhcd->Instance;
 8000ad8:	6806      	ldr	r6, [r0, #0]
{
 8000ada:	b087      	sub	sp, #28
 8000adc:	4604      	mov	r4, r0
  uint32_t USBx_BASE = (uint32_t)USBx;
  uint32_t i, interrupt;

  /* Ensure that we are in device mode */
  if (USB_GetMode(hhcd->Instance) == USB_OTG_MODE_HOST)
 8000ade:	4630      	mov	r0, r6
 8000ae0:	f001 fb92 	bl	8002208 <USB_GetMode>
 8000ae4:	2801      	cmp	r0, #1
 8000ae6:	f040 80b4 	bne.w	8000c52 <HAL_HCD_IRQHandler+0x17e>
  {
    /* Avoid spurious interrupt */
    if (__HAL_HCD_IS_INVALID_INTERRUPT(hhcd))
 8000aea:	6820      	ldr	r0, [r4, #0]
 8000aec:	f001 fb88 	bl	8002200 <USB_ReadInterrupts>
 8000af0:	2800      	cmp	r0, #0
 8000af2:	f000 80ae 	beq.w	8000c52 <HAL_HCD_IRQHandler+0x17e>
    {
      return;
    }

    if (__HAL_HCD_GET_FLAG(hhcd, USB_OTG_GINTSTS_PXFR_INCOMPISOOUT))
 8000af6:	6820      	ldr	r0, [r4, #0]
 8000af8:	f001 fb82 	bl	8002200 <USB_ReadInterrupts>
 8000afc:	0287      	lsls	r7, r0, #10
    {
      /* Incorrect mode, acknowledge the interrupt */
      __HAL_HCD_CLEAR_FLAG(hhcd, USB_OTG_GINTSTS_PXFR_INCOMPISOOUT);
 8000afe:	bf48      	it	mi
 8000b00:	6823      	ldrmi	r3, [r4, #0]
    }

    if (__HAL_HCD_GET_FLAG(hhcd, USB_OTG_GINTSTS_IISOIXFR))
 8000b02:	6820      	ldr	r0, [r4, #0]
      __HAL_HCD_CLEAR_FLAG(hhcd, USB_OTG_GINTSTS_PXFR_INCOMPISOOUT);
 8000b04:	bf44      	itt	mi
 8000b06:	f44f 1200 	movmi.w	r2, #2097152	; 0x200000
 8000b0a:	615a      	strmi	r2, [r3, #20]
    if (__HAL_HCD_GET_FLAG(hhcd, USB_OTG_GINTSTS_IISOIXFR))
 8000b0c:	f001 fb78 	bl	8002200 <USB_ReadInterrupts>
 8000b10:	02c5      	lsls	r5, r0, #11
    {
      /* Incorrect mode, acknowledge the interrupt */
      __HAL_HCD_CLEAR_FLAG(hhcd, USB_OTG_GINTSTS_IISOIXFR);
 8000b12:	bf48      	it	mi
 8000b14:	6823      	ldrmi	r3, [r4, #0]
    }

    if (__HAL_HCD_GET_FLAG(hhcd, USB_OTG_GINTSTS_PTXFE))
 8000b16:	6820      	ldr	r0, [r4, #0]
      __HAL_HCD_CLEAR_FLAG(hhcd, USB_OTG_GINTSTS_IISOIXFR);
 8000b18:	bf44      	itt	mi
 8000b1a:	f44f 1280 	movmi.w	r2, #1048576	; 0x100000
 8000b1e:	615a      	strmi	r2, [r3, #20]
    if (__HAL_HCD_GET_FLAG(hhcd, USB_OTG_GINTSTS_PTXFE))
 8000b20:	f001 fb6e 	bl	8002200 <USB_ReadInterrupts>
 8000b24:	0140      	lsls	r0, r0, #5
    {
      /* Incorrect mode, acknowledge the interrupt */
      __HAL_HCD_CLEAR_FLAG(hhcd, USB_OTG_GINTSTS_PTXFE);
 8000b26:	bf48      	it	mi
 8000b28:	6823      	ldrmi	r3, [r4, #0]
    }

    if (__HAL_HCD_GET_FLAG(hhcd, USB_OTG_GINTSTS_MMIS))
 8000b2a:	6820      	ldr	r0, [r4, #0]
      __HAL_HCD_CLEAR_FLAG(hhcd, USB_OTG_GINTSTS_PTXFE);
 8000b2c:	bf44      	itt	mi
 8000b2e:	f04f 6280 	movmi.w	r2, #67108864	; 0x4000000
 8000b32:	615a      	strmi	r2, [r3, #20]
    if (__HAL_HCD_GET_FLAG(hhcd, USB_OTG_GINTSTS_MMIS))
 8000b34:	f001 fb64 	bl	8002200 <USB_ReadInterrupts>
 8000b38:	0781      	lsls	r1, r0, #30
    {
      /* Incorrect mode, acknowledge the interrupt */
      __HAL_HCD_CLEAR_FLAG(hhcd, USB_OTG_GINTSTS_MMIS);
 8000b3a:	bf48      	it	mi
 8000b3c:	6823      	ldrmi	r3, [r4, #0]
    }

    /* Handle Host Disconnect Interrupts */
    if (__HAL_HCD_GET_FLAG(hhcd, USB_OTG_GINTSTS_DISCINT))
 8000b3e:	6820      	ldr	r0, [r4, #0]
      __HAL_HCD_CLEAR_FLAG(hhcd, USB_OTG_GINTSTS_MMIS);
 8000b40:	bf44      	itt	mi
 8000b42:	2202      	movmi	r2, #2
 8000b44:	615a      	strmi	r2, [r3, #20]
    if (__HAL_HCD_GET_FLAG(hhcd, USB_OTG_GINTSTS_DISCINT))
 8000b46:	f001 fb5b 	bl	8002200 <USB_ReadInterrupts>
 8000b4a:	0082      	lsls	r2, r0, #2
 8000b4c:	d510      	bpl.n	8000b70 <HAL_HCD_IRQHandler+0x9c>
    {

      /* Cleanup HPRT */
      USBx_HPRT0 &= ~(USB_OTG_HPRT_PENA | USB_OTG_HPRT_PCDET | \
 8000b4e:	f8d6 3440 	ldr.w	r3, [r6, #1088]	; 0x440
 8000b52:	f023 032e 	bic.w	r3, r3, #46	; 0x2e
 8000b56:	f8c6 3440 	str.w	r3, [r6, #1088]	; 0x440

      /* Handle Host Port Disconnect Interrupt */
#if (USE_HAL_HCD_REGISTER_CALLBACKS == 1U)
      hhcd->DisconnectCallback(hhcd);
#else
      HAL_HCD_Disconnect_Callback(hhcd);
 8000b5a:	4620      	mov	r0, r4
 8000b5c:	f003 f8be 	bl	8003cdc <HAL_HCD_Disconnect_Callback>
#endif /* USE_HAL_HCD_REGISTER_CALLBACKS */

      (void)USB_InitFSLSPClkSel(hhcd->Instance, HCFG_48_MHZ);
 8000b60:	2101      	movs	r1, #1
 8000b62:	6820      	ldr	r0, [r4, #0]
 8000b64:	f001 fb54 	bl	8002210 <USB_InitFSLSPClkSel>
      __HAL_HCD_CLEAR_FLAG(hhcd, USB_OTG_GINTSTS_DISCINT);
 8000b68:	6823      	ldr	r3, [r4, #0]
 8000b6a:	f04f 5200 	mov.w	r2, #536870912	; 0x20000000
 8000b6e:	615a      	str	r2, [r3, #20]
    }

    /* Handle Host Port Interrupts */
    if (__HAL_HCD_GET_FLAG(hhcd, USB_OTG_GINTSTS_HPRTINT))
 8000b70:	6820      	ldr	r0, [r4, #0]
 8000b72:	f001 fb45 	bl	8002200 <USB_ReadInterrupts>
 8000b76:	01c3      	lsls	r3, r0, #7
 8000b78:	d542      	bpl.n	8000c00 <HAL_HCD_IRQHandler+0x12c>
  * @param  hhcd HCD handle
  * @retval None
  */
static void HCD_Port_IRQHandler(HCD_HandleTypeDef *hhcd)
{
  USB_OTG_GlobalTypeDef *USBx = hhcd->Instance;
 8000b7a:	6825      	ldr	r5, [r4, #0]
  uint32_t USBx_BASE = (uint32_t)USBx;
  __IO uint32_t hprt0, hprt0_dup;

  /* Handle Host Port Interrupts */
  hprt0 = USBx_HPRT0;
 8000b7c:	f8d5 3440 	ldr.w	r3, [r5, #1088]	; 0x440
 8000b80:	9304      	str	r3, [sp, #16]
  hprt0_dup = USBx_HPRT0;
 8000b82:	f8d5 3440 	ldr.w	r3, [r5, #1088]	; 0x440
 8000b86:	9305      	str	r3, [sp, #20]

  hprt0_dup &= ~(USB_OTG_HPRT_PENA | USB_OTG_HPRT_PCDET | \
 8000b88:	9b05      	ldr	r3, [sp, #20]
 8000b8a:	f023 032e 	bic.w	r3, r3, #46	; 0x2e
 8000b8e:	9305      	str	r3, [sp, #20]
                 USB_OTG_HPRT_PENCHNG | USB_OTG_HPRT_POCCHNG);

  /* Check whether Port Connect detected */
  if ((hprt0 & USB_OTG_HPRT_PCDET) == USB_OTG_HPRT_PCDET)
 8000b90:	9b04      	ldr	r3, [sp, #16]
 8000b92:	079f      	lsls	r7, r3, #30
 8000b94:	d50d      	bpl.n	8000bb2 <HAL_HCD_IRQHandler+0xde>
  {
    if ((hprt0 & USB_OTG_HPRT_PCSTS) == USB_OTG_HPRT_PCSTS)
 8000b96:	9b04      	ldr	r3, [sp, #16]
 8000b98:	07d8      	lsls	r0, r3, #31
 8000b9a:	d506      	bpl.n	8000baa <HAL_HCD_IRQHandler+0xd6>
    {
      USB_MASK_INTERRUPT(hhcd->Instance, USB_OTG_GINTSTS_DISCINT);
 8000b9c:	69ab      	ldr	r3, [r5, #24]
 8000b9e:	f023 5300 	bic.w	r3, r3, #536870912	; 0x20000000
 8000ba2:	61ab      	str	r3, [r5, #24]

#if (USE_HAL_HCD_REGISTER_CALLBACKS == 1U)
      hhcd->ConnectCallback(hhcd);
#else
      HAL_HCD_Connect_Callback(hhcd);
 8000ba4:	4620      	mov	r0, r4
 8000ba6:	f003 f895 	bl	8003cd4 <HAL_HCD_Connect_Callback>
#endif /* USE_HAL_HCD_REGISTER_CALLBACKS */
    }
    hprt0_dup  |= USB_OTG_HPRT_PCDET;
 8000baa:	9b05      	ldr	r3, [sp, #20]
 8000bac:	f043 0302 	orr.w	r3, r3, #2
 8000bb0:	9305      	str	r3, [sp, #20]
  }

  /* Check whether Port Enable Changed */
  if ((hprt0 & USB_OTG_HPRT_PENCHNG) == USB_OTG_HPRT_PENCHNG)
 8000bb2:	9b04      	ldr	r3, [sp, #16]
 8000bb4:	0719      	lsls	r1, r3, #28
 8000bb6:	d519      	bpl.n	8000bec <HAL_HCD_IRQHandler+0x118>
  {
    hprt0_dup |= USB_OTG_HPRT_PENCHNG;
 8000bb8:	9b05      	ldr	r3, [sp, #20]
 8000bba:	f043 0308 	orr.w	r3, r3, #8
 8000bbe:	9305      	str	r3, [sp, #20]

    if ((hprt0 & USB_OTG_HPRT_PENA) == USB_OTG_HPRT_PENA)
 8000bc0:	9b04      	ldr	r3, [sp, #16]
 8000bc2:	075a      	lsls	r2, r3, #29
 8000bc4:	d550      	bpl.n	8000c68 <HAL_HCD_IRQHandler+0x194>
    {
      if (hhcd->Init.phy_itface  == USB_OTG_EMBEDDED_PHY)
 8000bc6:	69a1      	ldr	r1, [r4, #24]
 8000bc8:	2902      	cmp	r1, #2
 8000bca:	d145      	bne.n	8000c58 <HAL_HCD_IRQHandler+0x184>
      {
        if ((hprt0 & USB_OTG_HPRT_PSPD) == (HPRT0_PRTSPD_LOW_SPEED << 17))
 8000bcc:	9b04      	ldr	r3, [sp, #16]
        {
          (void)USB_InitFSLSPClkSel(hhcd->Instance, HCFG_6_MHZ);
        }
        else
        {
          (void)USB_InitFSLSPClkSel(hhcd->Instance, HCFG_48_MHZ);
 8000bce:	6820      	ldr	r0, [r4, #0]
        if ((hprt0 & USB_OTG_HPRT_PSPD) == (HPRT0_PRTSPD_LOW_SPEED << 17))
 8000bd0:	f403 23c0 	and.w	r3, r3, #393216	; 0x60000
 8000bd4:	f5b3 2f80 	cmp.w	r3, #262144	; 0x40000
          (void)USB_InitFSLSPClkSel(hhcd->Instance, HCFG_48_MHZ);
 8000bd8:	bf18      	it	ne
 8000bda:	2101      	movne	r1, #1
 8000bdc:	f001 fb18 	bl	8002210 <USB_InitFSLSPClkSel>
      }
#if (USE_HAL_HCD_REGISTER_CALLBACKS == 1U)
      hhcd->PortEnabledCallback(hhcd);
      hhcd->ConnectCallback(hhcd);
#else
      HAL_HCD_PortEnabled_Callback(hhcd);
 8000be0:	4620      	mov	r0, r4
 8000be2:	f003 f880 	bl	8003ce6 <HAL_HCD_PortEnabled_Callback>
      HAL_HCD_Connect_Callback(hhcd);
 8000be6:	4620      	mov	r0, r4
 8000be8:	f003 f874 	bl	8003cd4 <HAL_HCD_Connect_Callback>
      USB_UNMASK_INTERRUPT(hhcd->Instance, USB_OTG_GINTSTS_DISCINT);
    }
  }

  /* Check for an overcurrent */
  if ((hprt0 & USB_OTG_HPRT_POCCHNG) == USB_OTG_HPRT_POCCHNG)
 8000bec:	9b04      	ldr	r3, [sp, #16]
 8000bee:	069b      	lsls	r3, r3, #26
  {
    hprt0_dup |= USB_OTG_HPRT_POCCHNG;
 8000bf0:	bf42      	ittt	mi
 8000bf2:	9b05      	ldrmi	r3, [sp, #20]
 8000bf4:	f043 0320 	orrmi.w	r3, r3, #32
 8000bf8:	9305      	strmi	r3, [sp, #20]
  }

  /* Clear Port Interrupts */
  USBx_HPRT0 = hprt0_dup;
 8000bfa:	9b05      	ldr	r3, [sp, #20]
 8000bfc:	f8c5 3440 	str.w	r3, [r5, #1088]	; 0x440
    if (__HAL_HCD_GET_FLAG(hhcd, USB_OTG_GINTSTS_SOF))
 8000c00:	6820      	ldr	r0, [r4, #0]
 8000c02:	f001 fafd 	bl	8002200 <USB_ReadInterrupts>
 8000c06:	0707      	lsls	r7, r0, #28
 8000c08:	d505      	bpl.n	8000c16 <HAL_HCD_IRQHandler+0x142>
      HAL_HCD_SOF_Callback(hhcd);
 8000c0a:	4620      	mov	r0, r4
 8000c0c:	f003 f85e 	bl	8003ccc <HAL_HCD_SOF_Callback>
      __HAL_HCD_CLEAR_FLAG(hhcd, USB_OTG_GINTSTS_SOF);
 8000c10:	6823      	ldr	r3, [r4, #0]
 8000c12:	2208      	movs	r2, #8
 8000c14:	615a      	str	r2, [r3, #20]
    if (__HAL_HCD_GET_FLAG(hhcd, USB_OTG_GINTSTS_HCINT))
 8000c16:	6820      	ldr	r0, [r4, #0]
 8000c18:	f001 faf2 	bl	8002200 <USB_ReadInterrupts>
 8000c1c:	0185      	lsls	r5, r0, #6
 8000c1e:	d512      	bpl.n	8000c46 <HAL_HCD_IRQHandler+0x172>
      interrupt = USB_HC_ReadInterrupt(hhcd->Instance);
 8000c20:	6820      	ldr	r0, [r4, #0]
 8000c22:	f001 fc54 	bl	80024ce <USB_HC_ReadInterrupt>
      for (i = 0U; i < hhcd->Init.Host_channels; i++)
 8000c26:	f04f 0a00 	mov.w	sl, #0
      interrupt = USB_HC_ReadInterrupt(hhcd->Instance);
 8000c2a:	9001      	str	r0, [sp, #4]
 8000c2c:	f506 68a0 	add.w	r8, r6, #1280	; 0x500
    if (hhcd->hc[ch_num].state == HC_XFRC)
 8000c30:	2728      	movs	r7, #40	; 0x28
    __HAL_HCD_CLEAR_HC_INT(ch_num, USB_OTG_HCINT_CHH);
 8000c32:	f04f 0902 	mov.w	r9, #2
        hhcd->hc[ch_num].ErrCnt = 0U;
 8000c36:	46d3      	mov	fp, sl
      for (i = 0U; i < hhcd->Init.Host_channels; i++)
 8000c38:	68a3      	ldr	r3, [r4, #8]
 8000c3a:	459a      	cmp	sl, r3
 8000c3c:	d323      	bcc.n	8000c86 <HAL_HCD_IRQHandler+0x1b2>
      __HAL_HCD_CLEAR_FLAG(hhcd, USB_OTG_GINTSTS_HCINT);
 8000c3e:	6823      	ldr	r3, [r4, #0]
 8000c40:	f04f 7200 	mov.w	r2, #33554432	; 0x2000000
 8000c44:	615a      	str	r2, [r3, #20]
    if ((__HAL_HCD_GET_FLAG(hhcd, USB_OTG_GINTSTS_RXFLVL)) != 0U)
 8000c46:	6820      	ldr	r0, [r4, #0]
 8000c48:	f001 fada 	bl	8002200 <USB_ReadInterrupts>
 8000c4c:	06c3      	lsls	r3, r0, #27
 8000c4e:	f100 8220 	bmi.w	8001092 <HAL_HCD_IRQHandler+0x5be>
}
 8000c52:	b007      	add	sp, #28
 8000c54:	e8bd 8ff0 	ldmia.w	sp!, {r4, r5, r6, r7, r8, r9, sl, fp, pc}
        if (hhcd->Init.speed == HCD_SPEED_FULL)
 8000c58:	68e3      	ldr	r3, [r4, #12]
 8000c5a:	2b01      	cmp	r3, #1
          USBx_HOST->HFIR = 60000U;
 8000c5c:	bf04      	itt	eq
 8000c5e:	f64e 2260 	movweq	r2, #60000	; 0xea60
 8000c62:	f8c5 2404 	streq.w	r2, [r5, #1028]	; 0x404
 8000c66:	e7bb      	b.n	8000be0 <HAL_HCD_IRQHandler+0x10c>
      HAL_HCD_PortDisabled_Callback(hhcd);
 8000c68:	4620      	mov	r0, r4
 8000c6a:	f003 f840 	bl	8003cee <HAL_HCD_PortDisabled_Callback>
      USBx_HPRT0 &= ~(USB_OTG_HPRT_PENA | USB_OTG_HPRT_PCDET | \
 8000c6e:	f8d5 3440 	ldr.w	r3, [r5, #1088]	; 0x440
      USB_UNMASK_INTERRUPT(hhcd->Instance, USB_OTG_GINTSTS_DISCINT);
 8000c72:	6822      	ldr	r2, [r4, #0]
      USBx_HPRT0 &= ~(USB_OTG_HPRT_PENA | USB_OTG_HPRT_PCDET | \
 8000c74:	f023 032e 	bic.w	r3, r3, #46	; 0x2e
 8000c78:	f8c5 3440 	str.w	r3, [r5, #1088]	; 0x440
      USB_UNMASK_INTERRUPT(hhcd->Instance, USB_OTG_GINTSTS_DISCINT);
 8000c7c:	6993      	ldr	r3, [r2, #24]
 8000c7e:	f043 5300 	orr.w	r3, r3, #536870912	; 0x20000000
 8000c82:	6193      	str	r3, [r2, #24]
 8000c84:	e7b2      	b.n	8000bec <HAL_HCD_IRQHandler+0x118>
        if ((interrupt & (1UL << (i & 0xFU))) != 0U)
 8000c86:	9a01      	ldr	r2, [sp, #4]
 8000c88:	f00a 030f 	and.w	r3, sl, #15
 8000c8c:	fa22 f303 	lsr.w	r3, r2, r3
 8000c90:	07d8      	lsls	r0, r3, #31
 8000c92:	f140 808a 	bpl.w	8000daa <HAL_HCD_IRQHandler+0x2d6>
          if ((USBx_HC(i)->HCCHAR & USB_OTG_HCCHAR_EPDIR) == USB_OTG_HCCHAR_EPDIR)
 8000c96:	f8d8 3000 	ldr.w	r3, [r8]
 8000c9a:	6820      	ldr	r0, [r4, #0]
 8000c9c:	f413 4f00 	tst.w	r3, #32768	; 0x8000
 8000ca0:	fa5f f58a 	uxtb.w	r5, sl
 8000ca4:	f000 8104 	beq.w	8000eb0 <HAL_HCD_IRQHandler+0x3dc>
  if ((USBx_HC(ch_num)->HCINT & USB_OTG_HCINT_AHBERR) == USB_OTG_HCINT_AHBERR)
 8000ca8:	016a      	lsls	r2, r5, #5
 8000caa:	f500 63a0 	add.w	r3, r0, #1280	; 0x500
 8000cae:	18d6      	adds	r6, r2, r3
 8000cb0:	68b1      	ldr	r1, [r6, #8]
 8000cb2:	0749      	lsls	r1, r1, #29
 8000cb4:	d513      	bpl.n	8000cde <HAL_HCD_IRQHandler+0x20a>
    __HAL_HCD_CLEAR_HC_INT(ch_num, USB_OTG_HCINT_AHBERR);
 8000cb6:	2104      	movs	r1, #4
 8000cb8:	60b1      	str	r1, [r6, #8]
    __HAL_HCD_UNMASK_HALT_HC_INT(ch_num);
 8000cba:	68f1      	ldr	r1, [r6, #12]
 8000cbc:	f041 0102 	orr.w	r1, r1, #2
 8000cc0:	60f1      	str	r1, [r6, #12]
  if ((USBx_HC(ch_num)->HCINT & USB_OTG_HCINT_FRMOR) == USB_OTG_HCINT_FRMOR)
 8000cc2:	68b1      	ldr	r1, [r6, #8]
 8000cc4:	0589      	lsls	r1, r1, #22
 8000cc6:	d542      	bpl.n	8000d4e <HAL_HCD_IRQHandler+0x27a>
    __HAL_HCD_UNMASK_HALT_HC_INT(ch_num);
 8000cc8:	68f3      	ldr	r3, [r6, #12]
    (void)USB_HC_Halt(hhcd->Instance, (uint8_t)ch_num);
 8000cca:	6820      	ldr	r0, [r4, #0]
    __HAL_HCD_UNMASK_HALT_HC_INT(ch_num);
 8000ccc:	f043 0302 	orr.w	r3, r3, #2
 8000cd0:	60f3      	str	r3, [r6, #12]
    (void)USB_HC_Halt(hhcd->Instance, (uint8_t)ch_num);
 8000cd2:	4629      	mov	r1, r5
    (void)USB_HC_Halt(hhcd->Instance, (uint8_t)ch_num);
 8000cd4:	f001 fc00 	bl	80024d8 <USB_HC_Halt>
    __HAL_HCD_CLEAR_HC_INT(ch_num, USB_OTG_HCINT_FRMOR);
 8000cd8:	f44f 7300 	mov.w	r3, #512	; 0x200
 8000cdc:	e0c7      	b.n	8000e6e <HAL_HCD_IRQHandler+0x39a>
  else if ((USBx_HC(ch_num)->HCINT & USB_OTG_HCINT_ACK) == USB_OTG_HCINT_ACK)
 8000cde:	68b1      	ldr	r1, [r6, #8]
 8000ce0:	0689      	lsls	r1, r1, #26
 8000ce2:	d502      	bpl.n	8000cea <HAL_HCD_IRQHandler+0x216>
    __HAL_HCD_CLEAR_HC_INT(ch_num, USB_OTG_HCINT_ACK);
 8000ce4:	2120      	movs	r1, #32
 8000ce6:	60b1      	str	r1, [r6, #8]
 8000ce8:	e7eb      	b.n	8000cc2 <HAL_HCD_IRQHandler+0x1ee>
  else if ((USBx_HC(ch_num)->HCINT & USB_OTG_HCINT_STALL) == USB_OTG_HCINT_STALL)
 8000cea:	68b1      	ldr	r1, [r6, #8]
 8000cec:	0709      	lsls	r1, r1, #28
 8000cee:	d515      	bpl.n	8000d1c <HAL_HCD_IRQHandler+0x248>
    __HAL_HCD_UNMASK_HALT_HC_INT(ch_num);
 8000cf0:	68f1      	ldr	r1, [r6, #12]
 8000cf2:	9303      	str	r3, [sp, #12]
 8000cf4:	f041 0102 	orr.w	r1, r1, #2
 8000cf8:	60f1      	str	r1, [r6, #12]
    hhcd->hc[ch_num].state = HC_STALL;
 8000cfa:	fb07 4105 	mla	r1, r7, r5, r4
 8000cfe:	f04f 0e05 	mov.w	lr, #5
 8000d02:	f881 e05d 	strb.w	lr, [r1, #93]	; 0x5d
    __HAL_HCD_CLEAR_HC_INT(ch_num, USB_OTG_HCINT_NAK);
 8000d06:	2110      	movs	r1, #16
 8000d08:	60b1      	str	r1, [r6, #8]
    __HAL_HCD_CLEAR_HC_INT(ch_num, USB_OTG_HCINT_STALL);
 8000d0a:	2108      	movs	r1, #8
 8000d0c:	60b1      	str	r1, [r6, #8]
    (void)USB_HC_Halt(hhcd->Instance, (uint8_t)ch_num);
 8000d0e:	4629      	mov	r1, r5
 8000d10:	9202      	str	r2, [sp, #8]
 8000d12:	f001 fbe1 	bl	80024d8 <USB_HC_Halt>
 8000d16:	9a02      	ldr	r2, [sp, #8]
 8000d18:	9b03      	ldr	r3, [sp, #12]
 8000d1a:	e7d2      	b.n	8000cc2 <HAL_HCD_IRQHandler+0x1ee>
  else if ((USBx_HC(ch_num)->HCINT & USB_OTG_HCINT_DTERR) == USB_OTG_HCINT_DTERR)
 8000d1c:	68b1      	ldr	r1, [r6, #8]
 8000d1e:	0549      	lsls	r1, r1, #21
 8000d20:	d5cf      	bpl.n	8000cc2 <HAL_HCD_IRQHandler+0x1ee>
    __HAL_HCD_UNMASK_HALT_HC_INT(ch_num);
 8000d22:	68f1      	ldr	r1, [r6, #12]
 8000d24:	9303      	str	r3, [sp, #12]
 8000d26:	f041 0102 	orr.w	r1, r1, #2
 8000d2a:	60f1      	str	r1, [r6, #12]
    (void)USB_HC_Halt(hhcd->Instance, (uint8_t)ch_num);
 8000d2c:	4629      	mov	r1, r5
 8000d2e:	9202      	str	r2, [sp, #8]
 8000d30:	f001 fbd2 	bl	80024d8 <USB_HC_Halt>
    __HAL_HCD_CLEAR_HC_INT(ch_num, USB_OTG_HCINT_NAK);
 8000d34:	2110      	movs	r1, #16
 8000d36:	60b1      	str	r1, [r6, #8]
    hhcd->hc[ch_num].state = HC_DATATGLERR;
 8000d38:	fb07 4105 	mla	r1, r7, r5, r4
 8000d3c:	2008      	movs	r0, #8
 8000d3e:	f881 005d 	strb.w	r0, [r1, #93]	; 0x5d
    __HAL_HCD_CLEAR_HC_INT(ch_num, USB_OTG_HCINT_DTERR);
 8000d42:	f44f 6180 	mov.w	r1, #1024	; 0x400
 8000d46:	60b1      	str	r1, [r6, #8]
 8000d48:	9b03      	ldr	r3, [sp, #12]
 8000d4a:	9a02      	ldr	r2, [sp, #8]
 8000d4c:	e7b9      	b.n	8000cc2 <HAL_HCD_IRQHandler+0x1ee>
  else if ((USBx_HC(ch_num)->HCINT & USB_OTG_HCINT_XFRC) == USB_OTG_HCINT_XFRC)
 8000d4e:	68b1      	ldr	r1, [r6, #8]
 8000d50:	07c8      	lsls	r0, r1, #31
 8000d52:	d53d      	bpl.n	8000dd0 <HAL_HCD_IRQHandler+0x2fc>
    if (hhcd->Init.dma_enable != 0U)
 8000d54:	6921      	ldr	r1, [r4, #16]
 8000d56:	b149      	cbz	r1, 8000d6c <HAL_HCD_IRQHandler+0x298>
      hhcd->hc[ch_num].xfer_count = hhcd->hc[ch_num].xfer_len - \
 8000d58:	fb07 4e05 	mla	lr, r7, r5, r4
                                    (USBx_HC(ch_num)->HCTSIZ & USB_OTG_HCTSIZ_XFRSIZ);
 8000d5c:	6930      	ldr	r0, [r6, #16]
      hhcd->hc[ch_num].xfer_count = hhcd->hc[ch_num].xfer_len - \
 8000d5e:	f8de 1048 	ldr.w	r1, [lr, #72]	; 0x48
                                    (USBx_HC(ch_num)->HCTSIZ & USB_OTG_HCTSIZ_XFRSIZ);
 8000d62:	f3c0 0012 	ubfx	r0, r0, #0, #19
      hhcd->hc[ch_num].xfer_count = hhcd->hc[ch_num].xfer_len - \
 8000d66:	1a09      	subs	r1, r1, r0
 8000d68:	f8ce 104c 	str.w	r1, [lr, #76]	; 0x4c
    hhcd->hc[ch_num].state = HC_XFRC;
 8000d6c:	fb07 4e05 	mla	lr, r7, r5, r4
 8000d70:	2001      	movs	r0, #1
 8000d72:	f88e 005d 	strb.w	r0, [lr, #93]	; 0x5d
    hhcd->hc[ch_num].ErrCnt = 0U;
 8000d76:	f8ce b058 	str.w	fp, [lr, #88]	; 0x58
    __HAL_HCD_CLEAR_HC_INT(ch_num, USB_OTG_HCINT_XFRC);
 8000d7a:	60b0      	str	r0, [r6, #8]
    if ((hhcd->hc[ch_num].ep_type == EP_TYPE_CTRL) ||
 8000d7c:	f89e 103f 	ldrb.w	r1, [lr, #63]	; 0x3f
 8000d80:	f011 0ffd 	tst.w	r1, #253	; 0xfd
 8000d84:	d116      	bne.n	8000db4 <HAL_HCD_IRQHandler+0x2e0>
      __HAL_HCD_UNMASK_HALT_HC_INT(ch_num);
 8000d86:	68f3      	ldr	r3, [r6, #12]
      (void)USB_HC_Halt(hhcd->Instance, (uint8_t)ch_num);
 8000d88:	6820      	ldr	r0, [r4, #0]
      __HAL_HCD_UNMASK_HALT_HC_INT(ch_num);
 8000d8a:	f043 0302 	orr.w	r3, r3, #2
 8000d8e:	60f3      	str	r3, [r6, #12]
      (void)USB_HC_Halt(hhcd->Instance, (uint8_t)ch_num);
 8000d90:	4629      	mov	r1, r5
 8000d92:	f001 fba1 	bl	80024d8 <USB_HC_Halt>
      __HAL_HCD_CLEAR_HC_INT(ch_num, USB_OTG_HCINT_NAK);
 8000d96:	2310      	movs	r3, #16
 8000d98:	60b3      	str	r3, [r6, #8]
    hhcd->hc[ch_num].toggle_in ^= 1U;
 8000d9a:	fb07 4505 	mla	r5, r7, r5, r4
 8000d9e:	f895 3050 	ldrb.w	r3, [r5, #80]	; 0x50
 8000da2:	f083 0301 	eor.w	r3, r3, #1
 8000da6:	f885 3050 	strb.w	r3, [r5, #80]	; 0x50
      for (i = 0U; i < hhcd->Init.Host_channels; i++)
 8000daa:	f10a 0a01 	add.w	sl, sl, #1
 8000dae:	f108 0820 	add.w	r8, r8, #32
 8000db2:	e741      	b.n	8000c38 <HAL_HCD_IRQHandler+0x164>
    else if (hhcd->hc[ch_num].ep_type == EP_TYPE_INTR)
 8000db4:	2903      	cmp	r1, #3
 8000db6:	d1f0      	bne.n	8000d9a <HAL_HCD_IRQHandler+0x2c6>
      USBx_HC(ch_num)->HCCHAR |= USB_OTG_HCCHAR_ODDFRM;
 8000db8:	58d1      	ldr	r1, [r2, r3]
 8000dba:	f041 5100 	orr.w	r1, r1, #536870912	; 0x20000000
 8000dbe:	50d1      	str	r1, [r2, r3]
      hhcd->hc[ch_num].urb_state = URB_DONE;
 8000dc0:	f88e 005c 	strb.w	r0, [lr, #92]	; 0x5c
      HAL_HCD_HC_NotifyURBChange_Callback(hhcd, (uint8_t)ch_num, hhcd->hc[ch_num].urb_state);
 8000dc4:	4602      	mov	r2, r0
 8000dc6:	4629      	mov	r1, r5
 8000dc8:	4620      	mov	r0, r4
 8000dca:	f002 ff8b 	bl	8003ce4 <HAL_HCD_HC_NotifyURBChange_Callback>
 8000dce:	e7e4      	b.n	8000d9a <HAL_HCD_IRQHandler+0x2c6>
  else if ((USBx_HC(ch_num)->HCINT & USB_OTG_HCINT_CHH) == USB_OTG_HCINT_CHH)
 8000dd0:	68b1      	ldr	r1, [r6, #8]
 8000dd2:	0789      	lsls	r1, r1, #30
 8000dd4:	d536      	bpl.n	8000e44 <HAL_HCD_IRQHandler+0x370>
    __HAL_HCD_MASK_HALT_HC_INT(ch_num);
 8000dd6:	68f1      	ldr	r1, [r6, #12]
    if (hhcd->hc[ch_num].state == HC_XFRC)
 8000dd8:	fb07 4005 	mla	r0, r7, r5, r4
    __HAL_HCD_MASK_HALT_HC_INT(ch_num);
 8000ddc:	f021 0102 	bic.w	r1, r1, #2
 8000de0:	60f1      	str	r1, [r6, #12]
    if (hhcd->hc[ch_num].state == HC_XFRC)
 8000de2:	f890 105d 	ldrb.w	r1, [r0, #93]	; 0x5d
 8000de6:	2901      	cmp	r1, #1
 8000de8:	d10c      	bne.n	8000e04 <HAL_HCD_IRQHandler+0x330>
      hhcd->hc[ch_num].urb_state  = URB_STALL;
 8000dea:	f880 105c 	strb.w	r1, [r0, #92]	; 0x5c
    HAL_HCD_HC_NotifyURBChange_Callback(hhcd, (uint8_t)ch_num, hhcd->hc[ch_num].urb_state);
 8000dee:	fb07 4305 	mla	r3, r7, r5, r4
    __HAL_HCD_CLEAR_HC_INT(ch_num, USB_OTG_HCINT_CHH);
 8000df2:	f8c6 9008 	str.w	r9, [r6, #8]
    HAL_HCD_HC_NotifyURBChange_Callback(hhcd, (uint8_t)ch_num, hhcd->hc[ch_num].urb_state);
 8000df6:	f893 205c 	ldrb.w	r2, [r3, #92]	; 0x5c
 8000dfa:	4629      	mov	r1, r5
 8000dfc:	4620      	mov	r0, r4
 8000dfe:	f002 ff71 	bl	8003ce4 <HAL_HCD_HC_NotifyURBChange_Callback>
 8000e02:	e7d2      	b.n	8000daa <HAL_HCD_IRQHandler+0x2d6>
    else if (hhcd->hc[ch_num].state == HC_STALL)
 8000e04:	2905      	cmp	r1, #5
 8000e06:	d0f0      	beq.n	8000dea <HAL_HCD_IRQHandler+0x316>
    else if ((hhcd->hc[ch_num].state == HC_XACTERR) ||
 8000e08:	2906      	cmp	r1, #6
 8000e0a:	d001      	beq.n	8000e10 <HAL_HCD_IRQHandler+0x33c>
 8000e0c:	2908      	cmp	r1, #8
 8000e0e:	d114      	bne.n	8000e3a <HAL_HCD_IRQHandler+0x366>
      hhcd->hc[ch_num].ErrCnt++;
 8000e10:	fb07 4105 	mla	r1, r7, r5, r4
 8000e14:	6d88      	ldr	r0, [r1, #88]	; 0x58
 8000e16:	3001      	adds	r0, #1
      if (hhcd->hc[ch_num].ErrCnt > 3U)
 8000e18:	2803      	cmp	r0, #3
      hhcd->hc[ch_num].ErrCnt++;
 8000e1a:	6588      	str	r0, [r1, #88]	; 0x58
        hhcd->hc[ch_num].urb_state = URB_ERROR;
 8000e1c:	bf83      	ittte	hi
 8000e1e:	2004      	movhi	r0, #4
        hhcd->hc[ch_num].ErrCnt = 0U;
 8000e20:	f8c1 b058 	strhi.w	fp, [r1, #88]	; 0x58
        hhcd->hc[ch_num].urb_state = URB_ERROR;
 8000e24:	f881 005c 	strbhi.w	r0, [r1, #92]	; 0x5c
        hhcd->hc[ch_num].urb_state = URB_NOTREADY;
 8000e28:	f881 905c 	strbls.w	r9, [r1, #92]	; 0x5c
      tmpreg = USBx_HC(ch_num)->HCCHAR;
 8000e2c:	58d1      	ldr	r1, [r2, r3]
      tmpreg &= ~USB_OTG_HCCHAR_CHDIS;
 8000e2e:	f021 4180 	bic.w	r1, r1, #1073741824	; 0x40000000
      tmpreg |= USB_OTG_HCCHAR_CHENA;
 8000e32:	f041 4100 	orr.w	r1, r1, #2147483648	; 0x80000000
      USBx_HC(ch_num)->HCCHAR = tmpreg;
 8000e36:	50d1      	str	r1, [r2, r3]
 8000e38:	e7d9      	b.n	8000dee <HAL_HCD_IRQHandler+0x31a>
    else if (hhcd->hc[ch_num].state == HC_NAK)
 8000e3a:	2903      	cmp	r1, #3
 8000e3c:	d1d7      	bne.n	8000dee <HAL_HCD_IRQHandler+0x31a>
      hhcd->hc[ch_num].urb_state  = URB_NOTREADY;
 8000e3e:	f880 905c 	strb.w	r9, [r0, #92]	; 0x5c
 8000e42:	e7f3      	b.n	8000e2c <HAL_HCD_IRQHandler+0x358>
  else if ((USBx_HC(ch_num)->HCINT & USB_OTG_HCINT_TXERR) == USB_OTG_HCINT_TXERR)
 8000e44:	68b1      	ldr	r1, [r6, #8]
 8000e46:	f011 0180 	ands.w	r1, r1, #128	; 0x80
 8000e4a:	d012      	beq.n	8000e72 <HAL_HCD_IRQHandler+0x39e>
    __HAL_HCD_UNMASK_HALT_HC_INT(ch_num);
 8000e4c:	68f3      	ldr	r3, [r6, #12]
    (void)USB_HC_Halt(hhcd->Instance, (uint8_t)ch_num);
 8000e4e:	6820      	ldr	r0, [r4, #0]
    __HAL_HCD_UNMASK_HALT_HC_INT(ch_num);
 8000e50:	f043 0302 	orr.w	r3, r3, #2
 8000e54:	60f3      	str	r3, [r6, #12]
    hhcd->hc[ch_num].ErrCnt++;
 8000e56:	fb07 4305 	mla	r3, r7, r5, r4
    (void)USB_HC_Halt(hhcd->Instance, (uint8_t)ch_num);
 8000e5a:	4629      	mov	r1, r5
    hhcd->hc[ch_num].ErrCnt++;
 8000e5c:	6d9a      	ldr	r2, [r3, #88]	; 0x58
 8000e5e:	3201      	adds	r2, #1
 8000e60:	659a      	str	r2, [r3, #88]	; 0x58
    hhcd->hc[ch_num].state = HC_XACTERR;
 8000e62:	2206      	movs	r2, #6
 8000e64:	f883 205d 	strb.w	r2, [r3, #93]	; 0x5d
    (void)USB_HC_Halt(hhcd->Instance, (uint8_t)ch_num);
 8000e68:	f001 fb36 	bl	80024d8 <USB_HC_Halt>
    __HAL_HCD_CLEAR_HC_INT(ch_num, USB_OTG_HCINT_TXERR);
 8000e6c:	2380      	movs	r3, #128	; 0x80
 8000e6e:	60b3      	str	r3, [r6, #8]
 8000e70:	e79b      	b.n	8000daa <HAL_HCD_IRQHandler+0x2d6>
  else if ((USBx_HC(ch_num)->HCINT & USB_OTG_HCINT_NAK) == USB_OTG_HCINT_NAK)
 8000e72:	68b3      	ldr	r3, [r6, #8]
 8000e74:	06da      	lsls	r2, r3, #27
 8000e76:	d598      	bpl.n	8000daa <HAL_HCD_IRQHandler+0x2d6>
    if (hhcd->hc[ch_num].ep_type == EP_TYPE_INTR)
 8000e78:	fb07 4205 	mla	r2, r7, r5, r4
 8000e7c:	f892 303f 	ldrb.w	r3, [r2, #63]	; 0x3f
 8000e80:	2b03      	cmp	r3, #3
 8000e82:	d10a      	bne.n	8000e9a <HAL_HCD_IRQHandler+0x3c6>
      hhcd->hc[ch_num].ErrCnt = 0U;
 8000e84:	6591      	str	r1, [r2, #88]	; 0x58
        __HAL_HCD_UNMASK_HALT_HC_INT(ch_num);
 8000e86:	68f3      	ldr	r3, [r6, #12]
        (void)USB_HC_Halt(hhcd->Instance, (uint8_t)ch_num);
 8000e88:	6820      	ldr	r0, [r4, #0]
        __HAL_HCD_UNMASK_HALT_HC_INT(ch_num);
 8000e8a:	f043 0302 	orr.w	r3, r3, #2
 8000e8e:	60f3      	str	r3, [r6, #12]
        (void)USB_HC_Halt(hhcd->Instance, (uint8_t)ch_num);
 8000e90:	4629      	mov	r1, r5
 8000e92:	f001 fb21 	bl	80024d8 <USB_HC_Halt>
    __HAL_HCD_CLEAR_HC_INT(ch_num, USB_OTG_HCINT_NAK);
 8000e96:	2310      	movs	r3, #16
 8000e98:	e7e9      	b.n	8000e6e <HAL_HCD_IRQHandler+0x39a>
    else if ((hhcd->hc[ch_num].ep_type == EP_TYPE_CTRL) ||
 8000e9a:	f013 03fd 	ands.w	r3, r3, #253	; 0xfd
 8000e9e:	d1fa      	bne.n	8000e96 <HAL_HCD_IRQHandler+0x3c2>
      hhcd->hc[ch_num].ErrCnt = 0U;
 8000ea0:	6593      	str	r3, [r2, #88]	; 0x58
      if (hhcd->Init.dma_enable == 0U)
 8000ea2:	6923      	ldr	r3, [r4, #16]
 8000ea4:	2b00      	cmp	r3, #0
 8000ea6:	d1f6      	bne.n	8000e96 <HAL_HCD_IRQHandler+0x3c2>
        hhcd->hc[ch_num].state = HC_NAK;
 8000ea8:	2303      	movs	r3, #3
 8000eaa:	f882 305d 	strb.w	r3, [r2, #93]	; 0x5d
 8000eae:	e7ea      	b.n	8000e86 <HAL_HCD_IRQHandler+0x3b2>
  if ((USBx_HC(ch_num)->HCINT & USB_OTG_HCINT_AHBERR) == USB_OTG_HCINT_AHBERR)
 8000eb0:	0169      	lsls	r1, r5, #5
 8000eb2:	f500 62a0 	add.w	r2, r0, #1280	; 0x500
 8000eb6:	188e      	adds	r6, r1, r2
 8000eb8:	68b3      	ldr	r3, [r6, #8]
 8000eba:	f013 0e04 	ands.w	lr, r3, #4
 8000ebe:	d006      	beq.n	8000ece <HAL_HCD_IRQHandler+0x3fa>
    __HAL_HCD_CLEAR_HC_INT(ch_num, USB_OTG_HCINT_AHBERR);
 8000ec0:	2304      	movs	r3, #4
 8000ec2:	60b3      	str	r3, [r6, #8]
    __HAL_HCD_UNMASK_HALT_HC_INT(ch_num);
 8000ec4:	68f3      	ldr	r3, [r6, #12]
 8000ec6:	f043 0302 	orr.w	r3, r3, #2
 8000eca:	60f3      	str	r3, [r6, #12]
 8000ecc:	e76d      	b.n	8000daa <HAL_HCD_IRQHandler+0x2d6>
  else if ((USBx_HC(ch_num)->HCINT & USB_OTG_HCINT_ACK) == USB_OTG_HCINT_ACK)
 8000ece:	68b3      	ldr	r3, [r6, #8]
 8000ed0:	f013 0320 	ands.w	r3, r3, #32
 8000ed4:	d014      	beq.n	8000f00 <HAL_HCD_IRQHandler+0x42c>
    __HAL_HCD_CLEAR_HC_INT(ch_num, USB_OTG_HCINT_ACK);
 8000ed6:	2320      	movs	r3, #32
 8000ed8:	60b3      	str	r3, [r6, #8]
    if (hhcd->hc[ch_num].do_ping == 1U)
 8000eda:	fb07 4305 	mla	r3, r7, r5, r4
 8000ede:	f893 203d 	ldrb.w	r2, [r3, #61]	; 0x3d
 8000ee2:	2a01      	cmp	r2, #1
 8000ee4:	f47f af61 	bne.w	8000daa <HAL_HCD_IRQHandler+0x2d6>
      hhcd->hc[ch_num].do_ping = 0U;
 8000ee8:	f883 e03d 	strb.w	lr, [r3, #61]	; 0x3d
      hhcd->hc[ch_num].urb_state  = URB_NOTREADY;
 8000eec:	f883 905c 	strb.w	r9, [r3, #92]	; 0x5c
      __HAL_HCD_UNMASK_HALT_HC_INT(ch_num);
 8000ef0:	68f3      	ldr	r3, [r6, #12]
 8000ef2:	f043 0302 	orr.w	r3, r3, #2
 8000ef6:	60f3      	str	r3, [r6, #12]
      (void)USB_HC_Halt(hhcd->Instance, (uint8_t)ch_num);
 8000ef8:	4629      	mov	r1, r5
 8000efa:	f001 faed 	bl	80024d8 <USB_HC_Halt>
 8000efe:	e754      	b.n	8000daa <HAL_HCD_IRQHandler+0x2d6>
  else if ((USBx_HC(ch_num)->HCINT & USB_OTG_HCINT_NYET) == USB_OTG_HCINT_NYET)
 8000f00:	f8d6 e008 	ldr.w	lr, [r6, #8]
 8000f04:	f01e 0f40 	tst.w	lr, #64	; 0x40
 8000f08:	d011      	beq.n	8000f2e <HAL_HCD_IRQHandler+0x45a>
    hhcd->hc[ch_num].state = HC_NYET;
 8000f0a:	fb07 4205 	mla	r2, r7, r5, r4
 8000f0e:	2104      	movs	r1, #4
 8000f10:	f882 105d 	strb.w	r1, [r2, #93]	; 0x5d
    hhcd->hc[ch_num].do_ping = 1U;
 8000f14:	2101      	movs	r1, #1
 8000f16:	f882 103d 	strb.w	r1, [r2, #61]	; 0x3d
    hhcd->hc[ch_num].ErrCnt = 0U;
 8000f1a:	6593      	str	r3, [r2, #88]	; 0x58
    __HAL_HCD_UNMASK_HALT_HC_INT(ch_num);
 8000f1c:	68f3      	ldr	r3, [r6, #12]
 8000f1e:	f043 0302 	orr.w	r3, r3, #2
 8000f22:	60f3      	str	r3, [r6, #12]
    (void)USB_HC_Halt(hhcd->Instance, (uint8_t)ch_num);
 8000f24:	4629      	mov	r1, r5
 8000f26:	f001 fad7 	bl	80024d8 <USB_HC_Halt>
    __HAL_HCD_CLEAR_HC_INT(ch_num, USB_OTG_HCINT_NYET);
 8000f2a:	2340      	movs	r3, #64	; 0x40
 8000f2c:	e79f      	b.n	8000e6e <HAL_HCD_IRQHandler+0x39a>
  else if ((USBx_HC(ch_num)->HCINT & USB_OTG_HCINT_FRMOR) == USB_OTG_HCINT_FRMOR)
 8000f2e:	68b3      	ldr	r3, [r6, #8]
 8000f30:	f413 7e00 	ands.w	lr, r3, #512	; 0x200
 8000f34:	d005      	beq.n	8000f42 <HAL_HCD_IRQHandler+0x46e>
    __HAL_HCD_UNMASK_HALT_HC_INT(ch_num);
 8000f36:	68f3      	ldr	r3, [r6, #12]
 8000f38:	f043 0302 	orr.w	r3, r3, #2
 8000f3c:	60f3      	str	r3, [r6, #12]
    (void)USB_HC_Halt(hhcd->Instance, (uint8_t)ch_num);
 8000f3e:	4629      	mov	r1, r5
 8000f40:	e6c8      	b.n	8000cd4 <HAL_HCD_IRQHandler+0x200>
  else if ((USBx_HC(ch_num)->HCINT & USB_OTG_HCINT_XFRC) == USB_OTG_HCINT_XFRC)
 8000f42:	68b3      	ldr	r3, [r6, #8]
 8000f44:	07db      	lsls	r3, r3, #31
 8000f46:	d511      	bpl.n	8000f6c <HAL_HCD_IRQHandler+0x498>
    __HAL_HCD_UNMASK_HALT_HC_INT(ch_num);
 8000f48:	68f2      	ldr	r2, [r6, #12]
    hhcd->hc[ch_num].ErrCnt = 0U;
 8000f4a:	fb07 4305 	mla	r3, r7, r5, r4
    __HAL_HCD_UNMASK_HALT_HC_INT(ch_num);
 8000f4e:	f042 0202 	orr.w	r2, r2, #2
    hhcd->hc[ch_num].ErrCnt = 0U;
 8000f52:	f8c3 e058 	str.w	lr, [r3, #88]	; 0x58
    (void)USB_HC_Halt(hhcd->Instance, (uint8_t)ch_num);
 8000f56:	4629      	mov	r1, r5
    __HAL_HCD_UNMASK_HALT_HC_INT(ch_num);
 8000f58:	60f2      	str	r2, [r6, #12]
    hhcd->hc[ch_num].ErrCnt = 0U;
 8000f5a:	9302      	str	r3, [sp, #8]
    (void)USB_HC_Halt(hhcd->Instance, (uint8_t)ch_num);
 8000f5c:	f001 fabc 	bl	80024d8 <USB_HC_Halt>
    hhcd->hc[ch_num].state = HC_XFRC;
 8000f60:	9b02      	ldr	r3, [sp, #8]
    __HAL_HCD_CLEAR_HC_INT(ch_num, USB_OTG_HCINT_XFRC);
 8000f62:	2201      	movs	r2, #1
 8000f64:	60b2      	str	r2, [r6, #8]
    hhcd->hc[ch_num].state = HC_XFRC;
 8000f66:	f883 205d 	strb.w	r2, [r3, #93]	; 0x5d
 8000f6a:	e71e      	b.n	8000daa <HAL_HCD_IRQHandler+0x2d6>
  else if ((USBx_HC(ch_num)->HCINT & USB_OTG_HCINT_STALL) == USB_OTG_HCINT_STALL)
 8000f6c:	68b3      	ldr	r3, [r6, #8]
 8000f6e:	071b      	lsls	r3, r3, #28
 8000f70:	d50e      	bpl.n	8000f90 <HAL_HCD_IRQHandler+0x4bc>
    __HAL_HCD_CLEAR_HC_INT(ch_num, USB_OTG_HCINT_STALL);
 8000f72:	2308      	movs	r3, #8
 8000f74:	60b3      	str	r3, [r6, #8]
    __HAL_HCD_UNMASK_HALT_HC_INT(ch_num);
 8000f76:	68f3      	ldr	r3, [r6, #12]
 8000f78:	f043 0302 	orr.w	r3, r3, #2
 8000f7c:	60f3      	str	r3, [r6, #12]
    (void)USB_HC_Halt(hhcd->Instance, (uint8_t)ch_num);
 8000f7e:	4629      	mov	r1, r5
 8000f80:	f001 faaa 	bl	80024d8 <USB_HC_Halt>
    hhcd->hc[ch_num].state = HC_STALL;
 8000f84:	fb07 4505 	mla	r5, r7, r5, r4
 8000f88:	2305      	movs	r3, #5
    hhcd->hc[ch_num].state = HC_DATATGLERR;
 8000f8a:	f885 305d 	strb.w	r3, [r5, #93]	; 0x5d
 8000f8e:	e70c      	b.n	8000daa <HAL_HCD_IRQHandler+0x2d6>
  else if ((USBx_HC(ch_num)->HCINT & USB_OTG_HCINT_NAK) == USB_OTG_HCINT_NAK)
 8000f90:	68b3      	ldr	r3, [r6, #8]
 8000f92:	06db      	lsls	r3, r3, #27
 8000f94:	d515      	bpl.n	8000fc2 <HAL_HCD_IRQHandler+0x4ee>
    hhcd->hc[ch_num].ErrCnt = 0U;
 8000f96:	fb07 4305 	mla	r3, r7, r5, r4
    hhcd->hc[ch_num].state = HC_NAK;
 8000f9a:	2203      	movs	r2, #3
 8000f9c:	f883 205d 	strb.w	r2, [r3, #93]	; 0x5d
    if (hhcd->hc[ch_num].do_ping == 0U)
 8000fa0:	f893 203d 	ldrb.w	r2, [r3, #61]	; 0x3d
    hhcd->hc[ch_num].ErrCnt = 0U;
 8000fa4:	f8c3 b058 	str.w	fp, [r3, #88]	; 0x58
    if (hhcd->hc[ch_num].do_ping == 0U)
 8000fa8:	b92a      	cbnz	r2, 8000fb6 <HAL_HCD_IRQHandler+0x4e2>
      if (hhcd->hc[ch_num].speed == HCD_SPEED_HIGH)
 8000faa:	f893 203c 	ldrb.w	r2, [r3, #60]	; 0x3c
 8000fae:	b912      	cbnz	r2, 8000fb6 <HAL_HCD_IRQHandler+0x4e2>
        hhcd->hc[ch_num].do_ping = 1U;
 8000fb0:	2201      	movs	r2, #1
 8000fb2:	f883 203d 	strb.w	r2, [r3, #61]	; 0x3d
    __HAL_HCD_UNMASK_HALT_HC_INT(ch_num);
 8000fb6:	68f3      	ldr	r3, [r6, #12]
 8000fb8:	f043 0302 	orr.w	r3, r3, #2
 8000fbc:	60f3      	str	r3, [r6, #12]
    (void)USB_HC_Halt(hhcd->Instance, (uint8_t)ch_num);
 8000fbe:	4629      	mov	r1, r5
 8000fc0:	e767      	b.n	8000e92 <HAL_HCD_IRQHandler+0x3be>
  else if ((USBx_HC(ch_num)->HCINT & USB_OTG_HCINT_TXERR) == USB_OTG_HCINT_TXERR)
 8000fc2:	68b3      	ldr	r3, [r6, #8]
 8000fc4:	061b      	lsls	r3, r3, #24
 8000fc6:	d50c      	bpl.n	8000fe2 <HAL_HCD_IRQHandler+0x50e>
    __HAL_HCD_UNMASK_HALT_HC_INT(ch_num);
 8000fc8:	68f3      	ldr	r3, [r6, #12]
 8000fca:	f043 0302 	orr.w	r3, r3, #2
 8000fce:	60f3      	str	r3, [r6, #12]
    (void)USB_HC_Halt(hhcd->Instance, (uint8_t)ch_num);
 8000fd0:	4629      	mov	r1, r5
    hhcd->hc[ch_num].state = HC_XACTERR;
 8000fd2:	fb07 4505 	mla	r5, r7, r5, r4
    (void)USB_HC_Halt(hhcd->Instance, (uint8_t)ch_num);
 8000fd6:	f001 fa7f 	bl	80024d8 <USB_HC_Halt>
    hhcd->hc[ch_num].state = HC_XACTERR;
 8000fda:	2306      	movs	r3, #6
 8000fdc:	f885 305d 	strb.w	r3, [r5, #93]	; 0x5d
 8000fe0:	e744      	b.n	8000e6c <HAL_HCD_IRQHandler+0x398>
  else if ((USBx_HC(ch_num)->HCINT & USB_OTG_HCINT_DTERR) == USB_OTG_HCINT_DTERR)
 8000fe2:	68b3      	ldr	r3, [r6, #8]
 8000fe4:	055b      	lsls	r3, r3, #21
 8000fe6:	d50f      	bpl.n	8001008 <HAL_HCD_IRQHandler+0x534>
    __HAL_HCD_UNMASK_HALT_HC_INT(ch_num);
 8000fe8:	68f3      	ldr	r3, [r6, #12]
 8000fea:	f043 0302 	orr.w	r3, r3, #2
 8000fee:	60f3      	str	r3, [r6, #12]
    (void)USB_HC_Halt(hhcd->Instance, (uint8_t)ch_num);
 8000ff0:	4629      	mov	r1, r5
 8000ff2:	f001 fa71 	bl	80024d8 <USB_HC_Halt>
    __HAL_HCD_CLEAR_HC_INT(ch_num, USB_OTG_HCINT_NAK);
 8000ff6:	2310      	movs	r3, #16
 8000ff8:	60b3      	str	r3, [r6, #8]
    __HAL_HCD_CLEAR_HC_INT(ch_num, USB_OTG_HCINT_DTERR);
 8000ffa:	f44f 6380 	mov.w	r3, #1024	; 0x400
 8000ffe:	60b3      	str	r3, [r6, #8]
    hhcd->hc[ch_num].state = HC_DATATGLERR;
 8001000:	fb07 4505 	mla	r5, r7, r5, r4
 8001004:	2308      	movs	r3, #8
 8001006:	e7c0      	b.n	8000f8a <HAL_HCD_IRQHandler+0x4b6>
  else if ((USBx_HC(ch_num)->HCINT & USB_OTG_HCINT_CHH) == USB_OTG_HCINT_CHH)
 8001008:	68b3      	ldr	r3, [r6, #8]
 800100a:	0798      	lsls	r0, r3, #30
 800100c:	f57f aecd 	bpl.w	8000daa <HAL_HCD_IRQHandler+0x2d6>
    __HAL_HCD_MASK_HALT_HC_INT(ch_num);
 8001010:	68f3      	ldr	r3, [r6, #12]
    if (hhcd->hc[ch_num].state == HC_XFRC)
 8001012:	fb07 4005 	mla	r0, r7, r5, r4
    __HAL_HCD_MASK_HALT_HC_INT(ch_num);
 8001016:	f023 0302 	bic.w	r3, r3, #2
 800101a:	60f3      	str	r3, [r6, #12]
    if (hhcd->hc[ch_num].state == HC_XFRC)
 800101c:	f890 305d 	ldrb.w	r3, [r0, #93]	; 0x5d
 8001020:	2b01      	cmp	r3, #1
 8001022:	d10e      	bne.n	8001042 <HAL_HCD_IRQHandler+0x56e>
      hhcd->hc[ch_num].urb_state  = URB_DONE;
 8001024:	f880 305c 	strb.w	r3, [r0, #92]	; 0x5c
      if ((hhcd->hc[ch_num].ep_type == EP_TYPE_BULK) ||
 8001028:	f890 303f 	ldrb.w	r3, [r0, #63]	; 0x3f
 800102c:	3b02      	subs	r3, #2
 800102e:	2b01      	cmp	r3, #1
 8001030:	f63f aedd 	bhi.w	8000dee <HAL_HCD_IRQHandler+0x31a>
        hhcd->hc[ch_num].toggle_out ^= 1U;
 8001034:	f890 3051 	ldrb.w	r3, [r0, #81]	; 0x51
 8001038:	f083 0301 	eor.w	r3, r3, #1
 800103c:	f880 3051 	strb.w	r3, [r0, #81]	; 0x51
 8001040:	e6d5      	b.n	8000dee <HAL_HCD_IRQHandler+0x31a>
    else if (hhcd->hc[ch_num].state == HC_NAK)
 8001042:	2b03      	cmp	r3, #3
 8001044:	d102      	bne.n	800104c <HAL_HCD_IRQHandler+0x578>
      hhcd->hc[ch_num].urb_state  = URB_NOTREADY;
 8001046:	f880 905c 	strb.w	r9, [r0, #92]	; 0x5c
 800104a:	e6d0      	b.n	8000dee <HAL_HCD_IRQHandler+0x31a>
    else if (hhcd->hc[ch_num].state == HC_NYET)
 800104c:	2b04      	cmp	r3, #4
 800104e:	d0fa      	beq.n	8001046 <HAL_HCD_IRQHandler+0x572>
    else if (hhcd->hc[ch_num].state == HC_STALL)
 8001050:	2b05      	cmp	r3, #5
 8001052:	d102      	bne.n	800105a <HAL_HCD_IRQHandler+0x586>
      hhcd->hc[ch_num].urb_state  = URB_STALL;
 8001054:	f880 305c 	strb.w	r3, [r0, #92]	; 0x5c
 8001058:	e6c9      	b.n	8000dee <HAL_HCD_IRQHandler+0x31a>
    else if ((hhcd->hc[ch_num].state == HC_XACTERR) ||
 800105a:	2b06      	cmp	r3, #6
 800105c:	d002      	beq.n	8001064 <HAL_HCD_IRQHandler+0x590>
 800105e:	2b08      	cmp	r3, #8
 8001060:	f47f aec5 	bne.w	8000dee <HAL_HCD_IRQHandler+0x31a>
      hhcd->hc[ch_num].ErrCnt++;
 8001064:	fb07 4005 	mla	r0, r7, r5, r4
 8001068:	6d83      	ldr	r3, [r0, #88]	; 0x58
 800106a:	3301      	adds	r3, #1
      if (hhcd->hc[ch_num].ErrCnt > 3U)
 800106c:	2b03      	cmp	r3, #3
      hhcd->hc[ch_num].ErrCnt++;
 800106e:	6583      	str	r3, [r0, #88]	; 0x58
        hhcd->hc[ch_num].urb_state = URB_ERROR;
 8001070:	bf84      	itt	hi
 8001072:	2304      	movhi	r3, #4
 8001074:	f880 305c 	strbhi.w	r3, [r0, #92]	; 0x5c
      tmpreg = USBx_HC(ch_num)->HCCHAR;
 8001078:	588b      	ldr	r3, [r1, r2]
        hhcd->hc[ch_num].ErrCnt = 0U;
 800107a:	bf88      	it	hi
 800107c:	f8c0 b058 	strhi.w	fp, [r0, #88]	; 0x58
      tmpreg &= ~USB_OTG_HCCHAR_CHDIS;
 8001080:	f023 4380 	bic.w	r3, r3, #1073741824	; 0x40000000
      tmpreg |= USB_OTG_HCCHAR_CHENA;
 8001084:	f043 4300 	orr.w	r3, r3, #2147483648	; 0x80000000
        hhcd->hc[ch_num].urb_state = URB_NOTREADY;
 8001088:	bf98      	it	ls
 800108a:	f880 905c 	strbls.w	r9, [r0, #92]	; 0x5c
      USBx_HC(ch_num)->HCCHAR = tmpreg;
 800108e:	508b      	str	r3, [r1, r2]
 8001090:	e6ad      	b.n	8000dee <HAL_HCD_IRQHandler+0x31a>
      USB_MASK_INTERRUPT(hhcd->Instance, USB_OTG_GINTSTS_RXFLVL);
 8001092:	6826      	ldr	r6, [r4, #0]
 8001094:	69b3      	ldr	r3, [r6, #24]
 8001096:	f023 0310 	bic.w	r3, r3, #16
 800109a:	61b3      	str	r3, [r6, #24]
  temp = hhcd->Instance->GRXSTSP;
 800109c:	6a35      	ldr	r5, [r6, #32]
  pktsts = (temp & USB_OTG_GRXSTSP_PKTSTS) >> 17;
 800109e:	f3c5 4243 	ubfx	r2, r5, #17, #4
  switch (pktsts)
 80010a2:	2a02      	cmp	r2, #2
 80010a4:	d129      	bne.n	80010fa <HAL_HCD_IRQHandler+0x626>
  pktcnt = (temp & USB_OTG_GRXSTSP_BCNT) >> 4;
 80010a6:	f3c5 180a 	ubfx	r8, r5, #4, #11
      if ((pktcnt > 0U) && (hhcd->hc[ch_num].xfer_buff != (void *)0))
 80010aa:	f1b8 0f00 	cmp.w	r8, #0
 80010ae:	d024      	beq.n	80010fa <HAL_HCD_IRQHandler+0x626>
  ch_num = temp & USB_OTG_GRXSTSP_EPNUM;
 80010b0:	f005 050f 	and.w	r5, r5, #15
      if ((pktcnt > 0U) && (hhcd->hc[ch_num].xfer_buff != (void *)0))
 80010b4:	2728      	movs	r7, #40	; 0x28
 80010b6:	fb07 4705 	mla	r7, r7, r5, r4
 80010ba:	6c79      	ldr	r1, [r7, #68]	; 0x44
 80010bc:	b1e9      	cbz	r1, 80010fa <HAL_HCD_IRQHandler+0x626>
        (void)USB_ReadPacket(hhcd->Instance, hhcd->hc[ch_num].xfer_buff, (uint16_t)pktcnt);
 80010be:	4642      	mov	r2, r8
 80010c0:	4630      	mov	r0, r6
 80010c2:	f001 f88f 	bl	80021e4 <USB_ReadPacket>
        hhcd->hc[ch_num].xfer_buff += pktcnt;
 80010c6:	6c7b      	ldr	r3, [r7, #68]	; 0x44
 80010c8:	4443      	add	r3, r8
 80010ca:	647b      	str	r3, [r7, #68]	; 0x44
        hhcd->hc[ch_num].xfer_count  += pktcnt;
 80010cc:	6cfb      	ldr	r3, [r7, #76]	; 0x4c
 80010ce:	4443      	add	r3, r8
 80010d0:	64fb      	str	r3, [r7, #76]	; 0x4c
        if ((USBx_HC(ch_num)->HCTSIZ & USB_OTG_HCTSIZ_PKTCNT) > 0U)
 80010d2:	f506 66a0 	add.w	r6, r6, #1280	; 0x500
 80010d6:	016b      	lsls	r3, r5, #5
 80010d8:	199a      	adds	r2, r3, r6
 80010da:	6911      	ldr	r1, [r2, #16]
 80010dc:	4a0a      	ldr	r2, [pc, #40]	; (8001108 <HAL_HCD_IRQHandler+0x634>)
 80010de:	400a      	ands	r2, r1
 80010e0:	b15a      	cbz	r2, 80010fa <HAL_HCD_IRQHandler+0x626>
          tmpreg = USBx_HC(ch_num)->HCCHAR;
 80010e2:	599a      	ldr	r2, [r3, r6]
          tmpreg &= ~USB_OTG_HCCHAR_CHDIS;
 80010e4:	f022 4280 	bic.w	r2, r2, #1073741824	; 0x40000000
          tmpreg |= USB_OTG_HCCHAR_CHENA;
 80010e8:	f042 4200 	orr.w	r2, r2, #2147483648	; 0x80000000
          USBx_HC(ch_num)->HCCHAR = tmpreg;
 80010ec:	519a      	str	r2, [r3, r6]
          hhcd->hc[ch_num].toggle_in ^= 1U;
 80010ee:	f897 3050 	ldrb.w	r3, [r7, #80]	; 0x50
 80010f2:	f083 0301 	eor.w	r3, r3, #1
 80010f6:	f887 3050 	strb.w	r3, [r7, #80]	; 0x50
      USB_UNMASK_INTERRUPT(hhcd->Instance, USB_OTG_GINTSTS_RXFLVL);
 80010fa:	6822      	ldr	r2, [r4, #0]
 80010fc:	6993      	ldr	r3, [r2, #24]
 80010fe:	f043 0310 	orr.w	r3, r3, #16
 8001102:	6193      	str	r3, [r2, #24]
 8001104:	e5a5      	b.n	8000c52 <HAL_HCD_IRQHandler+0x17e>
 8001106:	bf00      	nop
 8001108:	1ff80000 	.word	0x1ff80000

0800110c <HAL_HCD_Start>:
{
 800110c:	b538      	push	{r3, r4, r5, lr}
  __HAL_LOCK(hhcd);
 800110e:	f890 32b8 	ldrb.w	r3, [r0, #696]	; 0x2b8
 8001112:	2b01      	cmp	r3, #1
{
 8001114:	4604      	mov	r4, r0
  __HAL_LOCK(hhcd);
 8001116:	d00d      	beq.n	8001134 <HAL_HCD_Start+0x28>
 8001118:	2501      	movs	r5, #1
 800111a:	f880 52b8 	strb.w	r5, [r0, #696]	; 0x2b8
  __HAL_HCD_ENABLE(hhcd);
 800111e:	6800      	ldr	r0, [r0, #0]
 8001120:	f001 f806 	bl	8002130 <USB_EnableGlobalInt>
  (void)USB_DriveVbus(hhcd->Instance, 1U);
 8001124:	4629      	mov	r1, r5
 8001126:	6820      	ldr	r0, [r4, #0]
 8001128:	f001 f8ac 	bl	8002284 <USB_DriveVbus>
  __HAL_UNLOCK(hhcd);
 800112c:	2000      	movs	r0, #0
 800112e:	f884 02b8 	strb.w	r0, [r4, #696]	; 0x2b8
  return HAL_OK;
 8001132:	bd38      	pop	{r3, r4, r5, pc}
  __HAL_LOCK(hhcd);
 8001134:	2002      	movs	r0, #2
}
 8001136:	bd38      	pop	{r3, r4, r5, pc}

08001138 <HAL_HCD_Stop>:
  __HAL_LOCK(hhcd);
 8001138:	f890 32b8 	ldrb.w	r3, [r0, #696]	; 0x2b8
 800113c:	2b01      	cmp	r3, #1
{
 800113e:	b510      	push	{r4, lr}
 8001140:	4604      	mov	r4, r0
  __HAL_LOCK(hhcd);
 8001142:	d009      	beq.n	8001158 <HAL_HCD_Stop+0x20>
 8001144:	2301      	movs	r3, #1
 8001146:	f880 32b8 	strb.w	r3, [r0, #696]	; 0x2b8
  (void)USB_StopHost(hhcd->Instance);
 800114a:	6800      	ldr	r0, [r0, #0]
 800114c:	f001 fada 	bl	8002704 <USB_StopHost>
  __HAL_UNLOCK(hhcd);
 8001150:	2000      	movs	r0, #0
 8001152:	f884 02b8 	strb.w	r0, [r4, #696]	; 0x2b8
  return HAL_OK;
 8001156:	bd10      	pop	{r4, pc}
  __HAL_LOCK(hhcd);
 8001158:	2002      	movs	r0, #2
}
 800115a:	bd10      	pop	{r4, pc}

0800115c <HAL_HCD_ResetPort>:
  return (USB_ResetPort(hhcd->Instance));
 800115c:	6800      	ldr	r0, [r0, #0]
 800115e:	f001 b873 	b.w	8002248 <USB_ResetPort>

08001162 <HAL_HCD_HC_GetURBState>:
  return hhcd->hc[chnum].urb_state;
 8001162:	2328      	movs	r3, #40	; 0x28
 8001164:	fb03 0101 	mla	r1, r3, r1, r0
}
 8001168:	f891 005c 	ldrb.w	r0, [r1, #92]	; 0x5c
 800116c:	4770      	bx	lr

0800116e <HAL_HCD_HC_GetXferCount>:
  return hhcd->hc[chnum].xfer_count;
 800116e:	2328      	movs	r3, #40	; 0x28
 8001170:	fb03 0101 	mla	r1, r3, r1, r0
}
 8001174:	6cc8      	ldr	r0, [r1, #76]	; 0x4c
 8001176:	4770      	bx	lr

08001178 <HAL_HCD_GetCurrentFrame>:
  return (USB_GetCurrentFrame(hhcd->Instance));
 8001178:	6800      	ldr	r0, [r0, #0]
 800117a:	f001 b91e 	b.w	80023ba <USB_GetCurrentFrame>

0800117e <HAL_HCD_GetCurrentSpeed>:
  return (USB_GetHostSpeed(hhcd->Instance));
 800117e:	6800      	ldr	r0, [r0, #0]
 8001180:	f001 b910 	b.w	80023a4 <USB_GetHostSpeed>

08001184 <HAL_I2C_Init>:
  * @param  hi2c Pointer to a I2C_HandleTypeDef structure that contains
  *                the configuration information for the specified I2C.
  * @retval HAL status
  */
HAL_StatusTypeDef HAL_I2C_Init(I2C_HandleTypeDef *hi2c)
{
 8001184:	b570      	push	{r4, r5, r6, lr}
  uint32_t freqrange;
  uint32_t pclk1;

  /* Check the I2C handle allocation */
  if (hi2c == NULL)
 8001186:	4604      	mov	r4, r0
 8001188:	b908      	cbnz	r0, 800118e <HAL_I2C_Init+0xa>
  {
    return HAL_ERROR;
 800118a:	2001      	movs	r0, #1
 800118c:	bd70      	pop	{r4, r5, r6, pc}
  assert_param(IS_I2C_DUAL_ADDRESS(hi2c->Init.DualAddressMode));
  assert_param(IS_I2C_OWN_ADDRESS2(hi2c->Init.OwnAddress2));
  assert_param(IS_I2C_GENERAL_CALL(hi2c->Init.GeneralCallMode));
  assert_param(IS_I2C_NO_STRETCH(hi2c->Init.NoStretchMode));

  if (hi2c->State == HAL_I2C_STATE_RESET)
 800118e:	f890 303d 	ldrb.w	r3, [r0, #61]	; 0x3d
 8001192:	f003 02ff 	and.w	r2, r3, #255	; 0xff
 8001196:	b91b      	cbnz	r3, 80011a0 <HAL_I2C_Init+0x1c>
  {
    /* Allocate lock resource and initialize it */
    hi2c->Lock = HAL_UNLOCKED;
 8001198:	f880 203c 	strb.w	r2, [r0, #60]	; 0x3c

    /* Init the low level hardware : GPIO, CLOCK, NVIC */
    hi2c->MspInitCallback(hi2c);
#else
    /* Init the low level hardware : GPIO, CLOCK, NVIC */
    HAL_I2C_MspInit(hi2c);
 800119c:	f002 fa18 	bl	80035d0 <HAL_I2C_MspInit>
#endif /* USE_HAL_I2C_REGISTER_CALLBACKS */
  }

  hi2c->State = HAL_I2C_STATE_BUSY;
 80011a0:	2324      	movs	r3, #36	; 0x24
 80011a2:	f884 303d 	strb.w	r3, [r4, #61]	; 0x3d

  /* Disable the selected I2C peripheral */
  __HAL_I2C_DISABLE(hi2c);
 80011a6:	6823      	ldr	r3, [r4, #0]
 80011a8:	681a      	ldr	r2, [r3, #0]
 80011aa:	f022 0201 	bic.w	r2, r2, #1
 80011ae:	601a      	str	r2, [r3, #0]

  /*Reset I2C*/
  hi2c->Instance->CR1 |= I2C_CR1_SWRST;
 80011b0:	681a      	ldr	r2, [r3, #0]
 80011b2:	f442 4200 	orr.w	r2, r2, #32768	; 0x8000
 80011b6:	601a      	str	r2, [r3, #0]
  hi2c->Instance->CR1 &= ~I2C_CR1_SWRST;
 80011b8:	681a      	ldr	r2, [r3, #0]
 80011ba:	f422 4200 	bic.w	r2, r2, #32768	; 0x8000
 80011be:	601a      	str	r2, [r3, #0]

  /* Get PCLK1 frequency */
  pclk1 = HAL_RCC_GetPCLK1Freq();
 80011c0:	f000 fd34 	bl	8001c2c <HAL_RCC_GetPCLK1Freq>

  /* Check the minimum allowed PCLK1 frequency */
  if (I2C_MIN_PCLK_FREQ(pclk1, hi2c->Init.ClockSpeed) == 1U)
 80011c4:	6865      	ldr	r5, [r4, #4]
 80011c6:	4b41      	ldr	r3, [pc, #260]	; (80012cc <HAL_I2C_Init+0x148>)
 80011c8:	429d      	cmp	r5, r3
 80011ca:	d84d      	bhi.n	8001268 <HAL_I2C_Init+0xe4>
 80011cc:	4b40      	ldr	r3, [pc, #256]	; (80012d0 <HAL_I2C_Init+0x14c>)
 80011ce:	4298      	cmp	r0, r3
 80011d0:	d9db      	bls.n	800118a <HAL_I2C_Init+0x6>
  /* Calculate frequency range */
  freqrange = I2C_FREQRANGE(pclk1);

  /*---------------------------- I2Cx CR2 Configuration ----------------------*/
  /* Configure I2Cx: Frequency range */
  MODIFY_REG(hi2c->Instance->CR2, I2C_CR2_FREQ, freqrange);
 80011d2:	6822      	ldr	r2, [r4, #0]
  freqrange = I2C_FREQRANGE(pclk1);
 80011d4:	493f      	ldr	r1, [pc, #252]	; (80012d4 <HAL_I2C_Init+0x150>)
  MODIFY_REG(hi2c->Instance->CR2, I2C_CR2_FREQ, freqrange);
 80011d6:	6853      	ldr	r3, [r2, #4]
  freqrange = I2C_FREQRANGE(pclk1);
 80011d8:	fbb0 f1f1 	udiv	r1, r0, r1
  MODIFY_REG(hi2c->Instance->CR2, I2C_CR2_FREQ, freqrange);
 80011dc:	f023 033f 	bic.w	r3, r3, #63	; 0x3f
 80011e0:	430b      	orrs	r3, r1
 80011e2:	6053      	str	r3, [r2, #4]

  /*---------------------------- I2Cx TRISE Configuration --------------------*/
  /* Configure I2Cx: Rise Time */
  MODIFY_REG(hi2c->Instance->TRISE, I2C_TRISE_TRISE, I2C_RISE_TIME(freqrange, hi2c->Init.ClockSpeed));
 80011e4:	6a13      	ldr	r3, [r2, #32]
 80011e6:	f023 033f 	bic.w	r3, r3, #63	; 0x3f
 80011ea:	3101      	adds	r1, #1
 80011ec:	4319      	orrs	r1, r3
 80011ee:	6211      	str	r1, [r2, #32]

  /*---------------------------- I2Cx CCR Configuration ----------------------*/
  /* Configure I2Cx: Speed */
  MODIFY_REG(hi2c->Instance->CCR, (I2C_CCR_FS | I2C_CCR_DUTY | I2C_CCR_CCR), I2C_SPEED(pclk1, hi2c->Init.ClockSpeed, hi2c->Init.DutyCycle));
 80011f0:	69d1      	ldr	r1, [r2, #28]
 80011f2:	4b36      	ldr	r3, [pc, #216]	; (80012cc <HAL_I2C_Init+0x148>)
 80011f4:	f421 414f 	bic.w	r1, r1, #52992	; 0xcf00
 80011f8:	429d      	cmp	r5, r3
 80011fa:	f021 01ff 	bic.w	r1, r1, #255	; 0xff
 80011fe:	f100 30ff 	add.w	r0, r0, #4294967295
 8001202:	d848      	bhi.n	8001296 <HAL_I2C_Init+0x112>
 8001204:	006d      	lsls	r5, r5, #1
 8001206:	fbb0 f0f5 	udiv	r0, r0, r5
 800120a:	3001      	adds	r0, #1
 800120c:	f3c0 030b 	ubfx	r3, r0, #0, #12
 8001210:	2b04      	cmp	r3, #4
 8001212:	bf38      	it	cc
 8001214:	2304      	movcc	r3, #4
 8001216:	430b      	orrs	r3, r1
 8001218:	61d3      	str	r3, [r2, #28]

  /*---------------------------- I2Cx CR1 Configuration ----------------------*/
  /* Configure I2Cx: Generalcall and NoStretch mode */
  MODIFY_REG(hi2c->Instance->CR1, (I2C_CR1_ENGC | I2C_CR1_NOSTRETCH), (hi2c->Init.GeneralCallMode | hi2c->Init.NoStretchMode));
 800121a:	6811      	ldr	r1, [r2, #0]
 800121c:	6a20      	ldr	r0, [r4, #32]
 800121e:	69e3      	ldr	r3, [r4, #28]
 8001220:	f021 01c0 	bic.w	r1, r1, #192	; 0xc0
 8001224:	4303      	orrs	r3, r0
 8001226:	430b      	orrs	r3, r1
 8001228:	6013      	str	r3, [r2, #0]

  /*---------------------------- I2Cx OAR1 Configuration ---------------------*/
  /* Configure I2Cx: Own Address1 and addressing mode */
  MODIFY_REG(hi2c->Instance->OAR1, (I2C_OAR1_ADDMODE | I2C_OAR1_ADD8_9 | I2C_OAR1_ADD1_7 | I2C_OAR1_ADD0), (hi2c->Init.AddressingMode | hi2c->Init.OwnAddress1));
 800122a:	6891      	ldr	r1, [r2, #8]
 800122c:	68e0      	ldr	r0, [r4, #12]
 800122e:	6923      	ldr	r3, [r4, #16]
 8001230:	f421 4103 	bic.w	r1, r1, #33536	; 0x8300
 8001234:	4303      	orrs	r3, r0
 8001236:	f021 01ff 	bic.w	r1, r1, #255	; 0xff
 800123a:	430b      	orrs	r3, r1
 800123c:	6093      	str	r3, [r2, #8]

  /*---------------------------- I2Cx OAR2 Configuration ---------------------*/
  /* Configure I2Cx: Dual mode and Own Address2 */
  MODIFY_REG(hi2c->Instance->OAR2, (I2C_OAR2_ENDUAL | I2C_OAR2_ADD2), (hi2c->Init.DualAddressMode | hi2c->Init.OwnAddress2));
 800123e:	68d1      	ldr	r1, [r2, #12]
 8001240:	69a0      	ldr	r0, [r4, #24]
 8001242:	6963      	ldr	r3, [r4, #20]
 8001244:	f021 01ff 	bic.w	r1, r1, #255	; 0xff
 8001248:	4303      	orrs	r3, r0
 800124a:	430b      	orrs	r3, r1
 800124c:	60d3      	str	r3, [r2, #12]

  /* Enable the selected I2C peripheral */
  __HAL_I2C_ENABLE(hi2c);
 800124e:	6813      	ldr	r3, [r2, #0]
 8001250:	f043 0301 	orr.w	r3, r3, #1
 8001254:	6013      	str	r3, [r2, #0]

  hi2c->ErrorCode = HAL_I2C_ERROR_NONE;
 8001256:	2000      	movs	r0, #0
  hi2c->State = HAL_I2C_STATE_READY;
 8001258:	2320      	movs	r3, #32
  hi2c->ErrorCode = HAL_I2C_ERROR_NONE;
 800125a:	6420      	str	r0, [r4, #64]	; 0x40
  hi2c->State = HAL_I2C_STATE_READY;
 800125c:	f884 303d 	strb.w	r3, [r4, #61]	; 0x3d
  hi2c->PreviousState = I2C_STATE_NONE;
 8001260:	6320      	str	r0, [r4, #48]	; 0x30
  hi2c->Mode = HAL_I2C_MODE_NONE;
 8001262:	f884 003e 	strb.w	r0, [r4, #62]	; 0x3e

  return HAL_OK;
 8001266:	bd70      	pop	{r4, r5, r6, pc}
  if (I2C_MIN_PCLK_FREQ(pclk1, hi2c->Init.ClockSpeed) == 1U)
 8001268:	4b1b      	ldr	r3, [pc, #108]	; (80012d8 <HAL_I2C_Init+0x154>)
 800126a:	4298      	cmp	r0, r3
 800126c:	d98d      	bls.n	800118a <HAL_I2C_Init+0x6>
  MODIFY_REG(hi2c->Instance->CR2, I2C_CR2_FREQ, freqrange);
 800126e:	6822      	ldr	r2, [r4, #0]
  freqrange = I2C_FREQRANGE(pclk1);
 8001270:	4e18      	ldr	r6, [pc, #96]	; (80012d4 <HAL_I2C_Init+0x150>)
  MODIFY_REG(hi2c->Instance->CR2, I2C_CR2_FREQ, freqrange);
 8001272:	6853      	ldr	r3, [r2, #4]
  freqrange = I2C_FREQRANGE(pclk1);
 8001274:	fbb0 f6f6 	udiv	r6, r0, r6
  MODIFY_REG(hi2c->Instance->CR2, I2C_CR2_FREQ, freqrange);
 8001278:	f023 033f 	bic.w	r3, r3, #63	; 0x3f
 800127c:	4333      	orrs	r3, r6
 800127e:	6053      	str	r3, [r2, #4]
  MODIFY_REG(hi2c->Instance->TRISE, I2C_TRISE_TRISE, I2C_RISE_TIME(freqrange, hi2c->Init.ClockSpeed));
 8001280:	6a13      	ldr	r3, [r2, #32]
 8001282:	f44f 7196 	mov.w	r1, #300	; 0x12c
 8001286:	4371      	muls	r1, r6
 8001288:	f023 033f 	bic.w	r3, r3, #63	; 0x3f
 800128c:	f44f 767a 	mov.w	r6, #1000	; 0x3e8
 8001290:	fbb1 f1f6 	udiv	r1, r1, r6
 8001294:	e7a9      	b.n	80011ea <HAL_I2C_Init+0x66>
  MODIFY_REG(hi2c->Instance->CCR, (I2C_CCR_FS | I2C_CCR_DUTY | I2C_CCR_CCR), I2C_SPEED(pclk1, hi2c->Init.ClockSpeed, hi2c->Init.DutyCycle));
 8001296:	68a3      	ldr	r3, [r4, #8]
 8001298:	b953      	cbnz	r3, 80012b0 <HAL_I2C_Init+0x12c>
 800129a:	eb05 0345 	add.w	r3, r5, r5, lsl #1
 800129e:	fbb0 f0f3 	udiv	r0, r0, r3
 80012a2:	1c43      	adds	r3, r0, #1
 80012a4:	f3c3 030b 	ubfx	r3, r3, #0, #12
 80012a8:	b16b      	cbz	r3, 80012c6 <HAL_I2C_Init+0x142>
 80012aa:	f443 4300 	orr.w	r3, r3, #32768	; 0x8000
 80012ae:	e7b2      	b.n	8001216 <HAL_I2C_Init+0x92>
 80012b0:	2319      	movs	r3, #25
 80012b2:	436b      	muls	r3, r5
 80012b4:	fbb0 f0f3 	udiv	r0, r0, r3
 80012b8:	1c43      	adds	r3, r0, #1
 80012ba:	f3c3 030b 	ubfx	r3, r3, #0, #12
 80012be:	b113      	cbz	r3, 80012c6 <HAL_I2C_Init+0x142>
 80012c0:	f443 4340 	orr.w	r3, r3, #49152	; 0xc000
 80012c4:	e7a7      	b.n	8001216 <HAL_I2C_Init+0x92>
 80012c6:	2301      	movs	r3, #1
 80012c8:	e7a5      	b.n	8001216 <HAL_I2C_Init+0x92>
 80012ca:	bf00      	nop
 80012cc:	000186a0 	.word	0x000186a0
 80012d0:	001e847f 	.word	0x001e847f
 80012d4:	000f4240 	.word	0x000f4240
 80012d8:	003d08ff 	.word	0x003d08ff

080012dc <HAL_I2S_Init>:
  * @param  hi2s pointer to a I2S_HandleTypeDef structure that contains
  *         the configuration information for I2S module
  * @retval HAL status
  */
HAL_StatusTypeDef HAL_I2S_Init(I2S_HandleTypeDef *hi2s)
{
 80012dc:	b5f8      	push	{r3, r4, r5, r6, r7, lr}
#if defined (SPI_I2S_FULLDUPLEX_SUPPORT)
  uint16_t tmpreg;
#endif

  /* Check the I2S handle allocation */
  if (hi2s == NULL)
 80012de:	4604      	mov	r4, r0
 80012e0:	2800      	cmp	r0, #0
 80012e2:	d041      	beq.n	8001368 <HAL_I2S_Init+0x8c>
  assert_param(IS_I2S_MCLK_OUTPUT(hi2s->Init.MCLKOutput));
  assert_param(IS_I2S_AUDIO_FREQ(hi2s->Init.AudioFreq));
  assert_param(IS_I2S_CPOL(hi2s->Init.CPOL));
  assert_param(IS_I2S_CLOCKSOURCE(hi2s->Init.ClockSource));

  if (hi2s->State == HAL_I2S_STATE_RESET)
 80012e4:	f890 3041 	ldrb.w	r3, [r0, #65]	; 0x41
 80012e8:	f003 02ff 	and.w	r2, r3, #255	; 0xff
 80012ec:	b92b      	cbnz	r3, 80012fa <HAL_I2S_Init+0x1e>
  {
    /* Allocate lock resource and initialize it */
    hi2s->Lock = HAL_UNLOCKED;

    /* Initialize Default I2S IrqHandler ISR */
    hi2s->IrqHandlerISR = I2S_IRQHandler;
 80012ee:	4b42      	ldr	r3, [pc, #264]	; (80013f8 <HAL_I2S_Init+0x11c>)
    hi2s->Lock = HAL_UNLOCKED;
 80012f0:	f880 2040 	strb.w	r2, [r0, #64]	; 0x40
    hi2s->IrqHandlerISR = I2S_IRQHandler;
 80012f4:	6343      	str	r3, [r0, #52]	; 0x34

    /* Init the low level hardware : GPIO, CLOCK, NVIC... */
    hi2s->MspInitCallback(hi2s);
#else
    /* Init the low level hardware : GPIO, CLOCK, CORTEX...etc */
    HAL_I2S_MspInit(hi2s);
 80012f6:	f002 f9c1 	bl	800367c <HAL_I2S_MspInit>
#endif /* USE_HAL_I2S_REGISTER_CALLBACKS */
  }

  hi2s->State = HAL_I2S_STATE_BUSY;
 80012fa:	2102      	movs	r1, #2

  /*----------------------- SPIx I2SCFGR & I2SPR Configuration ----------------*/
  /* Clear I2SMOD, I2SE, I2SCFG, PCMSYNC, I2SSTD, CKPOL, DATLEN and CHLEN bits */
  CLEAR_BIT(hi2s->Instance->I2SCFGR, (SPI_I2SCFGR_CHLEN | SPI_I2SCFGR_DATLEN | SPI_I2SCFGR_CKPOL | \
 80012fc:	6822      	ldr	r2, [r4, #0]
  hi2s->State = HAL_I2S_STATE_BUSY;
 80012fe:	f884 1041 	strb.w	r1, [r4, #65]	; 0x41
  CLEAR_BIT(hi2s->Instance->I2SCFGR, (SPI_I2SCFGR_CHLEN | SPI_I2SCFGR_DATLEN | SPI_I2SCFGR_CKPOL | \
 8001302:	69d3      	ldr	r3, [r2, #28]
 8001304:	f423 637b 	bic.w	r3, r3, #4016	; 0xfb0
 8001308:	f023 030f 	bic.w	r3, r3, #15
 800130c:	61d3      	str	r3, [r2, #28]
                                      SPI_I2SCFGR_I2SE | SPI_I2SCFGR_I2SMOD));
  hi2s->Instance->I2SPR = 0x0002U;

  /*----------------------- I2SPR: I2SDIV and ODD Calculation -----------------*/
  /* If the requested audio frequency is not the default, compute the prescaler */
  if (hi2s->Init.AudioFreq != I2S_AUDIOFREQ_DEFAULT)
 800130e:	6963      	ldr	r3, [r4, #20]
  hi2s->Instance->I2SPR = 0x0002U;
 8001310:	6211      	str	r1, [r2, #32]
  if (hi2s->Init.AudioFreq != I2S_AUDIOFREQ_DEFAULT)
 8001312:	428b      	cmp	r3, r1
 8001314:	d031      	beq.n	800137a <HAL_I2S_Init+0x9e>
  {
    /* Check the frame length (For the Prescaler computing) ********************/
    if (hi2s->Init.DataFormat == I2S_DATAFORMAT_16B)
 8001316:	68e3      	ldr	r3, [r4, #12]
      packetlength = 16U;
    }
    else
    {
      /* Packet length is 32 bits */
      packetlength = 32U;
 8001318:	2b00      	cmp	r3, #0
    }

    /* I2S standard */
    if (hi2s->Init.Standard <= I2S_STANDARD_LSB)
 800131a:	68a3      	ldr	r3, [r4, #8]
      packetlength = 32U;
 800131c:	bf0c      	ite	eq
 800131e:	2510      	moveq	r5, #16
 8001320:	2520      	movne	r5, #32
    else
    {
      i2sclk = HAL_RCCEx_GetPeriphCLKFreq(RCC_PERIPHCLK_I2S_APB2);
    }
#else
    i2sclk = HAL_RCCEx_GetPeriphCLKFreq(RCC_PERIPHCLK_I2S);
 8001322:	2001      	movs	r0, #1
    if (hi2s->Init.Standard <= I2S_STANDARD_LSB)
 8001324:	2b20      	cmp	r3, #32
      packetlength = packetlength * 2U;
 8001326:	bf98      	it	ls
 8001328:	006d      	lslls	r5, r5, #1
    i2sclk = HAL_RCCEx_GetPeriphCLKFreq(RCC_PERIPHCLK_I2S);
 800132a:	f000 fd27 	bl	8001d7c <HAL_RCCEx_GetPeriphCLKFreq>
#endif

    /* Compute the Real divider depending on the MCLK output state, with a floating point */
    if (hi2s->Init.MCLKOutput == I2S_MCLKOUTPUT_ENABLE)
 800132e:	6923      	ldr	r3, [r4, #16]
 8001330:	6961      	ldr	r1, [r4, #20]
 8001332:	f5b3 7f00 	cmp.w	r3, #512	; 0x200
 8001336:	d11b      	bne.n	8001370 <HAL_I2S_Init+0x94>
    {
      /* MCLK output is enabled */
      if (hi2s->Init.DataFormat != I2S_DATAFORMAT_16B)
 8001338:	68e3      	ldr	r3, [r4, #12]
 800133a:	220a      	movs	r2, #10
 800133c:	b1b3      	cbz	r3, 800136c <HAL_I2S_Init+0x90>
      {
        tmp = (uint32_t)(((((i2sclk / (packetlength * 4U)) * 10U) / hi2s->Init.AudioFreq)) + 5U);
 800133e:	00ab      	lsls	r3, r5, #2
      }
      else
      {
        tmp = (uint32_t)(((((i2sclk / (packetlength * 8U)) * 10U) / hi2s->Init.AudioFreq)) + 5U);
 8001340:	fbb0 f3f3 	udiv	r3, r0, r3
 8001344:	4353      	muls	r3, r2
      /* MCLK output is disabled */
      tmp = (uint32_t)(((((i2sclk / packetlength) * 10U) / hi2s->Init.AudioFreq)) + 5U);
    }

    /* Remove the flatting point */
    tmp = tmp / 10U;
 8001346:	220a      	movs	r2, #10
      tmp = (uint32_t)(((((i2sclk / packetlength) * 10U) / hi2s->Init.AudioFreq)) + 5U);
 8001348:	fbb3 f3f1 	udiv	r3, r3, r1
 800134c:	3305      	adds	r3, #5
    tmp = tmp / 10U;
 800134e:	fbb3 f3f2 	udiv	r3, r3, r2

    /* Check the parity of the divider */
    i2sodd = (uint32_t)(tmp & (uint32_t)1U);

    /* Compute the i2sdiv prescaler */
    i2sdiv = (uint32_t)((tmp - i2sodd) / 2U);
 8001352:	f003 0201 	and.w	r2, r3, #1

    /* Get the Mask for the Odd bit (SPI_I2SPR[8]) register */
    i2sodd = (uint32_t)(i2sodd << 8U);
 8001356:	0212      	lsls	r2, r2, #8
    i2sdiv = (uint32_t)((tmp - i2sodd) / 2U);
 8001358:	085b      	lsrs	r3, r3, #1
    i2sdiv = 2U;
    i2sodd = 0U;
  }

  /* Test if the divider is 1 or 0 or greater than 0xFF */
  if ((i2sdiv < 2U) || (i2sdiv > 0xFFU))
 800135a:	1e99      	subs	r1, r3, #2
 800135c:	29fd      	cmp	r1, #253	; 0xfd
 800135e:	d90e      	bls.n	800137e <HAL_I2S_Init+0xa2>
  {
    /* Set the error code and execute error callback*/
    SET_BIT(hi2s->ErrorCode, HAL_I2S_ERROR_PRESCALER);
 8001360:	6c63      	ldr	r3, [r4, #68]	; 0x44
 8001362:	f043 0310 	orr.w	r3, r3, #16
 8001366:	6463      	str	r3, [r4, #68]	; 0x44
    return HAL_ERROR;
 8001368:	2001      	movs	r0, #1

  hi2s->ErrorCode = HAL_I2S_ERROR_NONE;
  hi2s->State     = HAL_I2S_STATE_READY;

  return HAL_OK;
}
 800136a:	bdf8      	pop	{r3, r4, r5, r6, r7, pc}
        tmp = (uint32_t)(((((i2sclk / (packetlength * 8U)) * 10U) / hi2s->Init.AudioFreq)) + 5U);
 800136c:	00eb      	lsls	r3, r5, #3
 800136e:	e7e7      	b.n	8001340 <HAL_I2S_Init+0x64>
      tmp = (uint32_t)(((((i2sclk / packetlength) * 10U) / hi2s->Init.AudioFreq)) + 5U);
 8001370:	230a      	movs	r3, #10
 8001372:	fbb0 f0f5 	udiv	r0, r0, r5
 8001376:	4343      	muls	r3, r0
 8001378:	e7e5      	b.n	8001346 <HAL_I2S_Init+0x6a>
    i2sodd = 0U;
 800137a:	2200      	movs	r2, #0
 800137c:	e7ed      	b.n	800135a <HAL_I2S_Init+0x7e>
  hi2s->Instance->I2SPR = (uint32_t)((uint32_t)i2sdiv | (uint32_t)(i2sodd | (uint32_t)hi2s->Init.MCLKOutput));
 800137e:	4313      	orrs	r3, r2
 8001380:	6922      	ldr	r2, [r4, #16]
 8001382:	6821      	ldr	r1, [r4, #0]
  MODIFY_REG(hi2s->Instance->I2SCFGR, (SPI_I2SCFGR_CHLEN | SPI_I2SCFGR_DATLEN | \
 8001384:	6866      	ldr	r6, [r4, #4]
 8001386:	68e5      	ldr	r5, [r4, #12]
 8001388:	69a0      	ldr	r0, [r4, #24]
 800138a:	f8df e07c 	ldr.w	lr, [pc, #124]	; 8001408 <HAL_I2S_Init+0x12c>
  hi2s->Instance->I2SPR = (uint32_t)((uint32_t)i2sdiv | (uint32_t)(i2sodd | (uint32_t)hi2s->Init.MCLKOutput));
 800138e:	4313      	orrs	r3, r2
 8001390:	620b      	str	r3, [r1, #32]
  MODIFY_REG(hi2s->Instance->I2SCFGR, (SPI_I2SCFGR_CHLEN | SPI_I2SCFGR_DATLEN | \
 8001392:	68a3      	ldr	r3, [r4, #8]
 8001394:	69cf      	ldr	r7, [r1, #28]
 8001396:	ea46 0203 	orr.w	r2, r6, r3
 800139a:	f442 6200 	orr.w	r2, r2, #2048	; 0x800
 800139e:	432a      	orrs	r2, r5
 80013a0:	4302      	orrs	r2, r0
 80013a2:	ea07 070e 	and.w	r7, r7, lr
 80013a6:	433a      	orrs	r2, r7
 80013a8:	61ca      	str	r2, [r1, #28]
  if (hi2s->Init.FullDuplexMode == I2S_FULLDUPLEXMODE_ENABLE)
 80013aa:	6a22      	ldr	r2, [r4, #32]
 80013ac:	2a01      	cmp	r2, #1
 80013ae:	d11d      	bne.n	80013ec <HAL_I2S_Init+0x110>
    hi2s->IrqHandlerISR = HAL_I2SEx_FullDuplex_IRQHandler;
 80013b0:	4a12      	ldr	r2, [pc, #72]	; (80013fc <HAL_I2S_Init+0x120>)
 80013b2:	6362      	str	r2, [r4, #52]	; 0x34
    CLEAR_BIT(I2SxEXT(hi2s->Instance)->I2SCFGR, (SPI_I2SCFGR_CHLEN | SPI_I2SCFGR_DATLEN | SPI_I2SCFGR_CKPOL | \
 80013b4:	4f12      	ldr	r7, [pc, #72]	; (8001400 <HAL_I2S_Init+0x124>)
 80013b6:	4a13      	ldr	r2, [pc, #76]	; (8001404 <HAL_I2S_Init+0x128>)
 80013b8:	42b9      	cmp	r1, r7
 80013ba:	bf18      	it	ne
 80013bc:	f04f 2240 	movne.w	r2, #1073758208	; 0x40004000
 80013c0:	432b      	orrs	r3, r5
 80013c2:	69d1      	ldr	r1, [r2, #28]
 80013c4:	ea01 010e 	and.w	r1, r1, lr
 80013c8:	61d1      	str	r1, [r2, #28]
    I2SxEXT(hi2s->Instance)->I2SPR = 2U;
 80013ca:	2102      	movs	r1, #2
 80013cc:	6211      	str	r1, [r2, #32]
    tmpreg = I2SxEXT(hi2s->Instance)->I2SCFGR;
 80013ce:	69d7      	ldr	r7, [r2, #28]
 80013d0:	f443 6300 	orr.w	r3, r3, #2048	; 0x800
 80013d4:	4303      	orrs	r3, r0
      tmp = I2S_MODE_SLAVE_TX;
 80013d6:	f436 7100 	bics.w	r1, r6, #512	; 0x200
 80013da:	ea43 0307 	orr.w	r3, r3, r7
 80013de:	bf0c      	ite	eq
 80013e0:	f44f 7180 	moveq.w	r1, #256	; 0x100
 80013e4:	2100      	movne	r1, #0
 80013e6:	b29b      	uxth	r3, r3
    WRITE_REG(I2SxEXT(hi2s->Instance)->I2SCFGR, tmpreg);
 80013e8:	430b      	orrs	r3, r1
 80013ea:	61d3      	str	r3, [r2, #28]
  hi2s->ErrorCode = HAL_I2S_ERROR_NONE;
 80013ec:	2000      	movs	r0, #0
  hi2s->State     = HAL_I2S_STATE_READY;
 80013ee:	2301      	movs	r3, #1
  hi2s->ErrorCode = HAL_I2S_ERROR_NONE;
 80013f0:	6460      	str	r0, [r4, #68]	; 0x44
  hi2s->State     = HAL_I2S_STATE_READY;
 80013f2:	f884 3041 	strb.w	r3, [r4, #65]	; 0x41
  return HAL_OK;
 80013f6:	bdf8      	pop	{r3, r4, r5, r6, r7, pc}
 80013f8:	08001413 	.word	0x08001413
 80013fc:	08001511 	.word	0x08001511
 8001400:	40003800 	.word	0x40003800
 8001404:	40003400 	.word	0x40003400
 8001408:	fffff040 	.word	0xfffff040

0800140c <HAL_I2S_TxCpltCallback>:
 800140c:	4770      	bx	lr

0800140e <HAL_I2S_RxCpltCallback>:
 800140e:	4770      	bx	lr

08001410 <HAL_I2S_ErrorCallback>:
  * @param  hi2s pointer to a I2S_HandleTypeDef structure that contains
  *         the configuration information for I2S module
  * @retval None
  */
__weak void HAL_I2S_ErrorCallback(I2S_HandleTypeDef *hi2s)
{
 8001410:	4770      	bx	lr

08001412 <I2S_IRQHandler>:
  * @param  hi2s: pointer to a I2S_HandleTypeDef structure that contains
  *         the configuration information for I2S module
  * @retval None
  */
static void I2S_IRQHandler(I2S_HandleTypeDef *hi2s)
{
 8001412:	b51f      	push	{r0, r1, r2, r3, r4, lr}
  __IO uint32_t i2ssr = hi2s->Instance->SR;
 8001414:	6803      	ldr	r3, [r0, #0]
 8001416:	689a      	ldr	r2, [r3, #8]
 8001418:	9201      	str	r2, [sp, #4]

  if (hi2s->State == HAL_I2S_STATE_BUSY_RX)
 800141a:	f890 2041 	ldrb.w	r2, [r0, #65]	; 0x41
 800141e:	2a04      	cmp	r2, #4
{
 8001420:	4604      	mov	r4, r0
  if (hi2s->State == HAL_I2S_STATE_BUSY_RX)
 8001422:	d136      	bne.n	8001492 <I2S_IRQHandler+0x80>
  {
    /* I2S in mode Receiver ------------------------------------------------*/
    if (((i2ssr & I2S_FLAG_RXNE) == I2S_FLAG_RXNE) && (__HAL_I2S_GET_IT_SOURCE(hi2s, I2S_IT_RXNE) != RESET))
 8001424:	9a01      	ldr	r2, [sp, #4]
 8001426:	07d1      	lsls	r1, r2, #31
 8001428:	d517      	bpl.n	800145a <I2S_IRQHandler+0x48>
 800142a:	685a      	ldr	r2, [r3, #4]
 800142c:	0652      	lsls	r2, r2, #25
 800142e:	d514      	bpl.n	800145a <I2S_IRQHandler+0x48>
  (*hi2s->pRxBuffPtr) = (uint16_t)hi2s->Instance->DR;
 8001430:	6ac2      	ldr	r2, [r0, #44]	; 0x2c
 8001432:	68d9      	ldr	r1, [r3, #12]
 8001434:	f822 1b02 	strh.w	r1, [r2], #2
  hi2s->pRxBuffPtr++;
 8001438:	62c2      	str	r2, [r0, #44]	; 0x2c
  hi2s->RxXferCount--;
 800143a:	8e42      	ldrh	r2, [r0, #50]	; 0x32
 800143c:	3a01      	subs	r2, #1
 800143e:	b292      	uxth	r2, r2
 8001440:	8642      	strh	r2, [r0, #50]	; 0x32
  if (hi2s->RxXferCount == 0U)
 8001442:	8e42      	ldrh	r2, [r0, #50]	; 0x32
 8001444:	b292      	uxth	r2, r2
 8001446:	b942      	cbnz	r2, 800145a <I2S_IRQHandler+0x48>
    __HAL_I2S_DISABLE_IT(hi2s, (I2S_IT_RXNE | I2S_IT_ERR));
 8001448:	685a      	ldr	r2, [r3, #4]
 800144a:	f022 0260 	bic.w	r2, r2, #96	; 0x60
 800144e:	605a      	str	r2, [r3, #4]
    hi2s->State = HAL_I2S_STATE_READY;
 8001450:	2301      	movs	r3, #1
 8001452:	f880 3041 	strb.w	r3, [r0, #65]	; 0x41
    HAL_I2S_RxCpltCallback(hi2s);
 8001456:	f7ff ffda 	bl	800140e <HAL_I2S_RxCpltCallback>
    {
      I2S_Receive_IT(hi2s);
    }

    /* I2S Overrun error interrupt occurred -------------------------------------*/
    if (((i2ssr & I2S_FLAG_OVR) == I2S_FLAG_OVR) && (__HAL_I2S_GET_IT_SOURCE(hi2s, I2S_IT_ERR) != RESET))
 800145a:	9b01      	ldr	r3, [sp, #4]
 800145c:	0659      	lsls	r1, r3, #25
 800145e:	d518      	bpl.n	8001492 <I2S_IRQHandler+0x80>
 8001460:	6823      	ldr	r3, [r4, #0]
 8001462:	685a      	ldr	r2, [r3, #4]
 8001464:	0692      	lsls	r2, r2, #26
 8001466:	d514      	bpl.n	8001492 <I2S_IRQHandler+0x80>
    {
      /* Disable RXNE and ERR interrupt */
      __HAL_I2S_DISABLE_IT(hi2s, (I2S_IT_RXNE | I2S_IT_ERR));
 8001468:	685a      	ldr	r2, [r3, #4]
 800146a:	f022 0260 	bic.w	r2, r2, #96	; 0x60
 800146e:	605a      	str	r2, [r3, #4]

      /* Clear Overrun flag */
      __HAL_I2S_CLEAR_OVRFLAG(hi2s);
 8001470:	2200      	movs	r2, #0
 8001472:	9202      	str	r2, [sp, #8]
 8001474:	68da      	ldr	r2, [r3, #12]
 8001476:	9202      	str	r2, [sp, #8]
 8001478:	689b      	ldr	r3, [r3, #8]
 800147a:	9302      	str	r3, [sp, #8]
 800147c:	9b02      	ldr	r3, [sp, #8]

      /* Set the I2S State ready */
      hi2s->State = HAL_I2S_STATE_READY;
 800147e:	2301      	movs	r3, #1
 8001480:	f884 3041 	strb.w	r3, [r4, #65]	; 0x41


      /* Set the error code and execute error callback*/
      SET_BIT(hi2s->ErrorCode, HAL_I2S_ERROR_OVR);
 8001484:	6c63      	ldr	r3, [r4, #68]	; 0x44
 8001486:	f043 0302 	orr.w	r3, r3, #2
 800148a:	6463      	str	r3, [r4, #68]	; 0x44
      /* Call user error callback */
#if (USE_HAL_I2S_REGISTER_CALLBACKS == 1U)
      hi2s->ErrorCallback(hi2s);
#else
      HAL_I2S_ErrorCallback(hi2s);
 800148c:	4620      	mov	r0, r4
 800148e:	f7ff ffbf 	bl	8001410 <HAL_I2S_ErrorCallback>
#endif /* USE_HAL_I2S_REGISTER_CALLBACKS */
    }
  }

  if (hi2s->State == HAL_I2S_STATE_BUSY_TX)
 8001492:	f894 3041 	ldrb.w	r3, [r4, #65]	; 0x41
 8001496:	2b03      	cmp	r3, #3
 8001498:	d136      	bne.n	8001508 <I2S_IRQHandler+0xf6>
  {
    /* I2S in mode Transmitter -----------------------------------------------*/
    if (((i2ssr & I2S_FLAG_TXE) == I2S_FLAG_TXE) && (__HAL_I2S_GET_IT_SOURCE(hi2s, I2S_IT_TXE) != RESET))
 800149a:	9b01      	ldr	r3, [sp, #4]
 800149c:	079b      	lsls	r3, r3, #30
 800149e:	d519      	bpl.n	80014d4 <I2S_IRQHandler+0xc2>
 80014a0:	6822      	ldr	r2, [r4, #0]
 80014a2:	6853      	ldr	r3, [r2, #4]
 80014a4:	0618      	lsls	r0, r3, #24
 80014a6:	d515      	bpl.n	80014d4 <I2S_IRQHandler+0xc2>
  hi2s->Instance->DR = (*hi2s->pTxBuffPtr);
 80014a8:	6a63      	ldr	r3, [r4, #36]	; 0x24
 80014aa:	f833 1b02 	ldrh.w	r1, [r3], #2
 80014ae:	60d1      	str	r1, [r2, #12]
  hi2s->pTxBuffPtr++;
 80014b0:	6263      	str	r3, [r4, #36]	; 0x24
  hi2s->TxXferCount--;
 80014b2:	8d63      	ldrh	r3, [r4, #42]	; 0x2a
 80014b4:	3b01      	subs	r3, #1
 80014b6:	b29b      	uxth	r3, r3
 80014b8:	8563      	strh	r3, [r4, #42]	; 0x2a
  if (hi2s->TxXferCount == 0U)
 80014ba:	8d63      	ldrh	r3, [r4, #42]	; 0x2a
 80014bc:	b29b      	uxth	r3, r3
 80014be:	b94b      	cbnz	r3, 80014d4 <I2S_IRQHandler+0xc2>
    __HAL_I2S_DISABLE_IT(hi2s, (I2S_IT_TXE | I2S_IT_ERR));
 80014c0:	6853      	ldr	r3, [r2, #4]
 80014c2:	f023 03a0 	bic.w	r3, r3, #160	; 0xa0
 80014c6:	6053      	str	r3, [r2, #4]
    hi2s->State = HAL_I2S_STATE_READY;
 80014c8:	2301      	movs	r3, #1
 80014ca:	f884 3041 	strb.w	r3, [r4, #65]	; 0x41
    HAL_I2S_TxCpltCallback(hi2s);
 80014ce:	4620      	mov	r0, r4
 80014d0:	f7ff ff9c 	bl	800140c <HAL_I2S_TxCpltCallback>
    {
      I2S_Transmit_IT(hi2s);
    }

    /* I2S Underrun error interrupt occurred --------------------------------*/
    if (((i2ssr & I2S_FLAG_UDR) == I2S_FLAG_UDR) && (__HAL_I2S_GET_IT_SOURCE(hi2s, I2S_IT_ERR) != RESET))
 80014d4:	9b01      	ldr	r3, [sp, #4]
 80014d6:	0719      	lsls	r1, r3, #28
 80014d8:	d516      	bpl.n	8001508 <I2S_IRQHandler+0xf6>
 80014da:	6823      	ldr	r3, [r4, #0]
 80014dc:	685a      	ldr	r2, [r3, #4]
 80014de:	0692      	lsls	r2, r2, #26
 80014e0:	d512      	bpl.n	8001508 <I2S_IRQHandler+0xf6>
    {
      /* Disable TXE and ERR interrupt */
      __HAL_I2S_DISABLE_IT(hi2s, (I2S_IT_TXE | I2S_IT_ERR));
 80014e2:	685a      	ldr	r2, [r3, #4]
 80014e4:	f022 02a0 	bic.w	r2, r2, #160	; 0xa0
 80014e8:	605a      	str	r2, [r3, #4]

      /* Clear Underrun flag */
      __HAL_I2S_CLEAR_UDRFLAG(hi2s);
 80014ea:	2200      	movs	r2, #0
 80014ec:	9203      	str	r2, [sp, #12]
 80014ee:	689b      	ldr	r3, [r3, #8]
 80014f0:	9303      	str	r3, [sp, #12]
 80014f2:	9b03      	ldr	r3, [sp, #12]

      /* Set the I2S State ready */
      hi2s->State = HAL_I2S_STATE_READY;
 80014f4:	2301      	movs	r3, #1
 80014f6:	f884 3041 	strb.w	r3, [r4, #65]	; 0x41

      /* Set the error code and execute error callback*/
      SET_BIT(hi2s->ErrorCode, HAL_I2S_ERROR_UDR);
 80014fa:	6c63      	ldr	r3, [r4, #68]	; 0x44
 80014fc:	f043 0304 	orr.w	r3, r3, #4
 8001500:	6463      	str	r3, [r4, #68]	; 0x44
      /* Call user error callback */
#if (USE_HAL_I2S_REGISTER_CALLBACKS == 1U)
      hi2s->ErrorCallback(hi2s);
#else
      HAL_I2S_ErrorCallback(hi2s);
 8001502:	4620      	mov	r0, r4
 8001504:	f7ff ff84 	bl	8001410 <HAL_I2S_ErrorCallback>
#endif /* USE_HAL_I2S_REGISTER_CALLBACKS */
    }
  }
}
 8001508:	b004      	add	sp, #16
 800150a:	bd10      	pop	{r4, pc}

0800150c <HAL_I2SEx_TxRxCpltCallback>:
  * @brief  Tx and Rx Transfer completed callback
  * @param  hi2s I2S handle
  * @retval None
  */
__weak void HAL_I2SEx_TxRxCpltCallback(I2S_HandleTypeDef *hi2s)
{
 800150c:	4770      	bx	lr
	...

08001510 <HAL_I2SEx_FullDuplex_IRQHandler>:
{
 8001510:	b510      	push	{r4, lr}
  __IO uint32_t i2ssr     = hi2s->Instance->SR;
 8001512:	6802      	ldr	r2, [r0, #0]
  __IO uint32_t i2sextsr  = I2SxEXT(hi2s->Instance)->SR;
 8001514:	498b      	ldr	r1, [pc, #556]	; (8001744 <HAL_I2SEx_FullDuplex_IRQHandler+0x234>)
  __IO uint32_t i2ssr     = hi2s->Instance->SR;
 8001516:	6893      	ldr	r3, [r2, #8]
{
 8001518:	b086      	sub	sp, #24
 800151a:	4604      	mov	r4, r0
  __IO uint32_t i2ssr     = hi2s->Instance->SR;
 800151c:	9300      	str	r3, [sp, #0]
  __IO uint32_t i2sextsr  = I2SxEXT(hi2s->Instance)->SR;
 800151e:	4b8a      	ldr	r3, [pc, #552]	; (8001748 <HAL_I2SEx_FullDuplex_IRQHandler+0x238>)
 8001520:	428a      	cmp	r2, r1
 8001522:	bf18      	it	ne
 8001524:	f04f 2340 	movne.w	r3, #1073758208	; 0x40004000
 8001528:	6899      	ldr	r1, [r3, #8]
 800152a:	9101      	str	r1, [sp, #4]
  __IO uint32_t i2scr2    = hi2s->Instance->CR2;
 800152c:	6851      	ldr	r1, [r2, #4]
 800152e:	9102      	str	r1, [sp, #8]
  __IO uint32_t i2sextcr2 = I2SxEXT(hi2s->Instance)->CR2;
 8001530:	6859      	ldr	r1, [r3, #4]
 8001532:	9103      	str	r1, [sp, #12]
  if ((hi2s->Init.Mode == I2S_MODE_MASTER_TX) || (hi2s->Init.Mode == I2S_MODE_SLAVE_TX))
 8001534:	6841      	ldr	r1, [r0, #4]
 8001536:	f431 7100 	bics.w	r1, r1, #512	; 0x200
 800153a:	f040 8090 	bne.w	800165e <HAL_I2SEx_FullDuplex_IRQHandler+0x14e>
    if (((i2ssr & I2S_FLAG_TXE) == I2S_FLAG_TXE) && ((i2scr2 & I2S_IT_TXE) != RESET))
 800153e:	9b00      	ldr	r3, [sp, #0]
 8001540:	0799      	lsls	r1, r3, #30
 8001542:	d51a      	bpl.n	800157a <HAL_I2SEx_FullDuplex_IRQHandler+0x6a>
 8001544:	9b02      	ldr	r3, [sp, #8]
 8001546:	061b      	lsls	r3, r3, #24
 8001548:	d517      	bpl.n	800157a <HAL_I2SEx_FullDuplex_IRQHandler+0x6a>
  * @retval None
  */
static void I2SEx_TxISR_I2S(I2S_HandleTypeDef *hi2s)
{
  /* Write Data on DR register */
  hi2s->Instance->DR = (*hi2s->pTxBuffPtr++);
 800154a:	6a43      	ldr	r3, [r0, #36]	; 0x24
 800154c:	1c99      	adds	r1, r3, #2
 800154e:	881b      	ldrh	r3, [r3, #0]
 8001550:	6241      	str	r1, [r0, #36]	; 0x24
 8001552:	60d3      	str	r3, [r2, #12]
  hi2s->TxXferCount--;
 8001554:	8d43      	ldrh	r3, [r0, #42]	; 0x2a
 8001556:	3b01      	subs	r3, #1
 8001558:	b29b      	uxth	r3, r3
 800155a:	8543      	strh	r3, [r0, #42]	; 0x2a

  if (hi2s->TxXferCount == 0U)
 800155c:	8d43      	ldrh	r3, [r0, #42]	; 0x2a
 800155e:	b29b      	uxth	r3, r3
 8001560:	b95b      	cbnz	r3, 800157a <HAL_I2SEx_FullDuplex_IRQHandler+0x6a>
  {
    /* Disable TXE and ERR interrupt */
    __HAL_I2S_DISABLE_IT(hi2s, (I2S_IT_TXE | I2S_IT_ERR));
 8001562:	6853      	ldr	r3, [r2, #4]
 8001564:	f023 03a0 	bic.w	r3, r3, #160	; 0xa0
 8001568:	6053      	str	r3, [r2, #4]

    if (hi2s->RxXferCount == 0U)
 800156a:	8e43      	ldrh	r3, [r0, #50]	; 0x32
 800156c:	b29b      	uxth	r3, r3
 800156e:	b923      	cbnz	r3, 800157a <HAL_I2SEx_FullDuplex_IRQHandler+0x6a>
    {
      hi2s->State = HAL_I2S_STATE_READY;
 8001570:	2301      	movs	r3, #1
 8001572:	f880 3041 	strb.w	r3, [r0, #65]	; 0x41
      /* Call user TxRx complete callback */
#if (USE_HAL_I2S_REGISTER_CALLBACKS == 1U)
      hi2s->TxRxCpltCallback(hi2s);
#else
      HAL_I2SEx_TxRxCpltCallback(hi2s);
 8001576:	f7ff ffc9 	bl	800150c <HAL_I2SEx_TxRxCpltCallback>
    if (((i2sextsr & I2S_FLAG_RXNE) == I2S_FLAG_RXNE) && ((i2sextcr2 & I2S_IT_RXNE) != RESET))
 800157a:	9b01      	ldr	r3, [sp, #4]
 800157c:	07d8      	lsls	r0, r3, #31
 800157e:	d522      	bpl.n	80015c6 <HAL_I2SEx_FullDuplex_IRQHandler+0xb6>
 8001580:	9b03      	ldr	r3, [sp, #12]
 8001582:	0659      	lsls	r1, r3, #25
 8001584:	d51f      	bpl.n	80015c6 <HAL_I2SEx_FullDuplex_IRQHandler+0xb6>
  * @retval None
  */
static void I2SEx_RxISR_I2SExt(I2S_HandleTypeDef *hi2s)
{
  /* Read Data from DR register */
  (*hi2s->pRxBuffPtr++) = I2SxEXT(hi2s->Instance)->DR;
 8001586:	6ae2      	ldr	r2, [r4, #44]	; 0x2c
 8001588:	6820      	ldr	r0, [r4, #0]
 800158a:	496e      	ldr	r1, [pc, #440]	; (8001744 <HAL_I2SEx_FullDuplex_IRQHandler+0x234>)
 800158c:	1c93      	adds	r3, r2, #2
 800158e:	62e3      	str	r3, [r4, #44]	; 0x2c
 8001590:	4b6d      	ldr	r3, [pc, #436]	; (8001748 <HAL_I2SEx_FullDuplex_IRQHandler+0x238>)
 8001592:	4288      	cmp	r0, r1
 8001594:	bf18      	it	ne
 8001596:	f04f 2340 	movne.w	r3, #1073758208	; 0x40004000
 800159a:	68d9      	ldr	r1, [r3, #12]
 800159c:	8011      	strh	r1, [r2, #0]
  hi2s->RxXferCount--;
 800159e:	8e62      	ldrh	r2, [r4, #50]	; 0x32
 80015a0:	3a01      	subs	r2, #1
 80015a2:	b292      	uxth	r2, r2
 80015a4:	8662      	strh	r2, [r4, #50]	; 0x32

  if (hi2s->RxXferCount == 0U)
 80015a6:	8e62      	ldrh	r2, [r4, #50]	; 0x32
 80015a8:	b292      	uxth	r2, r2
 80015aa:	b962      	cbnz	r2, 80015c6 <HAL_I2SEx_FullDuplex_IRQHandler+0xb6>
  {
    /* Disable I2Sext RXNE and ERR interrupt */
    __HAL_I2SEXT_DISABLE_IT(hi2s, (I2S_IT_RXNE | I2S_IT_ERR));
 80015ac:	685a      	ldr	r2, [r3, #4]
 80015ae:	f022 0260 	bic.w	r2, r2, #96	; 0x60
 80015b2:	605a      	str	r2, [r3, #4]

    if (hi2s->TxXferCount == 0U)
 80015b4:	8d63      	ldrh	r3, [r4, #42]	; 0x2a
 80015b6:	b29b      	uxth	r3, r3
 80015b8:	b92b      	cbnz	r3, 80015c6 <HAL_I2SEx_FullDuplex_IRQHandler+0xb6>
    {
      hi2s->State = HAL_I2S_STATE_READY;
 80015ba:	2301      	movs	r3, #1
 80015bc:	f884 3041 	strb.w	r3, [r4, #65]	; 0x41
      /* Call user TxRx complete callback */
#if (USE_HAL_I2S_REGISTER_CALLBACKS == 1U)
      hi2s->TxRxCpltCallback(hi2s);
#else
      HAL_I2SEx_TxRxCpltCallback(hi2s);
 80015c0:	4620      	mov	r0, r4
 80015c2:	f7ff ffa3 	bl	800150c <HAL_I2SEx_TxRxCpltCallback>
    if (((i2sextsr & I2S_FLAG_OVR) == I2S_FLAG_OVR) && ((i2sextcr2 & I2S_IT_ERR) != RESET))
 80015c6:	9b01      	ldr	r3, [sp, #4]
 80015c8:	065a      	lsls	r2, r3, #25
 80015ca:	d522      	bpl.n	8001612 <HAL_I2SEx_FullDuplex_IRQHandler+0x102>
 80015cc:	9b03      	ldr	r3, [sp, #12]
 80015ce:	069b      	lsls	r3, r3, #26
 80015d0:	d51f      	bpl.n	8001612 <HAL_I2SEx_FullDuplex_IRQHandler+0x102>
      __HAL_I2SEXT_DISABLE_IT(hi2s, (I2S_IT_RXNE | I2S_IT_ERR));
 80015d2:	6823      	ldr	r3, [r4, #0]
 80015d4:	495b      	ldr	r1, [pc, #364]	; (8001744 <HAL_I2SEx_FullDuplex_IRQHandler+0x234>)
 80015d6:	4a5c      	ldr	r2, [pc, #368]	; (8001748 <HAL_I2SEx_FullDuplex_IRQHandler+0x238>)
 80015d8:	428b      	cmp	r3, r1
 80015da:	bf18      	it	ne
 80015dc:	f04f 2240 	movne.w	r2, #1073758208	; 0x40004000
      HAL_I2S_ErrorCallback(hi2s);
 80015e0:	4620      	mov	r0, r4
      __HAL_I2SEXT_DISABLE_IT(hi2s, (I2S_IT_RXNE | I2S_IT_ERR));
 80015e2:	6851      	ldr	r1, [r2, #4]
 80015e4:	f021 0160 	bic.w	r1, r1, #96	; 0x60
 80015e8:	6051      	str	r1, [r2, #4]
      __HAL_I2S_DISABLE_IT(hi2s, (I2S_IT_TXE | I2S_IT_ERR));
 80015ea:	685a      	ldr	r2, [r3, #4]
 80015ec:	f022 02a0 	bic.w	r2, r2, #160	; 0xa0
 80015f0:	605a      	str	r2, [r3, #4]
      __HAL_I2S_CLEAR_OVRFLAG(hi2s);
 80015f2:	2200      	movs	r2, #0
 80015f4:	9204      	str	r2, [sp, #16]
 80015f6:	68da      	ldr	r2, [r3, #12]
 80015f8:	9204      	str	r2, [sp, #16]
 80015fa:	689b      	ldr	r3, [r3, #8]
 80015fc:	9304      	str	r3, [sp, #16]
 80015fe:	9b04      	ldr	r3, [sp, #16]
      hi2s->State = HAL_I2S_STATE_READY;
 8001600:	2301      	movs	r3, #1
 8001602:	f884 3041 	strb.w	r3, [r4, #65]	; 0x41
      SET_BIT(hi2s->ErrorCode, HAL_I2S_ERROR_OVR);
 8001606:	6c63      	ldr	r3, [r4, #68]	; 0x44
 8001608:	f043 0302 	orr.w	r3, r3, #2
 800160c:	6463      	str	r3, [r4, #68]	; 0x44
      HAL_I2S_ErrorCallback(hi2s);
 800160e:	f7ff feff 	bl	8001410 <HAL_I2S_ErrorCallback>
    if (((i2ssr & I2S_FLAG_UDR) == I2S_FLAG_UDR) && ((i2scr2 & I2S_IT_ERR) != RESET))
 8001612:	9b00      	ldr	r3, [sp, #0]
 8001614:	0718      	lsls	r0, r3, #28
 8001616:	d520      	bpl.n	800165a <HAL_I2SEx_FullDuplex_IRQHandler+0x14a>
 8001618:	9b02      	ldr	r3, [sp, #8]
 800161a:	0699      	lsls	r1, r3, #26
 800161c:	d51d      	bpl.n	800165a <HAL_I2SEx_FullDuplex_IRQHandler+0x14a>
      __HAL_I2S_DISABLE_IT(hi2s, (I2S_IT_TXE | I2S_IT_ERR));
 800161e:	6823      	ldr	r3, [r4, #0]
      __HAL_I2SEXT_DISABLE_IT(hi2s, (I2S_IT_RXNE | I2S_IT_ERR));
 8001620:	4948      	ldr	r1, [pc, #288]	; (8001744 <HAL_I2SEx_FullDuplex_IRQHandler+0x234>)
      __HAL_I2S_DISABLE_IT(hi2s, (I2S_IT_TXE | I2S_IT_ERR));
 8001622:	685a      	ldr	r2, [r3, #4]
 8001624:	f022 02a0 	bic.w	r2, r2, #160	; 0xa0
 8001628:	605a      	str	r2, [r3, #4]
      __HAL_I2SEXT_DISABLE_IT(hi2s, (I2S_IT_RXNE | I2S_IT_ERR));
 800162a:	4a47      	ldr	r2, [pc, #284]	; (8001748 <HAL_I2SEx_FullDuplex_IRQHandler+0x238>)
 800162c:	428b      	cmp	r3, r1
 800162e:	bf18      	it	ne
 8001630:	f04f 2240 	movne.w	r2, #1073758208	; 0x40004000
 8001634:	6851      	ldr	r1, [r2, #4]
 8001636:	f021 0160 	bic.w	r1, r1, #96	; 0x60
 800163a:	6051      	str	r1, [r2, #4]
      __HAL_I2S_CLEAR_UDRFLAG(hi2s);
 800163c:	2200      	movs	r2, #0
 800163e:	9205      	str	r2, [sp, #20]
 8001640:	689b      	ldr	r3, [r3, #8]
 8001642:	9305      	str	r3, [sp, #20]
 8001644:	9b05      	ldr	r3, [sp, #20]
      hi2s->State = HAL_I2S_STATE_READY;
 8001646:	2301      	movs	r3, #1
 8001648:	f884 3041 	strb.w	r3, [r4, #65]	; 0x41
      SET_BIT(hi2s->ErrorCode, HAL_I2S_ERROR_UDR);
 800164c:	6c63      	ldr	r3, [r4, #68]	; 0x44
 800164e:	f043 0304 	orr.w	r3, r3, #4
 8001652:	6463      	str	r3, [r4, #68]	; 0x44
      HAL_I2S_ErrorCallback(hi2s);
 8001654:	4620      	mov	r0, r4
 8001656:	f7ff fedb 	bl	8001410 <HAL_I2S_ErrorCallback>
}
 800165a:	b006      	add	sp, #24
 800165c:	bd10      	pop	{r4, pc}
    if (((i2sextsr & I2S_FLAG_TXE) == I2S_FLAG_TXE) && ((i2sextcr2 & I2S_IT_TXE) != RESET))
 800165e:	9a01      	ldr	r2, [sp, #4]
 8001660:	0792      	lsls	r2, r2, #30
 8001662:	d51a      	bpl.n	800169a <HAL_I2SEx_FullDuplex_IRQHandler+0x18a>
 8001664:	9a03      	ldr	r2, [sp, #12]
 8001666:	0611      	lsls	r1, r2, #24
 8001668:	d517      	bpl.n	800169a <HAL_I2SEx_FullDuplex_IRQHandler+0x18a>
  I2SxEXT(hi2s->Instance)->DR = (*hi2s->pTxBuffPtr++);
 800166a:	6a42      	ldr	r2, [r0, #36]	; 0x24
 800166c:	1c91      	adds	r1, r2, #2
 800166e:	8812      	ldrh	r2, [r2, #0]
 8001670:	6241      	str	r1, [r0, #36]	; 0x24
 8001672:	60da      	str	r2, [r3, #12]
  hi2s->TxXferCount--;
 8001674:	8d42      	ldrh	r2, [r0, #42]	; 0x2a
 8001676:	3a01      	subs	r2, #1
 8001678:	b292      	uxth	r2, r2
 800167a:	8542      	strh	r2, [r0, #42]	; 0x2a
  if (hi2s->TxXferCount == 0U)
 800167c:	8d42      	ldrh	r2, [r0, #42]	; 0x2a
 800167e:	b292      	uxth	r2, r2
 8001680:	b95a      	cbnz	r2, 800169a <HAL_I2SEx_FullDuplex_IRQHandler+0x18a>
    __HAL_I2SEXT_DISABLE_IT(hi2s, (I2S_IT_TXE | I2S_IT_ERR));
 8001682:	685a      	ldr	r2, [r3, #4]
 8001684:	f022 02a0 	bic.w	r2, r2, #160	; 0xa0
 8001688:	605a      	str	r2, [r3, #4]
    if (hi2s->RxXferCount == 0U)
 800168a:	8e43      	ldrh	r3, [r0, #50]	; 0x32
 800168c:	b29b      	uxth	r3, r3
 800168e:	b923      	cbnz	r3, 800169a <HAL_I2SEx_FullDuplex_IRQHandler+0x18a>
      hi2s->State = HAL_I2S_STATE_READY;
 8001690:	2301      	movs	r3, #1
 8001692:	f880 3041 	strb.w	r3, [r0, #65]	; 0x41
      HAL_I2SEx_TxRxCpltCallback(hi2s);
 8001696:	f7ff ff39 	bl	800150c <HAL_I2SEx_TxRxCpltCallback>
    if (((i2ssr & I2S_FLAG_RXNE) == I2S_FLAG_RXNE) && ((i2scr2 & I2S_IT_RXNE) != RESET))
 800169a:	9b00      	ldr	r3, [sp, #0]
 800169c:	07da      	lsls	r2, r3, #31
 800169e:	d51c      	bpl.n	80016da <HAL_I2SEx_FullDuplex_IRQHandler+0x1ca>
 80016a0:	9b02      	ldr	r3, [sp, #8]
 80016a2:	065b      	lsls	r3, r3, #25
 80016a4:	d519      	bpl.n	80016da <HAL_I2SEx_FullDuplex_IRQHandler+0x1ca>
  (*hi2s->pRxBuffPtr++) = hi2s->Instance->DR;
 80016a6:	6ae3      	ldr	r3, [r4, #44]	; 0x2c
 80016a8:	1c9a      	adds	r2, r3, #2
 80016aa:	62e2      	str	r2, [r4, #44]	; 0x2c
 80016ac:	6822      	ldr	r2, [r4, #0]
 80016ae:	68d1      	ldr	r1, [r2, #12]
 80016b0:	8019      	strh	r1, [r3, #0]
  hi2s->RxXferCount--;
 80016b2:	8e63      	ldrh	r3, [r4, #50]	; 0x32
 80016b4:	3b01      	subs	r3, #1
 80016b6:	b29b      	uxth	r3, r3
 80016b8:	8663      	strh	r3, [r4, #50]	; 0x32
  if (hi2s->RxXferCount == 0U)
 80016ba:	8e63      	ldrh	r3, [r4, #50]	; 0x32
 80016bc:	b29b      	uxth	r3, r3
 80016be:	b963      	cbnz	r3, 80016da <HAL_I2SEx_FullDuplex_IRQHandler+0x1ca>
    __HAL_I2S_DISABLE_IT(hi2s, (I2S_IT_RXNE | I2S_IT_ERR));
 80016c0:	6853      	ldr	r3, [r2, #4]
 80016c2:	f023 0360 	bic.w	r3, r3, #96	; 0x60
 80016c6:	6053      	str	r3, [r2, #4]
    if (hi2s->TxXferCount == 0U)
 80016c8:	8d63      	ldrh	r3, [r4, #42]	; 0x2a
 80016ca:	b29b      	uxth	r3, r3
 80016cc:	b92b      	cbnz	r3, 80016da <HAL_I2SEx_FullDuplex_IRQHandler+0x1ca>
      hi2s->State = HAL_I2S_STATE_READY;
 80016ce:	2301      	movs	r3, #1
 80016d0:	f884 3041 	strb.w	r3, [r4, #65]	; 0x41
      HAL_I2SEx_TxRxCpltCallback(hi2s);
 80016d4:	4620      	mov	r0, r4
 80016d6:	f7ff ff19 	bl	800150c <HAL_I2SEx_TxRxCpltCallback>
    if (((i2ssr & I2S_FLAG_OVR) == I2S_FLAG_OVR) && ((i2scr2 & I2S_IT_ERR) != RESET))
 80016da:	9b00      	ldr	r3, [sp, #0]
 80016dc:	0658      	lsls	r0, r3, #25
 80016de:	d51b      	bpl.n	8001718 <HAL_I2SEx_FullDuplex_IRQHandler+0x208>
 80016e0:	9b02      	ldr	r3, [sp, #8]
 80016e2:	0699      	lsls	r1, r3, #26
 80016e4:	d518      	bpl.n	8001718 <HAL_I2SEx_FullDuplex_IRQHandler+0x208>
      __HAL_I2S_DISABLE_IT(hi2s, (I2S_IT_RXNE | I2S_IT_ERR));
 80016e6:	6822      	ldr	r2, [r4, #0]
      __HAL_I2SEXT_DISABLE_IT(hi2s, (I2S_IT_TXE | I2S_IT_ERR));
 80016e8:	4916      	ldr	r1, [pc, #88]	; (8001744 <HAL_I2SEx_FullDuplex_IRQHandler+0x234>)
      __HAL_I2S_DISABLE_IT(hi2s, (I2S_IT_RXNE | I2S_IT_ERR));
 80016ea:	6853      	ldr	r3, [r2, #4]
 80016ec:	f023 0360 	bic.w	r3, r3, #96	; 0x60
 80016f0:	6053      	str	r3, [r2, #4]
      __HAL_I2SEXT_DISABLE_IT(hi2s, (I2S_IT_TXE | I2S_IT_ERR));
 80016f2:	4b15      	ldr	r3, [pc, #84]	; (8001748 <HAL_I2SEx_FullDuplex_IRQHandler+0x238>)
 80016f4:	428a      	cmp	r2, r1
 80016f6:	bf18      	it	ne
 80016f8:	f04f 2340 	movne.w	r3, #1073758208	; 0x40004000
      HAL_I2S_ErrorCallback(hi2s);
 80016fc:	4620      	mov	r0, r4
      __HAL_I2SEXT_DISABLE_IT(hi2s, (I2S_IT_TXE | I2S_IT_ERR));
 80016fe:	685a      	ldr	r2, [r3, #4]
 8001700:	f022 02a0 	bic.w	r2, r2, #160	; 0xa0
 8001704:	605a      	str	r2, [r3, #4]
      hi2s->State = HAL_I2S_STATE_READY;
 8001706:	2301      	movs	r3, #1
 8001708:	f884 3041 	strb.w	r3, [r4, #65]	; 0x41
      SET_BIT(hi2s->ErrorCode, HAL_I2S_ERROR_OVR);
 800170c:	6c63      	ldr	r3, [r4, #68]	; 0x44
 800170e:	f043 0302 	orr.w	r3, r3, #2
 8001712:	6463      	str	r3, [r4, #68]	; 0x44
      HAL_I2S_ErrorCallback(hi2s);
 8001714:	f7ff fe7c 	bl	8001410 <HAL_I2S_ErrorCallback>
    if (((i2sextsr & I2S_FLAG_UDR) == I2S_FLAG_UDR) && ((i2sextcr2 & I2S_IT_ERR) != RESET))
 8001718:	9b01      	ldr	r3, [sp, #4]
 800171a:	071a      	lsls	r2, r3, #28
 800171c:	d59d      	bpl.n	800165a <HAL_I2SEx_FullDuplex_IRQHandler+0x14a>
 800171e:	9b03      	ldr	r3, [sp, #12]
 8001720:	069b      	lsls	r3, r3, #26
 8001722:	d59a      	bpl.n	800165a <HAL_I2SEx_FullDuplex_IRQHandler+0x14a>
      __HAL_I2SEXT_DISABLE_IT(hi2s, (I2S_IT_TXE | I2S_IT_ERR));
 8001724:	6822      	ldr	r2, [r4, #0]
 8001726:	4907      	ldr	r1, [pc, #28]	; (8001744 <HAL_I2SEx_FullDuplex_IRQHandler+0x234>)
 8001728:	4b07      	ldr	r3, [pc, #28]	; (8001748 <HAL_I2SEx_FullDuplex_IRQHandler+0x238>)
 800172a:	428a      	cmp	r2, r1
 800172c:	bf18      	it	ne
 800172e:	f04f 2340 	movne.w	r3, #1073758208	; 0x40004000
 8001732:	6859      	ldr	r1, [r3, #4]
 8001734:	f021 01a0 	bic.w	r1, r1, #160	; 0xa0
 8001738:	6059      	str	r1, [r3, #4]
      __HAL_I2S_DISABLE_IT(hi2s, (I2S_IT_RXNE | I2S_IT_ERR));
 800173a:	6853      	ldr	r3, [r2, #4]
 800173c:	f023 0360 	bic.w	r3, r3, #96	; 0x60
 8001740:	6053      	str	r3, [r2, #4]
 8001742:	e780      	b.n	8001646 <HAL_I2SEx_FullDuplex_IRQHandler+0x136>
 8001744:	40003800 	.word	0x40003800
 8001748:	40003400 	.word	0x40003400

0800174c <HAL_RCC_OscConfig>:
  *         supported by this API. User should request a transition to HSE Off
  *         first and then HSE On or HSE Bypass.
  * @retval HAL status
  */
__weak HAL_StatusTypeDef HAL_RCC_OscConfig(RCC_OscInitTypeDef  *RCC_OscInitStruct)
{
 800174c:	e92d 41f3 	stmdb	sp!, {r0, r1, r4, r5, r6, r7, r8, lr}
  uint32_t tickstart, pll_config;

  /* Check Null pointer */
  if(RCC_OscInitStruct == NULL)
 8001750:	4604      	mov	r4, r0
 8001752:	b908      	cbnz	r0, 8001758 <HAL_RCC_OscConfig+0xc>
    else
    {
      /* Check if there is a request to disable the PLL used as System clock source */
      if((RCC_OscInitStruct->PLL.PLLState) == RCC_PLL_OFF)
      {
        return HAL_ERROR;
 8001754:	2001      	movs	r0, #1
 8001756:	e03f      	b.n	80017d8 <HAL_RCC_OscConfig+0x8c>
  if(((RCC_OscInitStruct->OscillatorType) & RCC_OSCILLATORTYPE_HSE) == RCC_OSCILLATORTYPE_HSE)
 8001758:	6803      	ldr	r3, [r0, #0]
 800175a:	07dd      	lsls	r5, r3, #31
 800175c:	d410      	bmi.n	8001780 <HAL_RCC_OscConfig+0x34>
  if(((RCC_OscInitStruct->OscillatorType) & RCC_OSCILLATORTYPE_HSI) == RCC_OSCILLATORTYPE_HSI)
 800175e:	6823      	ldr	r3, [r4, #0]
 8001760:	0798      	lsls	r0, r3, #30
 8001762:	d45a      	bmi.n	800181a <HAL_RCC_OscConfig+0xce>
  if(((RCC_OscInitStruct->OscillatorType) & RCC_OSCILLATORTYPE_LSI) == RCC_OSCILLATORTYPE_LSI)
 8001764:	6823      	ldr	r3, [r4, #0]
 8001766:	071a      	lsls	r2, r3, #28
 8001768:	f100 809c 	bmi.w	80018a4 <HAL_RCC_OscConfig+0x158>
  if(((RCC_OscInitStruct->OscillatorType) & RCC_OSCILLATORTYPE_LSE) == RCC_OSCILLATORTYPE_LSE)
 800176c:	6823      	ldr	r3, [r4, #0]
 800176e:	075b      	lsls	r3, r3, #29
 8001770:	f100 80ba 	bmi.w	80018e8 <HAL_RCC_OscConfig+0x19c>
  if ((RCC_OscInitStruct->PLL.PLLState) != RCC_PLL_NONE)
 8001774:	69a0      	ldr	r0, [r4, #24]
 8001776:	2800      	cmp	r0, #0
 8001778:	f040 811b 	bne.w	80019b2 <HAL_RCC_OscConfig+0x266>
          return HAL_ERROR;
        }
      }
    }
  }
  return HAL_OK;
 800177c:	2000      	movs	r0, #0
 800177e:	e02b      	b.n	80017d8 <HAL_RCC_OscConfig+0x8c>
    if((__HAL_RCC_GET_SYSCLK_SOURCE() == RCC_CFGR_SWS_HSE) ||\
 8001780:	4ba4      	ldr	r3, [pc, #656]	; (8001a14 <HAL_RCC_OscConfig+0x2c8>)
 8001782:	689a      	ldr	r2, [r3, #8]
 8001784:	f002 020c 	and.w	r2, r2, #12
 8001788:	2a04      	cmp	r2, #4
 800178a:	d007      	beq.n	800179c <HAL_RCC_OscConfig+0x50>
      ((__HAL_RCC_GET_SYSCLK_SOURCE() == RCC_CFGR_SWS_PLL) && ((RCC->PLLCFGR & RCC_PLLCFGR_PLLSRC) == RCC_PLLCFGR_PLLSRC_HSE)))
 800178c:	689a      	ldr	r2, [r3, #8]
 800178e:	f002 020c 	and.w	r2, r2, #12
    if((__HAL_RCC_GET_SYSCLK_SOURCE() == RCC_CFGR_SWS_HSE) ||\
 8001792:	2a08      	cmp	r2, #8
 8001794:	d10a      	bne.n	80017ac <HAL_RCC_OscConfig+0x60>
      ((__HAL_RCC_GET_SYSCLK_SOURCE() == RCC_CFGR_SWS_PLL) && ((RCC->PLLCFGR & RCC_PLLCFGR_PLLSRC) == RCC_PLLCFGR_PLLSRC_HSE)))
 8001796:	685b      	ldr	r3, [r3, #4]
 8001798:	0259      	lsls	r1, r3, #9
 800179a:	d507      	bpl.n	80017ac <HAL_RCC_OscConfig+0x60>
      if((__HAL_RCC_GET_FLAG(RCC_FLAG_HSERDY) != RESET) && (RCC_OscInitStruct->HSEState == RCC_HSE_OFF))
 800179c:	4b9d      	ldr	r3, [pc, #628]	; (8001a14 <HAL_RCC_OscConfig+0x2c8>)
 800179e:	681b      	ldr	r3, [r3, #0]
 80017a0:	039a      	lsls	r2, r3, #14
 80017a2:	d5dc      	bpl.n	800175e <HAL_RCC_OscConfig+0x12>
 80017a4:	6863      	ldr	r3, [r4, #4]
 80017a6:	2b00      	cmp	r3, #0
 80017a8:	d1d9      	bne.n	800175e <HAL_RCC_OscConfig+0x12>
 80017aa:	e7d3      	b.n	8001754 <HAL_RCC_OscConfig+0x8>
      __HAL_RCC_HSE_CONFIG(RCC_OscInitStruct->HSEState);
 80017ac:	6863      	ldr	r3, [r4, #4]
 80017ae:	4d99      	ldr	r5, [pc, #612]	; (8001a14 <HAL_RCC_OscConfig+0x2c8>)
 80017b0:	f5b3 3f80 	cmp.w	r3, #65536	; 0x10000
 80017b4:	d113      	bne.n	80017de <HAL_RCC_OscConfig+0x92>
 80017b6:	682b      	ldr	r3, [r5, #0]
 80017b8:	f443 3380 	orr.w	r3, r3, #65536	; 0x10000
 80017bc:	602b      	str	r3, [r5, #0]
        tickstart = HAL_GetTick();
 80017be:	f7fe ff29 	bl	8000614 <HAL_GetTick>
        while(__HAL_RCC_GET_FLAG(RCC_FLAG_HSERDY) == RESET)
 80017c2:	4d94      	ldr	r5, [pc, #592]	; (8001a14 <HAL_RCC_OscConfig+0x2c8>)
        tickstart = HAL_GetTick();
 80017c4:	4606      	mov	r6, r0
        while(__HAL_RCC_GET_FLAG(RCC_FLAG_HSERDY) == RESET)
 80017c6:	682b      	ldr	r3, [r5, #0]
 80017c8:	039b      	lsls	r3, r3, #14
 80017ca:	d4c8      	bmi.n	800175e <HAL_RCC_OscConfig+0x12>
          if((HAL_GetTick() - tickstart ) > HSE_TIMEOUT_VALUE)
 80017cc:	f7fe ff22 	bl	8000614 <HAL_GetTick>
 80017d0:	1b80      	subs	r0, r0, r6
 80017d2:	2864      	cmp	r0, #100	; 0x64
 80017d4:	d9f7      	bls.n	80017c6 <HAL_RCC_OscConfig+0x7a>
            return HAL_TIMEOUT;
 80017d6:	2003      	movs	r0, #3
}
 80017d8:	b002      	add	sp, #8
 80017da:	e8bd 81f0 	ldmia.w	sp!, {r4, r5, r6, r7, r8, pc}
      __HAL_RCC_HSE_CONFIG(RCC_OscInitStruct->HSEState);
 80017de:	f5b3 2fa0 	cmp.w	r3, #327680	; 0x50000
 80017e2:	d104      	bne.n	80017ee <HAL_RCC_OscConfig+0xa2>
 80017e4:	682b      	ldr	r3, [r5, #0]
 80017e6:	f443 2380 	orr.w	r3, r3, #262144	; 0x40000
 80017ea:	602b      	str	r3, [r5, #0]
 80017ec:	e7e3      	b.n	80017b6 <HAL_RCC_OscConfig+0x6a>
 80017ee:	682a      	ldr	r2, [r5, #0]
 80017f0:	f422 3280 	bic.w	r2, r2, #65536	; 0x10000
 80017f4:	602a      	str	r2, [r5, #0]
 80017f6:	682a      	ldr	r2, [r5, #0]
 80017f8:	f422 2280 	bic.w	r2, r2, #262144	; 0x40000
 80017fc:	602a      	str	r2, [r5, #0]
      if((RCC_OscInitStruct->HSEState) != RCC_HSE_OFF)
 80017fe:	2b00      	cmp	r3, #0
 8001800:	d1dd      	bne.n	80017be <HAL_RCC_OscConfig+0x72>
        tickstart = HAL_GetTick();
 8001802:	f7fe ff07 	bl	8000614 <HAL_GetTick>
 8001806:	4606      	mov	r6, r0
        while(__HAL_RCC_GET_FLAG(RCC_FLAG_HSERDY) != RESET)
 8001808:	682b      	ldr	r3, [r5, #0]
 800180a:	039f      	lsls	r7, r3, #14
 800180c:	d5a7      	bpl.n	800175e <HAL_RCC_OscConfig+0x12>
          if((HAL_GetTick() - tickstart ) > HSE_TIMEOUT_VALUE)
 800180e:	f7fe ff01 	bl	8000614 <HAL_GetTick>
 8001812:	1b80      	subs	r0, r0, r6
 8001814:	2864      	cmp	r0, #100	; 0x64
 8001816:	d9f7      	bls.n	8001808 <HAL_RCC_OscConfig+0xbc>
 8001818:	e7dd      	b.n	80017d6 <HAL_RCC_OscConfig+0x8a>
    if((__HAL_RCC_GET_SYSCLK_SOURCE() == RCC_CFGR_SWS_HSI) ||\
 800181a:	4b7e      	ldr	r3, [pc, #504]	; (8001a14 <HAL_RCC_OscConfig+0x2c8>)
 800181c:	689a      	ldr	r2, [r3, #8]
 800181e:	f012 0f0c 	tst.w	r2, #12
 8001822:	d007      	beq.n	8001834 <HAL_RCC_OscConfig+0xe8>
      ((__HAL_RCC_GET_SYSCLK_SOURCE() == RCC_CFGR_SWS_PLL) && ((RCC->PLLCFGR & RCC_PLLCFGR_PLLSRC) == RCC_PLLCFGR_PLLSRC_HSI)))
 8001824:	689a      	ldr	r2, [r3, #8]
 8001826:	f002 020c 	and.w	r2, r2, #12
    if((__HAL_RCC_GET_SYSCLK_SOURCE() == RCC_CFGR_SWS_HSI) ||\
 800182a:	2a08      	cmp	r2, #8
 800182c:	d111      	bne.n	8001852 <HAL_RCC_OscConfig+0x106>
      ((__HAL_RCC_GET_SYSCLK_SOURCE() == RCC_CFGR_SWS_PLL) && ((RCC->PLLCFGR & RCC_PLLCFGR_PLLSRC) == RCC_PLLCFGR_PLLSRC_HSI)))
 800182e:	685b      	ldr	r3, [r3, #4]
 8001830:	025e      	lsls	r6, r3, #9
 8001832:	d40e      	bmi.n	8001852 <HAL_RCC_OscConfig+0x106>
      if((__HAL_RCC_GET_FLAG(RCC_FLAG_HSIRDY) != RESET) && (RCC_OscInitStruct->HSIState != RCC_HSI_ON))
 8001834:	4b77      	ldr	r3, [pc, #476]	; (8001a14 <HAL_RCC_OscConfig+0x2c8>)
 8001836:	681a      	ldr	r2, [r3, #0]
 8001838:	0795      	lsls	r5, r2, #30
 800183a:	d502      	bpl.n	8001842 <HAL_RCC_OscConfig+0xf6>
 800183c:	68e2      	ldr	r2, [r4, #12]
 800183e:	2a01      	cmp	r2, #1
 8001840:	d188      	bne.n	8001754 <HAL_RCC_OscConfig+0x8>
        __HAL_RCC_HSI_CALIBRATIONVALUE_ADJUST(RCC_OscInitStruct->HSICalibrationValue);
 8001842:	681a      	ldr	r2, [r3, #0]
 8001844:	6921      	ldr	r1, [r4, #16]
 8001846:	f022 02f8 	bic.w	r2, r2, #248	; 0xf8
 800184a:	ea42 02c1 	orr.w	r2, r2, r1, lsl #3
 800184e:	601a      	str	r2, [r3, #0]
      if((__HAL_RCC_GET_FLAG(RCC_FLAG_HSIRDY) != RESET) && (RCC_OscInitStruct->HSIState != RCC_HSI_ON))
 8001850:	e788      	b.n	8001764 <HAL_RCC_OscConfig+0x18>
      if((RCC_OscInitStruct->HSIState)!= RCC_HSI_OFF)
 8001852:	68e2      	ldr	r2, [r4, #12]
 8001854:	4b70      	ldr	r3, [pc, #448]	; (8001a18 <HAL_RCC_OscConfig+0x2cc>)
 8001856:	b1b2      	cbz	r2, 8001886 <HAL_RCC_OscConfig+0x13a>
        __HAL_RCC_HSI_ENABLE();
 8001858:	2201      	movs	r2, #1
 800185a:	601a      	str	r2, [r3, #0]
        tickstart = HAL_GetTick();
 800185c:	f7fe feda 	bl	8000614 <HAL_GetTick>
        while(__HAL_RCC_GET_FLAG(RCC_FLAG_HSIRDY) == RESET)
 8001860:	4d6c      	ldr	r5, [pc, #432]	; (8001a14 <HAL_RCC_OscConfig+0x2c8>)
        tickstart = HAL_GetTick();
 8001862:	4606      	mov	r6, r0
        while(__HAL_RCC_GET_FLAG(RCC_FLAG_HSIRDY) == RESET)
 8001864:	682b      	ldr	r3, [r5, #0]
 8001866:	0798      	lsls	r0, r3, #30
 8001868:	d507      	bpl.n	800187a <HAL_RCC_OscConfig+0x12e>
        __HAL_RCC_HSI_CALIBRATIONVALUE_ADJUST(RCC_OscInitStruct->HSICalibrationValue);
 800186a:	682b      	ldr	r3, [r5, #0]
 800186c:	6922      	ldr	r2, [r4, #16]
 800186e:	f023 03f8 	bic.w	r3, r3, #248	; 0xf8
 8001872:	ea43 03c2 	orr.w	r3, r3, r2, lsl #3
 8001876:	602b      	str	r3, [r5, #0]
 8001878:	e774      	b.n	8001764 <HAL_RCC_OscConfig+0x18>
          if((HAL_GetTick() - tickstart ) > HSI_TIMEOUT_VALUE)
 800187a:	f7fe fecb 	bl	8000614 <HAL_GetTick>
 800187e:	1b80      	subs	r0, r0, r6
 8001880:	2802      	cmp	r0, #2
 8001882:	d9ef      	bls.n	8001864 <HAL_RCC_OscConfig+0x118>
 8001884:	e7a7      	b.n	80017d6 <HAL_RCC_OscConfig+0x8a>
        __HAL_RCC_HSI_DISABLE();
 8001886:	601a      	str	r2, [r3, #0]
        tickstart = HAL_GetTick();
 8001888:	f7fe fec4 	bl	8000614 <HAL_GetTick>
        while(__HAL_RCC_GET_FLAG(RCC_FLAG_HSIRDY) != RESET)
 800188c:	4d61      	ldr	r5, [pc, #388]	; (8001a14 <HAL_RCC_OscConfig+0x2c8>)
        tickstart = HAL_GetTick();
 800188e:	4606      	mov	r6, r0
        while(__HAL_RCC_GET_FLAG(RCC_FLAG_HSIRDY) != RESET)
 8001890:	682b      	ldr	r3, [r5, #0]
 8001892:	0799      	lsls	r1, r3, #30
 8001894:	f57f af66 	bpl.w	8001764 <HAL_RCC_OscConfig+0x18>
          if((HAL_GetTick() - tickstart ) > HSI_TIMEOUT_VALUE)
 8001898:	f7fe febc 	bl	8000614 <HAL_GetTick>
 800189c:	1b80      	subs	r0, r0, r6
 800189e:	2802      	cmp	r0, #2
 80018a0:	d9f6      	bls.n	8001890 <HAL_RCC_OscConfig+0x144>
 80018a2:	e798      	b.n	80017d6 <HAL_RCC_OscConfig+0x8a>
    if((RCC_OscInitStruct->LSIState)!= RCC_LSI_OFF)
 80018a4:	6962      	ldr	r2, [r4, #20]
 80018a6:	4b5d      	ldr	r3, [pc, #372]	; (8001a1c <HAL_RCC_OscConfig+0x2d0>)
 80018a8:	b17a      	cbz	r2, 80018ca <HAL_RCC_OscConfig+0x17e>
      __HAL_RCC_LSI_ENABLE();
 80018aa:	2201      	movs	r2, #1
 80018ac:	601a      	str	r2, [r3, #0]
      tickstart = HAL_GetTick();
 80018ae:	f7fe feb1 	bl	8000614 <HAL_GetTick>
      while(__HAL_RCC_GET_FLAG(RCC_FLAG_LSIRDY) == RESET)
 80018b2:	4d58      	ldr	r5, [pc, #352]	; (8001a14 <HAL_RCC_OscConfig+0x2c8>)
      tickstart = HAL_GetTick();
 80018b4:	4606      	mov	r6, r0
      while(__HAL_RCC_GET_FLAG(RCC_FLAG_LSIRDY) == RESET)
 80018b6:	6f6b      	ldr	r3, [r5, #116]	; 0x74
 80018b8:	079f      	lsls	r7, r3, #30
 80018ba:	f53f af57 	bmi.w	800176c <HAL_RCC_OscConfig+0x20>
        if((HAL_GetTick() - tickstart ) > LSI_TIMEOUT_VALUE)
 80018be:	f7fe fea9 	bl	8000614 <HAL_GetTick>
 80018c2:	1b80      	subs	r0, r0, r6
 80018c4:	2802      	cmp	r0, #2
 80018c6:	d9f6      	bls.n	80018b6 <HAL_RCC_OscConfig+0x16a>
 80018c8:	e785      	b.n	80017d6 <HAL_RCC_OscConfig+0x8a>
      __HAL_RCC_LSI_DISABLE();
 80018ca:	601a      	str	r2, [r3, #0]
      tickstart = HAL_GetTick();
 80018cc:	f7fe fea2 	bl	8000614 <HAL_GetTick>
      while(__HAL_RCC_GET_FLAG(RCC_FLAG_LSIRDY) != RESET)
 80018d0:	4d50      	ldr	r5, [pc, #320]	; (8001a14 <HAL_RCC_OscConfig+0x2c8>)
      tickstart = HAL_GetTick();
 80018d2:	4606      	mov	r6, r0
      while(__HAL_RCC_GET_FLAG(RCC_FLAG_LSIRDY) != RESET)
 80018d4:	6f6b      	ldr	r3, [r5, #116]	; 0x74
 80018d6:	0798      	lsls	r0, r3, #30
 80018d8:	f57f af48 	bpl.w	800176c <HAL_RCC_OscConfig+0x20>
        if((HAL_GetTick() - tickstart ) > LSI_TIMEOUT_VALUE)
 80018dc:	f7fe fe9a 	bl	8000614 <HAL_GetTick>
 80018e0:	1b80      	subs	r0, r0, r6
 80018e2:	2802      	cmp	r0, #2
 80018e4:	d9f6      	bls.n	80018d4 <HAL_RCC_OscConfig+0x188>
 80018e6:	e776      	b.n	80017d6 <HAL_RCC_OscConfig+0x8a>
    if(__HAL_RCC_PWR_IS_CLK_DISABLED())
 80018e8:	4b4a      	ldr	r3, [pc, #296]	; (8001a14 <HAL_RCC_OscConfig+0x2c8>)
 80018ea:	6c1a      	ldr	r2, [r3, #64]	; 0x40
 80018ec:	f012 5280 	ands.w	r2, r2, #268435456	; 0x10000000
 80018f0:	d128      	bne.n	8001944 <HAL_RCC_OscConfig+0x1f8>
      __HAL_RCC_PWR_CLK_ENABLE();
 80018f2:	9201      	str	r2, [sp, #4]
 80018f4:	6c1a      	ldr	r2, [r3, #64]	; 0x40
 80018f6:	f042 5280 	orr.w	r2, r2, #268435456	; 0x10000000
 80018fa:	641a      	str	r2, [r3, #64]	; 0x40
 80018fc:	6c1b      	ldr	r3, [r3, #64]	; 0x40
 80018fe:	f003 5380 	and.w	r3, r3, #268435456	; 0x10000000
 8001902:	9301      	str	r3, [sp, #4]
 8001904:	9b01      	ldr	r3, [sp, #4]
      pwrclkchanged = SET;
 8001906:	2601      	movs	r6, #1
    if(HAL_IS_BIT_CLR(PWR->CR, PWR_CR_DBP))
 8001908:	4d45      	ldr	r5, [pc, #276]	; (8001a20 <HAL_RCC_OscConfig+0x2d4>)
 800190a:	682b      	ldr	r3, [r5, #0]
 800190c:	05d9      	lsls	r1, r3, #23
 800190e:	d51b      	bpl.n	8001948 <HAL_RCC_OscConfig+0x1fc>
    __HAL_RCC_LSE_CONFIG(RCC_OscInitStruct->LSEState);
 8001910:	68a3      	ldr	r3, [r4, #8]
 8001912:	4d40      	ldr	r5, [pc, #256]	; (8001a14 <HAL_RCC_OscConfig+0x2c8>)
 8001914:	2b01      	cmp	r3, #1
 8001916:	d127      	bne.n	8001968 <HAL_RCC_OscConfig+0x21c>
 8001918:	6f2b      	ldr	r3, [r5, #112]	; 0x70
 800191a:	f043 0301 	orr.w	r3, r3, #1
 800191e:	672b      	str	r3, [r5, #112]	; 0x70
      tickstart = HAL_GetTick();
 8001920:	f7fe fe78 	bl	8000614 <HAL_GetTick>
      while(__HAL_RCC_GET_FLAG(RCC_FLAG_LSERDY) == RESET)
 8001924:	4d3b      	ldr	r5, [pc, #236]	; (8001a14 <HAL_RCC_OscConfig+0x2c8>)
      tickstart = HAL_GetTick();
 8001926:	4607      	mov	r7, r0
        if((HAL_GetTick() - tickstart ) > RCC_LSE_TIMEOUT_VALUE)
 8001928:	f241 3888 	movw	r8, #5000	; 0x1388
      while(__HAL_RCC_GET_FLAG(RCC_FLAG_LSERDY) == RESET)
 800192c:	6f2b      	ldr	r3, [r5, #112]	; 0x70
 800192e:	079b      	lsls	r3, r3, #30
 8001930:	d539      	bpl.n	80019a6 <HAL_RCC_OscConfig+0x25a>
    if(pwrclkchanged == SET)
 8001932:	2e00      	cmp	r6, #0
 8001934:	f43f af1e 	beq.w	8001774 <HAL_RCC_OscConfig+0x28>
      __HAL_RCC_PWR_CLK_DISABLE();
 8001938:	4a36      	ldr	r2, [pc, #216]	; (8001a14 <HAL_RCC_OscConfig+0x2c8>)
 800193a:	6c13      	ldr	r3, [r2, #64]	; 0x40
 800193c:	f023 5380 	bic.w	r3, r3, #268435456	; 0x10000000
 8001940:	6413      	str	r3, [r2, #64]	; 0x40
 8001942:	e717      	b.n	8001774 <HAL_RCC_OscConfig+0x28>
    FlagStatus       pwrclkchanged = RESET;
 8001944:	2600      	movs	r6, #0
 8001946:	e7df      	b.n	8001908 <HAL_RCC_OscConfig+0x1bc>
      SET_BIT(PWR->CR, PWR_CR_DBP);
 8001948:	682b      	ldr	r3, [r5, #0]
 800194a:	f443 7380 	orr.w	r3, r3, #256	; 0x100
 800194e:	602b      	str	r3, [r5, #0]
      tickstart = HAL_GetTick();
 8001950:	f7fe fe60 	bl	8000614 <HAL_GetTick>
 8001954:	4607      	mov	r7, r0
      while(HAL_IS_BIT_CLR(PWR->CR, PWR_CR_DBP))
 8001956:	682b      	ldr	r3, [r5, #0]
 8001958:	05da      	lsls	r2, r3, #23
 800195a:	d4d9      	bmi.n	8001910 <HAL_RCC_OscConfig+0x1c4>
        if((HAL_GetTick() - tickstart) > RCC_DBP_TIMEOUT_VALUE)
 800195c:	f7fe fe5a 	bl	8000614 <HAL_GetTick>
 8001960:	1bc0      	subs	r0, r0, r7
 8001962:	2802      	cmp	r0, #2
 8001964:	d9f7      	bls.n	8001956 <HAL_RCC_OscConfig+0x20a>
 8001966:	e736      	b.n	80017d6 <HAL_RCC_OscConfig+0x8a>
    __HAL_RCC_LSE_CONFIG(RCC_OscInitStruct->LSEState);
 8001968:	2b05      	cmp	r3, #5
 800196a:	d104      	bne.n	8001976 <HAL_RCC_OscConfig+0x22a>
 800196c:	6f2b      	ldr	r3, [r5, #112]	; 0x70
 800196e:	f043 0304 	orr.w	r3, r3, #4
 8001972:	672b      	str	r3, [r5, #112]	; 0x70
 8001974:	e7d0      	b.n	8001918 <HAL_RCC_OscConfig+0x1cc>
 8001976:	6f2a      	ldr	r2, [r5, #112]	; 0x70
 8001978:	f022 0201 	bic.w	r2, r2, #1
 800197c:	672a      	str	r2, [r5, #112]	; 0x70
 800197e:	6f2a      	ldr	r2, [r5, #112]	; 0x70
 8001980:	f022 0204 	bic.w	r2, r2, #4
 8001984:	672a      	str	r2, [r5, #112]	; 0x70
    if((RCC_OscInitStruct->LSEState) != RCC_LSE_OFF)
 8001986:	2b00      	cmp	r3, #0
 8001988:	d1ca      	bne.n	8001920 <HAL_RCC_OscConfig+0x1d4>
      tickstart = HAL_GetTick();
 800198a:	f7fe fe43 	bl	8000614 <HAL_GetTick>
        if((HAL_GetTick() - tickstart ) > RCC_LSE_TIMEOUT_VALUE)
 800198e:	f241 3888 	movw	r8, #5000	; 0x1388
      tickstart = HAL_GetTick();
 8001992:	4607      	mov	r7, r0
      while(__HAL_RCC_GET_FLAG(RCC_FLAG_LSERDY) != RESET)
 8001994:	6f2b      	ldr	r3, [r5, #112]	; 0x70
 8001996:	0798      	lsls	r0, r3, #30
 8001998:	d5cb      	bpl.n	8001932 <HAL_RCC_OscConfig+0x1e6>
        if((HAL_GetTick() - tickstart ) > RCC_LSE_TIMEOUT_VALUE)
 800199a:	f7fe fe3b 	bl	8000614 <HAL_GetTick>
 800199e:	1bc0      	subs	r0, r0, r7
 80019a0:	4540      	cmp	r0, r8
 80019a2:	d9f7      	bls.n	8001994 <HAL_RCC_OscConfig+0x248>
 80019a4:	e717      	b.n	80017d6 <HAL_RCC_OscConfig+0x8a>
        if((HAL_GetTick() - tickstart ) > RCC_LSE_TIMEOUT_VALUE)
 80019a6:	f7fe fe35 	bl	8000614 <HAL_GetTick>
 80019aa:	1bc0      	subs	r0, r0, r7
 80019ac:	4540      	cmp	r0, r8
 80019ae:	d9bd      	bls.n	800192c <HAL_RCC_OscConfig+0x1e0>
 80019b0:	e711      	b.n	80017d6 <HAL_RCC_OscConfig+0x8a>
    if(__HAL_RCC_GET_SYSCLK_SOURCE() != RCC_CFGR_SWS_PLL)
 80019b2:	4d18      	ldr	r5, [pc, #96]	; (8001a14 <HAL_RCC_OscConfig+0x2c8>)
 80019b4:	68ab      	ldr	r3, [r5, #8]
 80019b6:	f003 030c 	and.w	r3, r3, #12
 80019ba:	2b08      	cmp	r3, #8
 80019bc:	d047      	beq.n	8001a4e <HAL_RCC_OscConfig+0x302>
 80019be:	4e19      	ldr	r6, [pc, #100]	; (8001a24 <HAL_RCC_OscConfig+0x2d8>)
 80019c0:	2300      	movs	r3, #0
      if((RCC_OscInitStruct->PLL.PLLState) == RCC_PLL_ON)
 80019c2:	2802      	cmp	r0, #2
        __HAL_RCC_PLL_DISABLE();
 80019c4:	6033      	str	r3, [r6, #0]
      if((RCC_OscInitStruct->PLL.PLLState) == RCC_PLL_ON)
 80019c6:	d135      	bne.n	8001a34 <HAL_RCC_OscConfig+0x2e8>
        tickstart = HAL_GetTick();
 80019c8:	f7fe fe24 	bl	8000614 <HAL_GetTick>
 80019cc:	4607      	mov	r7, r0
        while(__HAL_RCC_GET_FLAG(RCC_FLAG_PLLRDY) != RESET)
 80019ce:	682b      	ldr	r3, [r5, #0]
 80019d0:	0199      	lsls	r1, r3, #6
 80019d2:	d429      	bmi.n	8001a28 <HAL_RCC_OscConfig+0x2dc>
        WRITE_REG(RCC->PLLCFGR, (RCC_OscInitStruct->PLL.PLLSource                                            | \
 80019d4:	6a22      	ldr	r2, [r4, #32]
 80019d6:	69e3      	ldr	r3, [r4, #28]
 80019d8:	4313      	orrs	r3, r2
 80019da:	6a62      	ldr	r2, [r4, #36]	; 0x24
 80019dc:	ea43 1382 	orr.w	r3, r3, r2, lsl #6
 80019e0:	6ae2      	ldr	r2, [r4, #44]	; 0x2c
 80019e2:	ea43 6302 	orr.w	r3, r3, r2, lsl #24
 80019e6:	6aa2      	ldr	r2, [r4, #40]	; 0x28
        while(__HAL_RCC_GET_FLAG(RCC_FLAG_PLLRDY) == RESET)
 80019e8:	4c0a      	ldr	r4, [pc, #40]	; (8001a14 <HAL_RCC_OscConfig+0x2c8>)
        WRITE_REG(RCC->PLLCFGR, (RCC_OscInitStruct->PLL.PLLSource                                            | \
 80019ea:	0852      	lsrs	r2, r2, #1
 80019ec:	3a01      	subs	r2, #1
 80019ee:	ea43 4302 	orr.w	r3, r3, r2, lsl #16
 80019f2:	606b      	str	r3, [r5, #4]
        __HAL_RCC_PLL_ENABLE();
 80019f4:	2301      	movs	r3, #1
 80019f6:	6033      	str	r3, [r6, #0]
        tickstart = HAL_GetTick();
 80019f8:	f7fe fe0c 	bl	8000614 <HAL_GetTick>
 80019fc:	4605      	mov	r5, r0
        while(__HAL_RCC_GET_FLAG(RCC_FLAG_PLLRDY) == RESET)
 80019fe:	6823      	ldr	r3, [r4, #0]
 8001a00:	019a      	lsls	r2, r3, #6
 8001a02:	f53f aebb 	bmi.w	800177c <HAL_RCC_OscConfig+0x30>
          if((HAL_GetTick() - tickstart ) > PLL_TIMEOUT_VALUE)
 8001a06:	f7fe fe05 	bl	8000614 <HAL_GetTick>
 8001a0a:	1b40      	subs	r0, r0, r5
 8001a0c:	2802      	cmp	r0, #2
 8001a0e:	d9f6      	bls.n	80019fe <HAL_RCC_OscConfig+0x2b2>
 8001a10:	e6e1      	b.n	80017d6 <HAL_RCC_OscConfig+0x8a>
 8001a12:	bf00      	nop
 8001a14:	40023800 	.word	0x40023800
 8001a18:	42470000 	.word	0x42470000
 8001a1c:	42470e80 	.word	0x42470e80
 8001a20:	40007000 	.word	0x40007000
 8001a24:	42470060 	.word	0x42470060
          if((HAL_GetTick() - tickstart ) > PLL_TIMEOUT_VALUE)
 8001a28:	f7fe fdf4 	bl	8000614 <HAL_GetTick>
 8001a2c:	1bc0      	subs	r0, r0, r7
 8001a2e:	2802      	cmp	r0, #2
 8001a30:	d9cd      	bls.n	80019ce <HAL_RCC_OscConfig+0x282>
 8001a32:	e6d0      	b.n	80017d6 <HAL_RCC_OscConfig+0x8a>
        tickstart = HAL_GetTick();
 8001a34:	f7fe fdee 	bl	8000614 <HAL_GetTick>
 8001a38:	4604      	mov	r4, r0
        while(__HAL_RCC_GET_FLAG(RCC_FLAG_PLLRDY) != RESET)
 8001a3a:	682b      	ldr	r3, [r5, #0]
 8001a3c:	019b      	lsls	r3, r3, #6
 8001a3e:	f57f ae9d 	bpl.w	800177c <HAL_RCC_OscConfig+0x30>
          if((HAL_GetTick() - tickstart ) > PLL_TIMEOUT_VALUE)
 8001a42:	f7fe fde7 	bl	8000614 <HAL_GetTick>
 8001a46:	1b00      	subs	r0, r0, r4
 8001a48:	2802      	cmp	r0, #2
 8001a4a:	d9f6      	bls.n	8001a3a <HAL_RCC_OscConfig+0x2ee>
 8001a4c:	e6c3      	b.n	80017d6 <HAL_RCC_OscConfig+0x8a>
      if((RCC_OscInitStruct->PLL.PLLState) == RCC_PLL_OFF)
 8001a4e:	2801      	cmp	r0, #1
 8001a50:	f43f aec2 	beq.w	80017d8 <HAL_RCC_OscConfig+0x8c>
        pll_config = RCC->CFGR;
 8001a54:	68a8      	ldr	r0, [r5, #8]
        if((READ_BIT(pll_config, RCC_PLLCFGR_PLLSRC) != RCC_OscInitStruct->PLL.PLLSource) ||
 8001a56:	69e3      	ldr	r3, [r4, #28]
 8001a58:	f400 0280 	and.w	r2, r0, #4194304	; 0x400000
 8001a5c:	429a      	cmp	r2, r3
 8001a5e:	f47f ae79 	bne.w	8001754 <HAL_RCC_OscConfig+0x8>
 8001a62:	6a22      	ldr	r2, [r4, #32]
           (READ_BIT(pll_config, RCC_PLLCFGR_PLLM) != RCC_OscInitStruct->PLL.PLLM) ||
 8001a64:	f000 033f 	and.w	r3, r0, #63	; 0x3f
        if((READ_BIT(pll_config, RCC_PLLCFGR_PLLSRC) != RCC_OscInitStruct->PLL.PLLSource) ||
 8001a68:	4293      	cmp	r3, r2
 8001a6a:	f47f ae73 	bne.w	8001754 <HAL_RCC_OscConfig+0x8>
           (READ_BIT(pll_config, RCC_PLLCFGR_PLLM) != RCC_OscInitStruct->PLL.PLLM) ||
 8001a6e:	6a62      	ldr	r2, [r4, #36]	; 0x24
 8001a70:	f647 73c0 	movw	r3, #32704	; 0x7fc0
 8001a74:	4003      	ands	r3, r0
 8001a76:	4293      	cmp	r3, r2
 8001a78:	f47f ae6c 	bne.w	8001754 <HAL_RCC_OscConfig+0x8>
           (READ_BIT(pll_config, RCC_PLLCFGR_PLLN) != RCC_OscInitStruct->PLL.PLLN) ||
 8001a7c:	6aa2      	ldr	r2, [r4, #40]	; 0x28
           (READ_BIT(pll_config, RCC_PLLCFGR_PLLP) != RCC_OscInitStruct->PLL.PLLP) ||
 8001a7e:	f400 3340 	and.w	r3, r0, #196608	; 0x30000
           (READ_BIT(pll_config, RCC_PLLCFGR_PLLN) != RCC_OscInitStruct->PLL.PLLN) ||
 8001a82:	4293      	cmp	r3, r2
 8001a84:	f47f ae66 	bne.w	8001754 <HAL_RCC_OscConfig+0x8>
           (READ_BIT(pll_config, RCC_PLLCFGR_PLLP) != RCC_OscInitStruct->PLL.PLLP) ||
 8001a88:	6ae3      	ldr	r3, [r4, #44]	; 0x2c
           (READ_BIT(pll_config, RCC_PLLCFGR_PLLQ) != RCC_OscInitStruct->PLL.PLLQ))
 8001a8a:	f000 6070 	and.w	r0, r0, #251658240	; 0xf000000
    return HAL_ERROR;
 8001a8e:	1ac0      	subs	r0, r0, r3
 8001a90:	bf18      	it	ne
 8001a92:	2001      	movne	r0, #1
 8001a94:	e6a0      	b.n	80017d8 <HAL_RCC_OscConfig+0x8c>
 8001a96:	bf00      	nop

08001a98 <HAL_RCC_GetSysClockFreq>:
{
  uint32_t pllm = 0U, pllvco = 0U, pllp = 0U;
  uint32_t sysclockfreq = 0U;

  /* Get SYSCLK source -------------------------------------------------------*/
  switch (RCC->CFGR & RCC_CFGR_SWS)
 8001a98:	4913      	ldr	r1, [pc, #76]	; (8001ae8 <HAL_RCC_GetSysClockFreq+0x50>)
{
 8001a9a:	b508      	push	{r3, lr}
  switch (RCC->CFGR & RCC_CFGR_SWS)
 8001a9c:	688b      	ldr	r3, [r1, #8]
 8001a9e:	f003 030c 	and.w	r3, r3, #12
 8001aa2:	2b04      	cmp	r3, #4
 8001aa4:	d003      	beq.n	8001aae <HAL_RCC_GetSysClockFreq+0x16>
 8001aa6:	2b08      	cmp	r3, #8
 8001aa8:	d003      	beq.n	8001ab2 <HAL_RCC_GetSysClockFreq+0x1a>
  {
    case RCC_CFGR_SWS_HSI:  /* HSI used as system clock source */
    {
      sysclockfreq = HSI_VALUE;
 8001aaa:	4810      	ldr	r0, [pc, #64]	; (8001aec <HAL_RCC_GetSysClockFreq+0x54>)
      sysclockfreq = HSI_VALUE;
      break;
    }
  }
  return sysclockfreq;
}
 8001aac:	bd08      	pop	{r3, pc}
      sysclockfreq = HSE_VALUE;
 8001aae:	4810      	ldr	r0, [pc, #64]	; (8001af0 <HAL_RCC_GetSysClockFreq+0x58>)
 8001ab0:	bd08      	pop	{r3, pc}
      pllm = RCC->PLLCFGR & RCC_PLLCFGR_PLLM;
 8001ab2:	684a      	ldr	r2, [r1, #4]
      if(__HAL_RCC_GET_PLL_OSCSOURCE() != RCC_PLLSOURCE_HSI)
 8001ab4:	684b      	ldr	r3, [r1, #4]
        pllvco = (uint32_t) ((((uint64_t) HSE_VALUE * ((uint64_t) ((RCC->PLLCFGR & RCC_PLLCFGR_PLLN) >> RCC_PLLCFGR_PLLN_Pos)))) / (uint64_t)pllm);
 8001ab6:	6849      	ldr	r1, [r1, #4]
      if(__HAL_RCC_GET_PLL_OSCSOURCE() != RCC_PLLSOURCE_HSI)
 8001ab8:	f413 0380 	ands.w	r3, r3, #4194304	; 0x400000
        pllvco = (uint32_t) ((((uint64_t) HSE_VALUE * ((uint64_t) ((RCC->PLLCFGR & RCC_PLLCFGR_PLLN) >> RCC_PLLCFGR_PLLN_Pos)))) / (uint64_t)pllm);
 8001abc:	bf14      	ite	ne
 8001abe:	480c      	ldrne	r0, [pc, #48]	; (8001af0 <HAL_RCC_GetSysClockFreq+0x58>)
        pllvco = (uint32_t) ((((uint64_t) HSI_VALUE * ((uint64_t) ((RCC->PLLCFGR & RCC_PLLCFGR_PLLN) >> RCC_PLLCFGR_PLLN_Pos)))) / (uint64_t)pllm);
 8001ac0:	480a      	ldreq	r0, [pc, #40]	; (8001aec <HAL_RCC_GetSysClockFreq+0x54>)
        pllvco = (uint32_t) ((((uint64_t) HSE_VALUE * ((uint64_t) ((RCC->PLLCFGR & RCC_PLLCFGR_PLLN) >> RCC_PLLCFGR_PLLN_Pos)))) / (uint64_t)pllm);
 8001ac2:	f3c1 1188 	ubfx	r1, r1, #6, #9
 8001ac6:	bf18      	it	ne
 8001ac8:	2300      	movne	r3, #0
      pllm = RCC->PLLCFGR & RCC_PLLCFGR_PLLM;
 8001aca:	f002 023f 	and.w	r2, r2, #63	; 0x3f
        pllvco = (uint32_t) ((((uint64_t) HSI_VALUE * ((uint64_t) ((RCC->PLLCFGR & RCC_PLLCFGR_PLLN) >> RCC_PLLCFGR_PLLN_Pos)))) / (uint64_t)pllm);
 8001ace:	fba1 0100 	umull	r0, r1, r1, r0
 8001ad2:	f7fe fbcd 	bl	8000270 <__aeabi_uldivmod>
      pllp = ((((RCC->PLLCFGR & RCC_PLLCFGR_PLLP) >> RCC_PLLCFGR_PLLP_Pos) + 1U) *2U);
 8001ad6:	4b04      	ldr	r3, [pc, #16]	; (8001ae8 <HAL_RCC_GetSysClockFreq+0x50>)
 8001ad8:	685b      	ldr	r3, [r3, #4]
 8001ada:	f3c3 4301 	ubfx	r3, r3, #16, #2
 8001ade:	3301      	adds	r3, #1
 8001ae0:	005b      	lsls	r3, r3, #1
      sysclockfreq = pllvco/pllp;
 8001ae2:	fbb0 f0f3 	udiv	r0, r0, r3
 8001ae6:	bd08      	pop	{r3, pc}
 8001ae8:	40023800 	.word	0x40023800
 8001aec:	00f42400 	.word	0x00f42400
 8001af0:	007a1200 	.word	0x007a1200

08001af4 <HAL_RCC_ClockConfig>:
{
 8001af4:	e92d 41f0 	stmdb	sp!, {r4, r5, r6, r7, r8, lr}
 8001af8:	460d      	mov	r5, r1
  if(RCC_ClkInitStruct == NULL)
 8001afa:	4604      	mov	r4, r0
 8001afc:	b910      	cbnz	r0, 8001b04 <HAL_RCC_ClockConfig+0x10>
    return HAL_ERROR;
 8001afe:	2001      	movs	r0, #1
 8001b00:	e8bd 81f0 	ldmia.w	sp!, {r4, r5, r6, r7, r8, pc}
  if(FLatency > __HAL_FLASH_GET_LATENCY())
 8001b04:	4b44      	ldr	r3, [pc, #272]	; (8001c18 <HAL_RCC_ClockConfig+0x124>)
 8001b06:	681a      	ldr	r2, [r3, #0]
 8001b08:	f002 020f 	and.w	r2, r2, #15
 8001b0c:	428a      	cmp	r2, r1
 8001b0e:	d329      	bcc.n	8001b64 <HAL_RCC_ClockConfig+0x70>
  if(((RCC_ClkInitStruct->ClockType) & RCC_CLOCKTYPE_HCLK) == RCC_CLOCKTYPE_HCLK)
 8001b10:	6821      	ldr	r1, [r4, #0]
 8001b12:	078f      	lsls	r7, r1, #30
 8001b14:	d42e      	bmi.n	8001b74 <HAL_RCC_ClockConfig+0x80>
  if(((RCC_ClkInitStruct->ClockType) & RCC_CLOCKTYPE_SYSCLK) == RCC_CLOCKTYPE_SYSCLK)
 8001b16:	07c8      	lsls	r0, r1, #31
 8001b18:	d441      	bmi.n	8001b9e <HAL_RCC_ClockConfig+0xaa>
  if(FLatency < __HAL_FLASH_GET_LATENCY())
 8001b1a:	4b3f      	ldr	r3, [pc, #252]	; (8001c18 <HAL_RCC_ClockConfig+0x124>)
 8001b1c:	681a      	ldr	r2, [r3, #0]
 8001b1e:	f002 020f 	and.w	r2, r2, #15
 8001b22:	4295      	cmp	r5, r2
 8001b24:	d367      	bcc.n	8001bf6 <HAL_RCC_ClockConfig+0x102>
  if(((RCC_ClkInitStruct->ClockType) & RCC_CLOCKTYPE_PCLK1) == RCC_CLOCKTYPE_PCLK1)
 8001b26:	6822      	ldr	r2, [r4, #0]
 8001b28:	0751      	lsls	r1, r2, #29
 8001b2a:	d46d      	bmi.n	8001c08 <HAL_RCC_ClockConfig+0x114>
  if(((RCC_ClkInitStruct->ClockType) & RCC_CLOCKTYPE_PCLK2) == RCC_CLOCKTYPE_PCLK2)
 8001b2c:	0713      	lsls	r3, r2, #28
 8001b2e:	d507      	bpl.n	8001b40 <HAL_RCC_ClockConfig+0x4c>
    MODIFY_REG(RCC->CFGR, RCC_CFGR_PPRE2, ((RCC_ClkInitStruct->APB2CLKDivider) << 3U));
 8001b30:	4a3a      	ldr	r2, [pc, #232]	; (8001c1c <HAL_RCC_ClockConfig+0x128>)
 8001b32:	6921      	ldr	r1, [r4, #16]
 8001b34:	6893      	ldr	r3, [r2, #8]
 8001b36:	f423 4360 	bic.w	r3, r3, #57344	; 0xe000
 8001b3a:	ea43 03c1 	orr.w	r3, r3, r1, lsl #3
 8001b3e:	6093      	str	r3, [r2, #8]
  SystemCoreClock = HAL_RCC_GetSysClockFreq() >> AHBPrescTable[(RCC->CFGR & RCC_CFGR_HPRE)>> RCC_CFGR_HPRE_Pos];
 8001b40:	f7ff ffaa 	bl	8001a98 <HAL_RCC_GetSysClockFreq>
 8001b44:	4b35      	ldr	r3, [pc, #212]	; (8001c1c <HAL_RCC_ClockConfig+0x128>)
 8001b46:	4a36      	ldr	r2, [pc, #216]	; (8001c20 <HAL_RCC_ClockConfig+0x12c>)
 8001b48:	689b      	ldr	r3, [r3, #8]
 8001b4a:	f3c3 1303 	ubfx	r3, r3, #4, #4
 8001b4e:	5cd3      	ldrb	r3, [r2, r3]
 8001b50:	40d8      	lsrs	r0, r3
 8001b52:	4b34      	ldr	r3, [pc, #208]	; (8001c24 <HAL_RCC_ClockConfig+0x130>)
 8001b54:	6018      	str	r0, [r3, #0]
  HAL_InitTick (uwTickPrio);
 8001b56:	4b34      	ldr	r3, [pc, #208]	; (8001c28 <HAL_RCC_ClockConfig+0x134>)
 8001b58:	6818      	ldr	r0, [r3, #0]
 8001b5a:	f7fe fd11 	bl	8000580 <HAL_InitTick>
  return HAL_OK;
 8001b5e:	2000      	movs	r0, #0
 8001b60:	e8bd 81f0 	ldmia.w	sp!, {r4, r5, r6, r7, r8, pc}
    __HAL_FLASH_SET_LATENCY(FLatency);
 8001b64:	b2ca      	uxtb	r2, r1
 8001b66:	701a      	strb	r2, [r3, #0]
    if(__HAL_FLASH_GET_LATENCY() != FLatency)
 8001b68:	681b      	ldr	r3, [r3, #0]
 8001b6a:	f003 030f 	and.w	r3, r3, #15
 8001b6e:	4299      	cmp	r1, r3
 8001b70:	d1c5      	bne.n	8001afe <HAL_RCC_ClockConfig+0xa>
 8001b72:	e7cd      	b.n	8001b10 <HAL_RCC_ClockConfig+0x1c>
 8001b74:	4b29      	ldr	r3, [pc, #164]	; (8001c1c <HAL_RCC_ClockConfig+0x128>)
    if(((RCC_ClkInitStruct->ClockType) & RCC_CLOCKTYPE_PCLK1) == RCC_CLOCKTYPE_PCLK1)
 8001b76:	f011 0f04 	tst.w	r1, #4
      MODIFY_REG(RCC->CFGR, RCC_CFGR_PPRE1, RCC_HCLK_DIV16);
 8001b7a:	bf1e      	ittt	ne
 8001b7c:	689a      	ldrne	r2, [r3, #8]
 8001b7e:	f442 52e0 	orrne.w	r2, r2, #7168	; 0x1c00
 8001b82:	609a      	strne	r2, [r3, #8]
    if(((RCC_ClkInitStruct->ClockType) & RCC_CLOCKTYPE_PCLK2) == RCC_CLOCKTYPE_PCLK2)
 8001b84:	070e      	lsls	r6, r1, #28
      MODIFY_REG(RCC->CFGR, RCC_CFGR_PPRE2, (RCC_HCLK_DIV16 << 3));
 8001b86:	bf42      	ittt	mi
 8001b88:	689a      	ldrmi	r2, [r3, #8]
 8001b8a:	f442 4260 	orrmi.w	r2, r2, #57344	; 0xe000
 8001b8e:	609a      	strmi	r2, [r3, #8]
    MODIFY_REG(RCC->CFGR, RCC_CFGR_HPRE, RCC_ClkInitStruct->AHBCLKDivider);
 8001b90:	689a      	ldr	r2, [r3, #8]
 8001b92:	68a0      	ldr	r0, [r4, #8]
 8001b94:	f022 02f0 	bic.w	r2, r2, #240	; 0xf0
 8001b98:	4302      	orrs	r2, r0
 8001b9a:	609a      	str	r2, [r3, #8]
 8001b9c:	e7bb      	b.n	8001b16 <HAL_RCC_ClockConfig+0x22>
    if(RCC_ClkInitStruct->SYSCLKSource == RCC_SYSCLKSOURCE_HSE)
 8001b9e:	6862      	ldr	r2, [r4, #4]
 8001ba0:	4b1e      	ldr	r3, [pc, #120]	; (8001c1c <HAL_RCC_ClockConfig+0x128>)
 8001ba2:	2a01      	cmp	r2, #1
 8001ba4:	d11d      	bne.n	8001be2 <HAL_RCC_ClockConfig+0xee>
      if(__HAL_RCC_GET_FLAG(RCC_FLAG_HSERDY) == RESET)
 8001ba6:	681b      	ldr	r3, [r3, #0]
 8001ba8:	f413 3f00 	tst.w	r3, #131072	; 0x20000
      if(__HAL_RCC_GET_FLAG(RCC_FLAG_HSIRDY) == RESET)
 8001bac:	d0a7      	beq.n	8001afe <HAL_RCC_ClockConfig+0xa>
    __HAL_RCC_SYSCLK_CONFIG(RCC_ClkInitStruct->SYSCLKSource);
 8001bae:	4e1b      	ldr	r6, [pc, #108]	; (8001c1c <HAL_RCC_ClockConfig+0x128>)
 8001bb0:	68b3      	ldr	r3, [r6, #8]
 8001bb2:	f023 0303 	bic.w	r3, r3, #3
 8001bb6:	4313      	orrs	r3, r2
 8001bb8:	60b3      	str	r3, [r6, #8]
    tickstart = HAL_GetTick();
 8001bba:	f7fe fd2b 	bl	8000614 <HAL_GetTick>
      if ((HAL_GetTick() - tickstart) > CLOCKSWITCH_TIMEOUT_VALUE)
 8001bbe:	f241 3888 	movw	r8, #5000	; 0x1388
    tickstart = HAL_GetTick();
 8001bc2:	4607      	mov	r7, r0
    while (__HAL_RCC_GET_SYSCLK_SOURCE() != (RCC_ClkInitStruct->SYSCLKSource << RCC_CFGR_SWS_Pos))
 8001bc4:	68b3      	ldr	r3, [r6, #8]
 8001bc6:	6862      	ldr	r2, [r4, #4]
 8001bc8:	f003 030c 	and.w	r3, r3, #12
 8001bcc:	ebb3 0f82 	cmp.w	r3, r2, lsl #2
 8001bd0:	d0a3      	beq.n	8001b1a <HAL_RCC_ClockConfig+0x26>
      if ((HAL_GetTick() - tickstart) > CLOCKSWITCH_TIMEOUT_VALUE)
 8001bd2:	f7fe fd1f 	bl	8000614 <HAL_GetTick>
 8001bd6:	1bc0      	subs	r0, r0, r7
 8001bd8:	4540      	cmp	r0, r8
 8001bda:	d9f3      	bls.n	8001bc4 <HAL_RCC_ClockConfig+0xd0>
        return HAL_TIMEOUT;
 8001bdc:	2003      	movs	r0, #3
}
 8001bde:	e8bd 81f0 	ldmia.w	sp!, {r4, r5, r6, r7, r8, pc}
    else if((RCC_ClkInitStruct->SYSCLKSource == RCC_SYSCLKSOURCE_PLLCLK)   ||
 8001be2:	1e91      	subs	r1, r2, #2
 8001be4:	2901      	cmp	r1, #1
      if(__HAL_RCC_GET_FLAG(RCC_FLAG_PLLRDY) == RESET)
 8001be6:	681b      	ldr	r3, [r3, #0]
    else if((RCC_ClkInitStruct->SYSCLKSource == RCC_SYSCLKSOURCE_PLLCLK)   ||
 8001be8:	d802      	bhi.n	8001bf0 <HAL_RCC_ClockConfig+0xfc>
      if(__HAL_RCC_GET_FLAG(RCC_FLAG_PLLRDY) == RESET)
 8001bea:	f013 7f00 	tst.w	r3, #33554432	; 0x2000000
 8001bee:	e7dd      	b.n	8001bac <HAL_RCC_ClockConfig+0xb8>
      if(__HAL_RCC_GET_FLAG(RCC_FLAG_HSIRDY) == RESET)
 8001bf0:	f013 0f02 	tst.w	r3, #2
 8001bf4:	e7da      	b.n	8001bac <HAL_RCC_ClockConfig+0xb8>
    __HAL_FLASH_SET_LATENCY(FLatency);
 8001bf6:	b2ea      	uxtb	r2, r5
 8001bf8:	701a      	strb	r2, [r3, #0]
    if(__HAL_FLASH_GET_LATENCY() != FLatency)
 8001bfa:	681b      	ldr	r3, [r3, #0]
 8001bfc:	f003 030f 	and.w	r3, r3, #15
 8001c00:	429d      	cmp	r5, r3
 8001c02:	f47f af7c 	bne.w	8001afe <HAL_RCC_ClockConfig+0xa>
 8001c06:	e78e      	b.n	8001b26 <HAL_RCC_ClockConfig+0x32>
    MODIFY_REG(RCC->CFGR, RCC_CFGR_PPRE1, RCC_ClkInitStruct->APB1CLKDivider);
 8001c08:	4904      	ldr	r1, [pc, #16]	; (8001c1c <HAL_RCC_ClockConfig+0x128>)
 8001c0a:	68e0      	ldr	r0, [r4, #12]
 8001c0c:	688b      	ldr	r3, [r1, #8]
 8001c0e:	f423 53e0 	bic.w	r3, r3, #7168	; 0x1c00
 8001c12:	4303      	orrs	r3, r0
 8001c14:	608b      	str	r3, [r1, #8]
 8001c16:	e789      	b.n	8001b2c <HAL_RCC_ClockConfig+0x38>
 8001c18:	40023c00 	.word	0x40023c00
 8001c1c:	40023800 	.word	0x40023800
 8001c20:	08004e62 	.word	0x08004e62
 8001c24:	20000028 	.word	0x20000028
 8001c28:	20000004 	.word	0x20000004

08001c2c <HAL_RCC_GetPCLK1Freq>:
  * @retval PCLK1 frequency
  */
uint32_t HAL_RCC_GetPCLK1Freq(void)
{
  /* Get HCLK source and Compute PCLK1 frequency ---------------------------*/
  return (HAL_RCC_GetHCLKFreq() >> APBPrescTable[(RCC->CFGR & RCC_CFGR_PPRE1)>> RCC_CFGR_PPRE1_Pos]);
 8001c2c:	4b04      	ldr	r3, [pc, #16]	; (8001c40 <HAL_RCC_GetPCLK1Freq+0x14>)
 8001c2e:	4a05      	ldr	r2, [pc, #20]	; (8001c44 <HAL_RCC_GetPCLK1Freq+0x18>)
 8001c30:	689b      	ldr	r3, [r3, #8]
 8001c32:	f3c3 2382 	ubfx	r3, r3, #10, #3
 8001c36:	5cd3      	ldrb	r3, [r2, r3]
 8001c38:	4a03      	ldr	r2, [pc, #12]	; (8001c48 <HAL_RCC_GetPCLK1Freq+0x1c>)
 8001c3a:	6810      	ldr	r0, [r2, #0]
}
 8001c3c:	40d8      	lsrs	r0, r3
 8001c3e:	4770      	bx	lr
 8001c40:	40023800 	.word	0x40023800
 8001c44:	08004e72 	.word	0x08004e72
 8001c48:	20000028 	.word	0x20000028

08001c4c <HAL_RCCEx_PeriphCLKConfig>:

  /* Check the parameters */
  assert_param(IS_RCC_PERIPHCLOCK(PeriphClkInit->PeriphClockSelection));

  /*---------------------------- I2S configuration ---------------------------*/
  if((((PeriphClkInit->PeriphClockSelection) & RCC_PERIPHCLK_I2S) == RCC_PERIPHCLK_I2S) ||
 8001c4c:	6803      	ldr	r3, [r0, #0]
 8001c4e:	f013 0f05 	tst.w	r3, #5
{
 8001c52:	b5f7      	push	{r0, r1, r2, r4, r5, r6, r7, lr}
 8001c54:	4605      	mov	r5, r0
  if((((PeriphClkInit->PeriphClockSelection) & RCC_PERIPHCLK_I2S) == RCC_PERIPHCLK_I2S) ||
 8001c56:	d105      	bne.n	8001c64 <HAL_RCCEx_PeriphCLKConfig+0x18>
      }
    }
  }

  /*---------------------------- RTC configuration ---------------------------*/
  if(((PeriphClkInit->PeriphClockSelection) & RCC_PERIPHCLK_RTC) == (RCC_PERIPHCLK_RTC))
 8001c58:	6828      	ldr	r0, [r5, #0]
 8001c5a:	f010 0002 	ands.w	r0, r0, #2
 8001c5e:	d128      	bne.n	8001cb2 <HAL_RCCEx_PeriphCLKConfig+0x66>
  {
    __HAL_RCC_TIMCLKPRESCALER(PeriphClkInit->TIMPresSelection);
  }
#endif /* STM32F401xC || STM32F401xE || STM32F411xE */
  return HAL_OK;
}
 8001c60:	b003      	add	sp, #12
 8001c62:	bdf0      	pop	{r4, r5, r6, r7, pc}
    __HAL_RCC_PLLI2S_DISABLE();
 8001c64:	4c41      	ldr	r4, [pc, #260]	; (8001d6c <HAL_RCCEx_PeriphCLKConfig+0x120>)
    while(__HAL_RCC_GET_FLAG(RCC_FLAG_PLLI2SRDY)  != RESET)
 8001c66:	4e42      	ldr	r6, [pc, #264]	; (8001d70 <HAL_RCCEx_PeriphCLKConfig+0x124>)
    __HAL_RCC_PLLI2S_DISABLE();
 8001c68:	2300      	movs	r3, #0
 8001c6a:	6023      	str	r3, [r4, #0]
    tickstart = HAL_GetTick();
 8001c6c:	f7fe fcd2 	bl	8000614 <HAL_GetTick>
 8001c70:	4607      	mov	r7, r0
    while(__HAL_RCC_GET_FLAG(RCC_FLAG_PLLI2SRDY)  != RESET)
 8001c72:	6833      	ldr	r3, [r6, #0]
 8001c74:	011b      	lsls	r3, r3, #4
 8001c76:	d415      	bmi.n	8001ca4 <HAL_RCCEx_PeriphCLKConfig+0x58>
    __HAL_RCC_PLLI2S_CONFIG(PeriphClkInit->PLLI2S.PLLI2SN , PeriphClkInit->PLLI2S.PLLI2SR);
 8001c78:	68ab      	ldr	r3, [r5, #8]
 8001c7a:	686a      	ldr	r2, [r5, #4]
 8001c7c:	071b      	lsls	r3, r3, #28
 8001c7e:	ea43 1382 	orr.w	r3, r3, r2, lsl #6
 8001c82:	f8c6 3084 	str.w	r3, [r6, #132]	; 0x84
    __HAL_RCC_PLLI2S_ENABLE();
 8001c86:	2301      	movs	r3, #1
 8001c88:	6023      	str	r3, [r4, #0]
    tickstart = HAL_GetTick();
 8001c8a:	f7fe fcc3 	bl	8000614 <HAL_GetTick>
    while(__HAL_RCC_GET_FLAG(RCC_FLAG_PLLI2SRDY)  == RESET)
 8001c8e:	4c38      	ldr	r4, [pc, #224]	; (8001d70 <HAL_RCCEx_PeriphCLKConfig+0x124>)
    tickstart = HAL_GetTick();
 8001c90:	4606      	mov	r6, r0
    while(__HAL_RCC_GET_FLAG(RCC_FLAG_PLLI2SRDY)  == RESET)
 8001c92:	6823      	ldr	r3, [r4, #0]
 8001c94:	0118      	lsls	r0, r3, #4
 8001c96:	d4df      	bmi.n	8001c58 <HAL_RCCEx_PeriphCLKConfig+0xc>
      if((HAL_GetTick() - tickstart ) > PLLI2S_TIMEOUT_VALUE)
 8001c98:	f7fe fcbc 	bl	8000614 <HAL_GetTick>
 8001c9c:	1b80      	subs	r0, r0, r6
 8001c9e:	2802      	cmp	r0, #2
 8001ca0:	d9f7      	bls.n	8001c92 <HAL_RCCEx_PeriphCLKConfig+0x46>
 8001ca2:	e004      	b.n	8001cae <HAL_RCCEx_PeriphCLKConfig+0x62>
      if((HAL_GetTick() - tickstart ) > PLLI2S_TIMEOUT_VALUE)
 8001ca4:	f7fe fcb6 	bl	8000614 <HAL_GetTick>
 8001ca8:	1bc0      	subs	r0, r0, r7
 8001caa:	2802      	cmp	r0, #2
 8001cac:	d9e1      	bls.n	8001c72 <HAL_RCCEx_PeriphCLKConfig+0x26>
        return HAL_TIMEOUT;
 8001cae:	2003      	movs	r0, #3
 8001cb0:	e7d6      	b.n	8001c60 <HAL_RCCEx_PeriphCLKConfig+0x14>
    __HAL_RCC_PWR_CLK_ENABLE();
 8001cb2:	2300      	movs	r3, #0
 8001cb4:	9301      	str	r3, [sp, #4]
 8001cb6:	4b2e      	ldr	r3, [pc, #184]	; (8001d70 <HAL_RCCEx_PeriphCLKConfig+0x124>)
    PWR->CR |= PWR_CR_DBP;
 8001cb8:	4c2e      	ldr	r4, [pc, #184]	; (8001d74 <HAL_RCCEx_PeriphCLKConfig+0x128>)
    __HAL_RCC_PWR_CLK_ENABLE();
 8001cba:	6c1a      	ldr	r2, [r3, #64]	; 0x40
 8001cbc:	f042 5280 	orr.w	r2, r2, #268435456	; 0x10000000
 8001cc0:	641a      	str	r2, [r3, #64]	; 0x40
 8001cc2:	6c1b      	ldr	r3, [r3, #64]	; 0x40
 8001cc4:	f003 5380 	and.w	r3, r3, #268435456	; 0x10000000
 8001cc8:	9301      	str	r3, [sp, #4]
 8001cca:	9b01      	ldr	r3, [sp, #4]
    PWR->CR |= PWR_CR_DBP;
 8001ccc:	6823      	ldr	r3, [r4, #0]
 8001cce:	f443 7380 	orr.w	r3, r3, #256	; 0x100
 8001cd2:	6023      	str	r3, [r4, #0]
    tickstart = HAL_GetTick();
 8001cd4:	f7fe fc9e 	bl	8000614 <HAL_GetTick>
 8001cd8:	4606      	mov	r6, r0
    while((PWR->CR & PWR_CR_DBP) == RESET)
 8001cda:	6823      	ldr	r3, [r4, #0]
 8001cdc:	05d9      	lsls	r1, r3, #23
 8001cde:	d51b      	bpl.n	8001d18 <HAL_RCCEx_PeriphCLKConfig+0xcc>
    tmpreg1 = (RCC->BDCR & RCC_BDCR_RTCSEL);
 8001ce0:	4c23      	ldr	r4, [pc, #140]	; (8001d70 <HAL_RCCEx_PeriphCLKConfig+0x124>)
 8001ce2:	6f23      	ldr	r3, [r4, #112]	; 0x70
    if((tmpreg1 != 0x00000000U) && ((tmpreg1) != (PeriphClkInit->RTCClockSelection & RCC_BDCR_RTCSEL)))
 8001ce4:	f413 7340 	ands.w	r3, r3, #768	; 0x300
 8001ce8:	d11c      	bne.n	8001d24 <HAL_RCCEx_PeriphCLKConfig+0xd8>
    __HAL_RCC_RTC_CONFIG(PeriphClkInit->RTCClockSelection);
 8001cea:	68eb      	ldr	r3, [r5, #12]
 8001cec:	f403 7240 	and.w	r2, r3, #768	; 0x300
 8001cf0:	f5b2 7f40 	cmp.w	r2, #768	; 0x300
 8001cf4:	4a1e      	ldr	r2, [pc, #120]	; (8001d70 <HAL_RCCEx_PeriphCLKConfig+0x124>)
 8001cf6:	d134      	bne.n	8001d62 <HAL_RCCEx_PeriphCLKConfig+0x116>
 8001cf8:	6891      	ldr	r1, [r2, #8]
 8001cfa:	f023 4070 	bic.w	r0, r3, #4026531840	; 0xf0000000
 8001cfe:	f421 11f8 	bic.w	r1, r1, #2031616	; 0x1f0000
 8001d02:	f420 7040 	bic.w	r0, r0, #768	; 0x300
 8001d06:	4301      	orrs	r1, r0
 8001d08:	6091      	str	r1, [r2, #8]
 8001d0a:	6f11      	ldr	r1, [r2, #112]	; 0x70
 8001d0c:	f3c3 030b 	ubfx	r3, r3, #0, #12
 8001d10:	430b      	orrs	r3, r1
 8001d12:	6713      	str	r3, [r2, #112]	; 0x70
  return HAL_OK;
 8001d14:	2000      	movs	r0, #0
 8001d16:	e7a3      	b.n	8001c60 <HAL_RCCEx_PeriphCLKConfig+0x14>
      if((HAL_GetTick() - tickstart ) > RCC_DBP_TIMEOUT_VALUE)
 8001d18:	f7fe fc7c 	bl	8000614 <HAL_GetTick>
 8001d1c:	1b80      	subs	r0, r0, r6
 8001d1e:	2802      	cmp	r0, #2
 8001d20:	d9db      	bls.n	8001cda <HAL_RCCEx_PeriphCLKConfig+0x8e>
 8001d22:	e7c4      	b.n	8001cae <HAL_RCCEx_PeriphCLKConfig+0x62>
    if((tmpreg1 != 0x00000000U) && ((tmpreg1) != (PeriphClkInit->RTCClockSelection & RCC_BDCR_RTCSEL)))
 8001d24:	68ea      	ldr	r2, [r5, #12]
 8001d26:	f402 7240 	and.w	r2, r2, #768	; 0x300
 8001d2a:	4293      	cmp	r3, r2
 8001d2c:	d0dd      	beq.n	8001cea <HAL_RCCEx_PeriphCLKConfig+0x9e>
      tmpreg1 = (RCC->BDCR & ~(RCC_BDCR_RTCSEL));
 8001d2e:	6f23      	ldr	r3, [r4, #112]	; 0x70
      __HAL_RCC_BACKUPRESET_FORCE();
 8001d30:	4a11      	ldr	r2, [pc, #68]	; (8001d78 <HAL_RCCEx_PeriphCLKConfig+0x12c>)
 8001d32:	2101      	movs	r1, #1
 8001d34:	6011      	str	r1, [r2, #0]
      tmpreg1 = (RCC->BDCR & ~(RCC_BDCR_RTCSEL));
 8001d36:	f423 7340 	bic.w	r3, r3, #768	; 0x300
      __HAL_RCC_BACKUPRESET_RELEASE();
 8001d3a:	2100      	movs	r1, #0
 8001d3c:	6011      	str	r1, [r2, #0]
      RCC->BDCR = tmpreg1;
 8001d3e:	6723      	str	r3, [r4, #112]	; 0x70
      if(HAL_IS_BIT_SET(RCC->BDCR, RCC_BDCR_LSEON))
 8001d40:	6f23      	ldr	r3, [r4, #112]	; 0x70
 8001d42:	07da      	lsls	r2, r3, #31
 8001d44:	d5d1      	bpl.n	8001cea <HAL_RCCEx_PeriphCLKConfig+0x9e>
        tickstart = HAL_GetTick();
 8001d46:	f7fe fc65 	bl	8000614 <HAL_GetTick>
          if((HAL_GetTick() - tickstart ) > RCC_LSE_TIMEOUT_VALUE)
 8001d4a:	f241 3788 	movw	r7, #5000	; 0x1388
        tickstart = HAL_GetTick();
 8001d4e:	4606      	mov	r6, r0
        while(__HAL_RCC_GET_FLAG(RCC_FLAG_LSERDY) == RESET)
 8001d50:	6f23      	ldr	r3, [r4, #112]	; 0x70
 8001d52:	079b      	lsls	r3, r3, #30
 8001d54:	d4c9      	bmi.n	8001cea <HAL_RCCEx_PeriphCLKConfig+0x9e>
          if((HAL_GetTick() - tickstart ) > RCC_LSE_TIMEOUT_VALUE)
 8001d56:	f7fe fc5d 	bl	8000614 <HAL_GetTick>
 8001d5a:	1b80      	subs	r0, r0, r6
 8001d5c:	42b8      	cmp	r0, r7
 8001d5e:	d9f7      	bls.n	8001d50 <HAL_RCCEx_PeriphCLKConfig+0x104>
 8001d60:	e7a5      	b.n	8001cae <HAL_RCCEx_PeriphCLKConfig+0x62>
    __HAL_RCC_RTC_CONFIG(PeriphClkInit->RTCClockSelection);
 8001d62:	6891      	ldr	r1, [r2, #8]
 8001d64:	f421 11f8 	bic.w	r1, r1, #2031616	; 0x1f0000
 8001d68:	e7ce      	b.n	8001d08 <HAL_RCCEx_PeriphCLKConfig+0xbc>
 8001d6a:	bf00      	nop
 8001d6c:	42470068 	.word	0x42470068
 8001d70:	40023800 	.word	0x40023800
 8001d74:	40007000 	.word	0x40007000
 8001d78:	42470e40 	.word	0x42470e40

08001d7c <HAL_RCCEx_GetPeriphCLKFreq>:
  /* This variable used to store the VCO Input (value in Hz) */
  uint32_t vcoinput = 0U;
  uint32_t srcclk = 0U;
  /* This variable used to store the VCO Output (value in Hz) */
  uint32_t vcooutput = 0U;
  switch (PeriphClk)
 8001d7c:	2801      	cmp	r0, #1
 8001d7e:	d120      	bne.n	8001dc2 <HAL_RCCEx_GetPeriphCLKFreq+0x46>
  {
  case RCC_PERIPHCLK_I2S:
    {
      /* Get the current I2S source */
      srcclk = __HAL_RCC_GET_I2S_SOURCE();
 8001d80:	4b11      	ldr	r3, [pc, #68]	; (8001dc8 <HAL_RCCEx_GetPeriphCLKFreq+0x4c>)
 8001d82:	689a      	ldr	r2, [r3, #8]
      switch (srcclk)
 8001d84:	f412 0200 	ands.w	r2, r2, #8388608	; 0x800000
 8001d88:	d004      	beq.n	8001d94 <HAL_RCCEx_GetPeriphCLKFreq+0x18>
 8001d8a:	2a01      	cmp	r2, #1
          break;
        }
        /* Clock not enabled for I2S*/
      default:
        {
          frequency = 0U;
 8001d8c:	480f      	ldr	r0, [pc, #60]	; (8001dcc <HAL_RCCEx_GetPeriphCLKFreq+0x50>)
 8001d8e:	bf18      	it	ne
 8001d90:	2000      	movne	r0, #0
 8001d92:	4770      	bx	lr
          if((RCC->PLLCFGR & RCC_PLLCFGR_PLLSRC) == RCC_PLLSOURCE_HSE)
 8001d94:	685a      	ldr	r2, [r3, #4]
          vcooutput = (uint32_t)(vcoinput * (((RCC->PLLI2SCFGR & RCC_PLLI2SCFGR_PLLI2SN) >> 6U) & (RCC_PLLI2SCFGR_PLLI2SN >> 6U)));
 8001d96:	490c      	ldr	r1, [pc, #48]	; (8001dc8 <HAL_RCCEx_GetPeriphCLKFreq+0x4c>)
            vcoinput = (uint32_t)(HSE_VALUE / (uint32_t)(RCC->PLLCFGR & RCC_PLLCFGR_PLLM));
 8001d98:	6858      	ldr	r0, [r3, #4]
          if((RCC->PLLCFGR & RCC_PLLCFGR_PLLSRC) == RCC_PLLSOURCE_HSE)
 8001d9a:	0253      	lsls	r3, r2, #9
          vcooutput = (uint32_t)(vcoinput * (((RCC->PLLI2SCFGR & RCC_PLLI2SCFGR_PLLI2SN) >> 6U) & (RCC_PLLI2SCFGR_PLLI2SN >> 6U)));
 8001d9c:	f8d1 2084 	ldr.w	r2, [r1, #132]	; 0x84
            vcoinput = (uint32_t)(HSE_VALUE / (uint32_t)(RCC->PLLCFGR & RCC_PLLCFGR_PLLM));
 8001da0:	bf4c      	ite	mi
 8001da2:	4b0b      	ldrmi	r3, [pc, #44]	; (8001dd0 <HAL_RCCEx_GetPeriphCLKFreq+0x54>)
            vcoinput = (uint32_t)(HSI_VALUE / (uint32_t)(RCC->PLLCFGR & RCC_PLLCFGR_PLLM));
 8001da4:	4b0b      	ldrpl	r3, [pc, #44]	; (8001dd4 <HAL_RCCEx_GetPeriphCLKFreq+0x58>)
            vcoinput = (uint32_t)(HSE_VALUE / (uint32_t)(RCC->PLLCFGR & RCC_PLLCFGR_PLLM));
 8001da6:	f000 003f 	and.w	r0, r0, #63	; 0x3f
            vcoinput = (uint32_t)(HSI_VALUE / (uint32_t)(RCC->PLLCFGR & RCC_PLLCFGR_PLLM));
 8001daa:	fbb3 f3f0 	udiv	r3, r3, r0
          frequency = (uint32_t)(vcooutput /(((RCC->PLLI2SCFGR & RCC_PLLI2SCFGR_PLLI2SR) >> 28U) & (RCC_PLLI2SCFGR_PLLI2SR >> 28U)));
 8001dae:	f8d1 0084 	ldr.w	r0, [r1, #132]	; 0x84
          vcooutput = (uint32_t)(vcoinput * (((RCC->PLLI2SCFGR & RCC_PLLI2SCFGR_PLLI2SN) >> 6U) & (RCC_PLLI2SCFGR_PLLI2SN >> 6U)));
 8001db2:	f3c2 1288 	ubfx	r2, r2, #6, #9
 8001db6:	4353      	muls	r3, r2
          frequency = (uint32_t)(vcooutput /(((RCC->PLLI2SCFGR & RCC_PLLI2SCFGR_PLLI2SR) >> 28U) & (RCC_PLLI2SCFGR_PLLI2SR >> 28U)));
 8001db8:	f3c0 7002 	ubfx	r0, r0, #28, #3
 8001dbc:	fbb3 f0f0 	udiv	r0, r3, r0
          break;
 8001dc0:	4770      	bx	lr
  uint32_t frequency = 0U;
 8001dc2:	2000      	movs	r0, #0
      }
      break;
    }
  }
  return frequency;
}
 8001dc4:	4770      	bx	lr
 8001dc6:	bf00      	nop
 8001dc8:	40023800 	.word	0x40023800
 8001dcc:	00bb8000 	.word	0x00bb8000
 8001dd0:	007a1200 	.word	0x007a1200
 8001dd4:	00f42400 	.word	0x00f42400

08001dd8 <HAL_SPI_Init>:
  * @param  hspi pointer to a SPI_HandleTypeDef structure that contains
  *               the configuration information for SPI module.
  * @retval HAL status
  */
HAL_StatusTypeDef HAL_SPI_Init(SPI_HandleTypeDef *hspi)
{
 8001dd8:	b510      	push	{r4, lr}
  /* Check the SPI handle allocation */
  if (hspi == NULL)
 8001dda:	4604      	mov	r4, r0
 8001ddc:	2800      	cmp	r0, #0
 8001dde:	d036      	beq.n	8001e4e <HAL_SPI_Init+0x76>
  if (hspi->Init.CRCCalculation == SPI_CRCCALCULATION_ENABLE)
  {
    assert_param(IS_SPI_CRC_POLYNOMIAL(hspi->Init.CRCPolynomial));
  }
#else
  hspi->Init.CRCCalculation = SPI_CRCCALCULATION_DISABLE;
 8001de0:	2300      	movs	r3, #0
 8001de2:	6283      	str	r3, [r0, #40]	; 0x28
#endif /* USE_SPI_CRC */

  if (hspi->State == HAL_SPI_STATE_RESET)
 8001de4:	f890 3051 	ldrb.w	r3, [r0, #81]	; 0x51
 8001de8:	f003 02ff 	and.w	r2, r3, #255	; 0xff
 8001dec:	b91b      	cbnz	r3, 8001df6 <HAL_SPI_Init+0x1e>
  {
    /* Allocate lock resource and initialize it */
    hspi->Lock = HAL_UNLOCKED;
 8001dee:	f880 2050 	strb.w	r2, [r0, #80]	; 0x50

    /* Init the low level hardware : GPIO, CLOCK, NVIC... */
    hspi->MspInitCallback(hspi);
#else
    /* Init the low level hardware : GPIO, CLOCK, NVIC... */
    HAL_SPI_MspInit(hspi);
 8001df2:	f001 fdc9 	bl	8003988 <HAL_SPI_MspInit>
  }

  hspi->State = HAL_SPI_STATE_BUSY;

  /* Disable the selected SPI peripheral */
  __HAL_SPI_DISABLE(hspi);
 8001df6:	6821      	ldr	r1, [r4, #0]

  /*----------------------- SPIx CR1 & CR2 Configuration ---------------------*/
  /* Configure : SPI Mode, Communication Mode, Data size, Clock polarity and phase, NSS management,
  Communication speed, First bit and CRC calculation state */
  WRITE_REG(hspi->Instance->CR1, (hspi->Init.Mode | hspi->Init.Direction | hspi->Init.DataSize |
 8001df8:	68a0      	ldr	r0, [r4, #8]
 8001dfa:	69a2      	ldr	r2, [r4, #24]
  hspi->State = HAL_SPI_STATE_BUSY;
 8001dfc:	2302      	movs	r3, #2
 8001dfe:	f884 3051 	strb.w	r3, [r4, #81]	; 0x51
  __HAL_SPI_DISABLE(hspi);
 8001e02:	680b      	ldr	r3, [r1, #0]
 8001e04:	f023 0340 	bic.w	r3, r3, #64	; 0x40
 8001e08:	600b      	str	r3, [r1, #0]
  WRITE_REG(hspi->Instance->CR1, (hspi->Init.Mode | hspi->Init.Direction | hspi->Init.DataSize |
 8001e0a:	6863      	ldr	r3, [r4, #4]
 8001e0c:	4303      	orrs	r3, r0
 8001e0e:	68e0      	ldr	r0, [r4, #12]
 8001e10:	4303      	orrs	r3, r0
 8001e12:	6920      	ldr	r0, [r4, #16]
 8001e14:	4303      	orrs	r3, r0
 8001e16:	6960      	ldr	r0, [r4, #20]
 8001e18:	4303      	orrs	r3, r0
 8001e1a:	69e0      	ldr	r0, [r4, #28]
 8001e1c:	4303      	orrs	r3, r0
 8001e1e:	6a20      	ldr	r0, [r4, #32]
 8001e20:	4303      	orrs	r3, r0
 8001e22:	6aa0      	ldr	r0, [r4, #40]	; 0x28
 8001e24:	4303      	orrs	r3, r0
 8001e26:	f402 7000 	and.w	r0, r2, #512	; 0x200
 8001e2a:	4303      	orrs	r3, r0
 8001e2c:	600b      	str	r3, [r1, #0]
                                  hspi->Init.CLKPolarity | hspi->Init.CLKPhase | (hspi->Init.NSS & SPI_CR1_SSM) |
                                  hspi->Init.BaudRatePrescaler | hspi->Init.FirstBit  | hspi->Init.CRCCalculation));

  /* Configure : NSS management, TI Mode */
  WRITE_REG(hspi->Instance->CR2, (((hspi->Init.NSS >> 16U) & SPI_CR2_SSOE) | hspi->Init.TIMode));
 8001e2e:	0c12      	lsrs	r2, r2, #16
 8001e30:	6a63      	ldr	r3, [r4, #36]	; 0x24
 8001e32:	f002 0204 	and.w	r2, r2, #4
 8001e36:	431a      	orrs	r2, r3
 8001e38:	604a      	str	r2, [r1, #4]
  }
#endif /* USE_SPI_CRC */

#if defined(SPI_I2SCFGR_I2SMOD)
  /* Activate the SPI mode (Make sure that I2SMOD bit in I2SCFGR register is reset) */
  CLEAR_BIT(hspi->Instance->I2SCFGR, SPI_I2SCFGR_I2SMOD);
 8001e3a:	69cb      	ldr	r3, [r1, #28]
 8001e3c:	f423 6300 	bic.w	r3, r3, #2048	; 0x800
 8001e40:	61cb      	str	r3, [r1, #28]
#endif /* SPI_I2SCFGR_I2SMOD */

  hspi->ErrorCode = HAL_SPI_ERROR_NONE;
 8001e42:	2000      	movs	r0, #0
  hspi->State     = HAL_SPI_STATE_READY;
 8001e44:	2301      	movs	r3, #1
  hspi->ErrorCode = HAL_SPI_ERROR_NONE;
 8001e46:	6560      	str	r0, [r4, #84]	; 0x54
  hspi->State     = HAL_SPI_STATE_READY;
 8001e48:	f884 3051 	strb.w	r3, [r4, #81]	; 0x51

  return HAL_OK;
 8001e4c:	bd10      	pop	{r4, pc}
    return HAL_ERROR;
 8001e4e:	2001      	movs	r0, #1
}
 8001e50:	bd10      	pop	{r4, pc}

08001e52 <HAL_TIM_Encoder_Start>:
  *            @arg TIM_CHANNEL_2: TIM Channel 2 selected
  *            @arg TIM_CHANNEL_ALL: TIM Channel 1 and TIM Channel 2 are selected
  * @retval HAL status
  */
HAL_StatusTypeDef HAL_TIM_Encoder_Start(TIM_HandleTypeDef *htim, uint32_t Channel)
{
 8001e52:	6803      	ldr	r3, [r0, #0]
  /* Check the parameters */
  assert_param(IS_TIM_CC2_INSTANCE(htim->Instance));

  /* Enable the encoder interface channels */
  switch (Channel)
 8001e54:	b189      	cbz	r1, 8001e7a <HAL_TIM_Encoder_Start+0x28>
 8001e56:	2904      	cmp	r1, #4
 8001e58:	d007      	beq.n	8001e6a <HAL_TIM_Encoder_Start+0x18>
  assert_param(IS_TIM_CHANNELS(Channel));

  tmp = TIM_CCER_CC1E << (Channel & 0x1FU); /* 0x1FU = 31 bits max shift */

  /* Reset the CCxE Bit */
  TIMx->CCER &= ~tmp;
 8001e5a:	6a1a      	ldr	r2, [r3, #32]
 8001e5c:	f022 0201 	bic.w	r2, r2, #1
 8001e60:	621a      	str	r2, [r3, #32]

  /* Set or reset the CCxE Bit */
  TIMx->CCER |= (uint32_t)(ChannelState << (Channel & 0x1FU)); /* 0x1FU = 31 bits max shift */
 8001e62:	6a1a      	ldr	r2, [r3, #32]
 8001e64:	f042 0201 	orr.w	r2, r2, #1
 8001e68:	621a      	str	r2, [r3, #32]
  TIMx->CCER &= ~tmp;
 8001e6a:	6a1a      	ldr	r2, [r3, #32]
 8001e6c:	f022 0210 	bic.w	r2, r2, #16
 8001e70:	621a      	str	r2, [r3, #32]
  TIMx->CCER |= (uint32_t)(ChannelState << (Channel & 0x1FU)); /* 0x1FU = 31 bits max shift */
 8001e72:	6a1a      	ldr	r2, [r3, #32]
 8001e74:	f042 0210 	orr.w	r2, r2, #16
 8001e78:	e006      	b.n	8001e88 <HAL_TIM_Encoder_Start+0x36>
  TIMx->CCER &= ~tmp;
 8001e7a:	6a1a      	ldr	r2, [r3, #32]
 8001e7c:	f022 0201 	bic.w	r2, r2, #1
 8001e80:	621a      	str	r2, [r3, #32]
  TIMx->CCER |= (uint32_t)(ChannelState << (Channel & 0x1FU)); /* 0x1FU = 31 bits max shift */
 8001e82:	6a1a      	ldr	r2, [r3, #32]
 8001e84:	f042 0201 	orr.w	r2, r2, #1
 8001e88:	621a      	str	r2, [r3, #32]
  __HAL_TIM_ENABLE(htim);
 8001e8a:	681a      	ldr	r2, [r3, #0]
 8001e8c:	f042 0201 	orr.w	r2, r2, #1
 8001e90:	601a      	str	r2, [r3, #0]
}
 8001e92:	2000      	movs	r0, #0
 8001e94:	4770      	bx	lr
	...

08001e98 <TIM_Base_SetConfig>:
  if (IS_TIM_COUNTER_MODE_SELECT_INSTANCE(TIMx))
 8001e98:	4a30      	ldr	r2, [pc, #192]	; (8001f5c <TIM_Base_SetConfig+0xc4>)
  tmpcr1 = TIMx->CR1;
 8001e9a:	6803      	ldr	r3, [r0, #0]
  if (IS_TIM_COUNTER_MODE_SELECT_INSTANCE(TIMx))
 8001e9c:	4290      	cmp	r0, r2
 8001e9e:	d012      	beq.n	8001ec6 <TIM_Base_SetConfig+0x2e>
 8001ea0:	f1b0 4f80 	cmp.w	r0, #1073741824	; 0x40000000
 8001ea4:	d00f      	beq.n	8001ec6 <TIM_Base_SetConfig+0x2e>
 8001ea6:	f5a2 427c 	sub.w	r2, r2, #64512	; 0xfc00
 8001eaa:	4290      	cmp	r0, r2
 8001eac:	d00b      	beq.n	8001ec6 <TIM_Base_SetConfig+0x2e>
 8001eae:	f502 6280 	add.w	r2, r2, #1024	; 0x400
 8001eb2:	4290      	cmp	r0, r2
 8001eb4:	d007      	beq.n	8001ec6 <TIM_Base_SetConfig+0x2e>
 8001eb6:	f502 6280 	add.w	r2, r2, #1024	; 0x400
 8001eba:	4290      	cmp	r0, r2
 8001ebc:	d003      	beq.n	8001ec6 <TIM_Base_SetConfig+0x2e>
 8001ebe:	f502 4278 	add.w	r2, r2, #63488	; 0xf800
 8001ec2:	4290      	cmp	r0, r2
 8001ec4:	d119      	bne.n	8001efa <TIM_Base_SetConfig+0x62>
    tmpcr1 |= Structure->CounterMode;
 8001ec6:	684a      	ldr	r2, [r1, #4]
    tmpcr1 &= ~(TIM_CR1_DIR | TIM_CR1_CMS);
 8001ec8:	f023 0370 	bic.w	r3, r3, #112	; 0x70
    tmpcr1 |= Structure->CounterMode;
 8001ecc:	4313      	orrs	r3, r2
  if (IS_TIM_CLOCK_DIVISION_INSTANCE(TIMx))
 8001ece:	4a23      	ldr	r2, [pc, #140]	; (8001f5c <TIM_Base_SetConfig+0xc4>)
 8001ed0:	4290      	cmp	r0, r2
 8001ed2:	d029      	beq.n	8001f28 <TIM_Base_SetConfig+0x90>
 8001ed4:	f1b0 4f80 	cmp.w	r0, #1073741824	; 0x40000000
 8001ed8:	d026      	beq.n	8001f28 <TIM_Base_SetConfig+0x90>
 8001eda:	f5a2 427c 	sub.w	r2, r2, #64512	; 0xfc00
 8001ede:	4290      	cmp	r0, r2
 8001ee0:	d022      	beq.n	8001f28 <TIM_Base_SetConfig+0x90>
 8001ee2:	f502 6280 	add.w	r2, r2, #1024	; 0x400
 8001ee6:	4290      	cmp	r0, r2
 8001ee8:	d01e      	beq.n	8001f28 <TIM_Base_SetConfig+0x90>
 8001eea:	f502 6280 	add.w	r2, r2, #1024	; 0x400
 8001eee:	4290      	cmp	r0, r2
 8001ef0:	d01a      	beq.n	8001f28 <TIM_Base_SetConfig+0x90>
 8001ef2:	f502 4278 	add.w	r2, r2, #63488	; 0xf800
 8001ef6:	4290      	cmp	r0, r2
 8001ef8:	d016      	beq.n	8001f28 <TIM_Base_SetConfig+0x90>
 8001efa:	4a19      	ldr	r2, [pc, #100]	; (8001f60 <TIM_Base_SetConfig+0xc8>)
 8001efc:	4290      	cmp	r0, r2
 8001efe:	d013      	beq.n	8001f28 <TIM_Base_SetConfig+0x90>
 8001f00:	f502 6280 	add.w	r2, r2, #1024	; 0x400
 8001f04:	4290      	cmp	r0, r2
 8001f06:	d00f      	beq.n	8001f28 <TIM_Base_SetConfig+0x90>
 8001f08:	f502 6280 	add.w	r2, r2, #1024	; 0x400
 8001f0c:	4290      	cmp	r0, r2
 8001f0e:	d00b      	beq.n	8001f28 <TIM_Base_SetConfig+0x90>
 8001f10:	f5a2 3298 	sub.w	r2, r2, #77824	; 0x13000
 8001f14:	4290      	cmp	r0, r2
 8001f16:	d007      	beq.n	8001f28 <TIM_Base_SetConfig+0x90>
 8001f18:	f502 6280 	add.w	r2, r2, #1024	; 0x400
 8001f1c:	4290      	cmp	r0, r2
 8001f1e:	d003      	beq.n	8001f28 <TIM_Base_SetConfig+0x90>
 8001f20:	f502 6280 	add.w	r2, r2, #1024	; 0x400
 8001f24:	4290      	cmp	r0, r2
 8001f26:	d103      	bne.n	8001f30 <TIM_Base_SetConfig+0x98>
    tmpcr1 |= (uint32_t)Structure->ClockDivision;
 8001f28:	68ca      	ldr	r2, [r1, #12]
    tmpcr1 &= ~TIM_CR1_CKD;
 8001f2a:	f423 7340 	bic.w	r3, r3, #768	; 0x300
    tmpcr1 |= (uint32_t)Structure->ClockDivision;
 8001f2e:	4313      	orrs	r3, r2
  MODIFY_REG(tmpcr1, TIM_CR1_ARPE, Structure->AutoReloadPreload);
 8001f30:	694a      	ldr	r2, [r1, #20]
 8001f32:	f023 0380 	bic.w	r3, r3, #128	; 0x80
 8001f36:	4313      	orrs	r3, r2
  TIMx->CR1 = tmpcr1;
 8001f38:	6003      	str	r3, [r0, #0]
  TIMx->ARR = (uint32_t)Structure->Period ;
 8001f3a:	688b      	ldr	r3, [r1, #8]
 8001f3c:	62c3      	str	r3, [r0, #44]	; 0x2c
  TIMx->PSC = Structure->Prescaler;
 8001f3e:	680b      	ldr	r3, [r1, #0]
 8001f40:	6283      	str	r3, [r0, #40]	; 0x28
  if (IS_TIM_REPETITION_COUNTER_INSTANCE(TIMx))
 8001f42:	4b06      	ldr	r3, [pc, #24]	; (8001f5c <TIM_Base_SetConfig+0xc4>)
 8001f44:	4298      	cmp	r0, r3
 8001f46:	d003      	beq.n	8001f50 <TIM_Base_SetConfig+0xb8>
 8001f48:	f503 6380 	add.w	r3, r3, #1024	; 0x400
 8001f4c:	4298      	cmp	r0, r3
 8001f4e:	d101      	bne.n	8001f54 <TIM_Base_SetConfig+0xbc>
    TIMx->RCR = Structure->RepetitionCounter;
 8001f50:	690b      	ldr	r3, [r1, #16]
 8001f52:	6303      	str	r3, [r0, #48]	; 0x30
  TIMx->EGR = TIM_EGR_UG;
 8001f54:	2301      	movs	r3, #1
 8001f56:	6143      	str	r3, [r0, #20]
 8001f58:	4770      	bx	lr
 8001f5a:	bf00      	nop
 8001f5c:	40010000 	.word	0x40010000
 8001f60:	40014000 	.word	0x40014000

08001f64 <HAL_TIM_Encoder_Init>:
{
 8001f64:	b5f8      	push	{r3, r4, r5, r6, r7, lr}
 8001f66:	460c      	mov	r4, r1
  if (htim == NULL)
 8001f68:	4605      	mov	r5, r0
 8001f6a:	2800      	cmp	r0, #0
 8001f6c:	d043      	beq.n	8001ff6 <HAL_TIM_Encoder_Init+0x92>
  if (htim->State == HAL_TIM_STATE_RESET)
 8001f6e:	f890 303d 	ldrb.w	r3, [r0, #61]	; 0x3d
 8001f72:	f003 02ff 	and.w	r2, r3, #255	; 0xff
 8001f76:	b91b      	cbnz	r3, 8001f80 <HAL_TIM_Encoder_Init+0x1c>
    htim->Lock = HAL_UNLOCKED;
 8001f78:	f880 203c 	strb.w	r2, [r0, #60]	; 0x3c
    HAL_TIM_Encoder_MspInit(htim);
 8001f7c:	f001 fdf4 	bl	8003b68 <HAL_TIM_Encoder_MspInit>
  htim->Instance->SMCR &= ~(TIM_SMCR_SMS | TIM_SMCR_ECE);
 8001f80:	4629      	mov	r1, r5
  htim->State = HAL_TIM_STATE_BUSY;
 8001f82:	2302      	movs	r3, #2
  htim->Instance->SMCR &= ~(TIM_SMCR_SMS | TIM_SMCR_ECE);
 8001f84:	f851 0b04 	ldr.w	r0, [r1], #4
  htim->State = HAL_TIM_STATE_BUSY;
 8001f88:	f885 303d 	strb.w	r3, [r5, #61]	; 0x3d
  htim->Instance->SMCR &= ~(TIM_SMCR_SMS | TIM_SMCR_ECE);
 8001f8c:	6883      	ldr	r3, [r0, #8]
 8001f8e:	f423 4380 	bic.w	r3, r3, #16384	; 0x4000
 8001f92:	f023 0307 	bic.w	r3, r3, #7
 8001f96:	6083      	str	r3, [r0, #8]
  TIM_Base_SetConfig(htim->Instance, &htim->Init);
 8001f98:	f7ff ff7e 	bl	8001e98 <TIM_Base_SetConfig>
  tmpsmcr = htim->Instance->SMCR;
 8001f9c:	6828      	ldr	r0, [r5, #0]
  tmpsmcr |= sConfig->EncoderMode;
 8001f9e:	6823      	ldr	r3, [r4, #0]
  tmpsmcr = htim->Instance->SMCR;
 8001fa0:	6886      	ldr	r6, [r0, #8]
  tmpccmr1 = htim->Instance->CCMR1;
 8001fa2:	6982      	ldr	r2, [r0, #24]
  tmpccmr1 |= (sConfig->IC1Selection | (sConfig->IC2Selection << 8U));
 8001fa4:	68a1      	ldr	r1, [r4, #8]
  tmpccer = htim->Instance->CCER;
 8001fa6:	6a07      	ldr	r7, [r0, #32]
  tmpsmcr |= sConfig->EncoderMode;
 8001fa8:	431e      	orrs	r6, r3
  tmpccmr1 |= (sConfig->IC1Selection | (sConfig->IC2Selection << 8U));
 8001faa:	69a3      	ldr	r3, [r4, #24]
  tmpccmr1 &= ~(TIM_CCMR1_CC1S | TIM_CCMR1_CC2S);
 8001fac:	f422 7240 	bic.w	r2, r2, #768	; 0x300
 8001fb0:	f022 0203 	bic.w	r2, r2, #3
  tmpccmr1 |= (sConfig->IC1Selection | (sConfig->IC2Selection << 8U));
 8001fb4:	ea41 2303 	orr.w	r3, r1, r3, lsl #8
 8001fb8:	4313      	orrs	r3, r2
  tmpccmr1 &= ~(TIM_CCMR1_IC1F | TIM_CCMR1_IC2F);
 8001fba:	f423 427c 	bic.w	r2, r3, #64512	; 0xfc00
  tmpccmr1 |= (sConfig->IC1Filter << 4U) | (sConfig->IC2Filter << 12U);
 8001fbe:	6923      	ldr	r3, [r4, #16]
  tmpccmr1 |= sConfig->IC1Prescaler | (sConfig->IC2Prescaler << 8U);
 8001fc0:	69e1      	ldr	r1, [r4, #28]
  tmpccmr1 |= (sConfig->IC1Filter << 4U) | (sConfig->IC2Filter << 12U);
 8001fc2:	011b      	lsls	r3, r3, #4
 8001fc4:	ea43 2301 	orr.w	r3, r3, r1, lsl #8
 8001fc8:	68e1      	ldr	r1, [r4, #12]
 8001fca:	430b      	orrs	r3, r1
 8001fcc:	6a21      	ldr	r1, [r4, #32]
  tmpccmr1 &= ~(TIM_CCMR1_IC1F | TIM_CCMR1_IC2F);
 8001fce:	f022 02fc 	bic.w	r2, r2, #252	; 0xfc
  tmpccmr1 |= (sConfig->IC1Filter << 4U) | (sConfig->IC2Filter << 12U);
 8001fd2:	ea43 3301 	orr.w	r3, r3, r1, lsl #12
 8001fd6:	4313      	orrs	r3, r2
  tmpccer |= sConfig->IC1Polarity | (sConfig->IC2Polarity << 4U);
 8001fd8:	6961      	ldr	r1, [r4, #20]
  tmpccer &= ~(TIM_CCER_CC1NP | TIM_CCER_CC2NP);
 8001fda:	f027 02aa 	bic.w	r2, r7, #170	; 0xaa
  tmpccer |= sConfig->IC1Polarity | (sConfig->IC2Polarity << 4U);
 8001fde:	6867      	ldr	r7, [r4, #4]
  htim->Instance->SMCR = tmpsmcr;
 8001fe0:	6086      	str	r6, [r0, #8]
  tmpccer |= sConfig->IC1Polarity | (sConfig->IC2Polarity << 4U);
 8001fe2:	ea47 1701 	orr.w	r7, r7, r1, lsl #4
  htim->Instance->CCMR1 = tmpccmr1;
 8001fe6:	6183      	str	r3, [r0, #24]
  tmpccer |= sConfig->IC1Polarity | (sConfig->IC2Polarity << 4U);
 8001fe8:	4317      	orrs	r7, r2
  htim->State = HAL_TIM_STATE_READY;
 8001fea:	2301      	movs	r3, #1
  htim->Instance->CCER = tmpccer;
 8001fec:	6207      	str	r7, [r0, #32]
  htim->State = HAL_TIM_STATE_READY;
 8001fee:	f885 303d 	strb.w	r3, [r5, #61]	; 0x3d
  return HAL_OK;
 8001ff2:	2000      	movs	r0, #0
 8001ff4:	bdf8      	pop	{r3, r4, r5, r6, r7, pc}
    return HAL_ERROR;
 8001ff6:	2001      	movs	r0, #1
}
 8001ff8:	bdf8      	pop	{r3, r4, r5, r6, r7, pc}
	...

08001ffc <HAL_TIMEx_MasterConfigSynchronization>:
  assert_param(IS_TIM_MASTER_INSTANCE(htim->Instance));
  assert_param(IS_TIM_TRGO_SOURCE(sMasterConfig->MasterOutputTrigger));
  assert_param(IS_TIM_MSM_STATE(sMasterConfig->MasterSlaveMode));

  /* Check input state */
  __HAL_LOCK(htim);
 8001ffc:	f890 303c 	ldrb.w	r3, [r0, #60]	; 0x3c
 8002000:	2b01      	cmp	r3, #1
{
 8002002:	b530      	push	{r4, r5, lr}
 8002004:	f04f 0302 	mov.w	r3, #2
  __HAL_LOCK(htim);
 8002008:	d035      	beq.n	8002076 <HAL_TIMEx_MasterConfigSynchronization+0x7a>

  /* Change the handler state */
  htim->State = HAL_TIM_STATE_BUSY;
 800200a:	f880 303d 	strb.w	r3, [r0, #61]	; 0x3d

  /* Get the TIMx CR2 register value */
  tmpcr2 = htim->Instance->CR2;
 800200e:	6803      	ldr	r3, [r0, #0]
  tmpsmcr = htim->Instance->SMCR;

  /* Reset the MMS Bits */
  tmpcr2 &= ~TIM_CR2_MMS;
  /* Select the TRGO source */
  tmpcr2 |=  sMasterConfig->MasterOutputTrigger;
 8002010:	680d      	ldr	r5, [r1, #0]
  tmpcr2 = htim->Instance->CR2;
 8002012:	685c      	ldr	r4, [r3, #4]
  tmpcr2 &= ~TIM_CR2_MMS;
 8002014:	f024 0470 	bic.w	r4, r4, #112	; 0x70
  __HAL_LOCK(htim);
 8002018:	2201      	movs	r2, #1
  tmpcr2 |=  sMasterConfig->MasterOutputTrigger;
 800201a:	432c      	orrs	r4, r5
  __HAL_LOCK(htim);
 800201c:	f880 203c 	strb.w	r2, [r0, #60]	; 0x3c
  tmpsmcr = htim->Instance->SMCR;
 8002020:	689a      	ldr	r2, [r3, #8]

  /* Update TIMx CR2 */
  htim->Instance->CR2 = tmpcr2;
 8002022:	605c      	str	r4, [r3, #4]

  if (IS_TIM_SLAVE_INSTANCE(htim->Instance))
 8002024:	4c15      	ldr	r4, [pc, #84]	; (800207c <HAL_TIMEx_MasterConfigSynchronization+0x80>)
 8002026:	42a3      	cmp	r3, r4
 8002028:	d01a      	beq.n	8002060 <HAL_TIMEx_MasterConfigSynchronization+0x64>
 800202a:	f1b3 4f80 	cmp.w	r3, #1073741824	; 0x40000000
 800202e:	d017      	beq.n	8002060 <HAL_TIMEx_MasterConfigSynchronization+0x64>
 8002030:	f5a4 447c 	sub.w	r4, r4, #64512	; 0xfc00
 8002034:	42a3      	cmp	r3, r4
 8002036:	d013      	beq.n	8002060 <HAL_TIMEx_MasterConfigSynchronization+0x64>
 8002038:	f504 6480 	add.w	r4, r4, #1024	; 0x400
 800203c:	42a3      	cmp	r3, r4
 800203e:	d00f      	beq.n	8002060 <HAL_TIMEx_MasterConfigSynchronization+0x64>
 8002040:	f504 6480 	add.w	r4, r4, #1024	; 0x400
 8002044:	42a3      	cmp	r3, r4
 8002046:	d00b      	beq.n	8002060 <HAL_TIMEx_MasterConfigSynchronization+0x64>
 8002048:	f504 4478 	add.w	r4, r4, #63488	; 0xf800
 800204c:	42a3      	cmp	r3, r4
 800204e:	d007      	beq.n	8002060 <HAL_TIMEx_MasterConfigSynchronization+0x64>
 8002050:	f504 5470 	add.w	r4, r4, #15360	; 0x3c00
 8002054:	42a3      	cmp	r3, r4
 8002056:	d003      	beq.n	8002060 <HAL_TIMEx_MasterConfigSynchronization+0x64>
 8002058:	f5a4 3494 	sub.w	r4, r4, #75776	; 0x12800
 800205c:	42a3      	cmp	r3, r4
 800205e:	d104      	bne.n	800206a <HAL_TIMEx_MasterConfigSynchronization+0x6e>
  {
    /* Reset the MSM Bit */
    tmpsmcr &= ~TIM_SMCR_MSM;
    /* Set master mode */
    tmpsmcr |= sMasterConfig->MasterSlaveMode;
 8002060:	6849      	ldr	r1, [r1, #4]
    tmpsmcr &= ~TIM_SMCR_MSM;
 8002062:	f022 0280 	bic.w	r2, r2, #128	; 0x80
    tmpsmcr |= sMasterConfig->MasterSlaveMode;
 8002066:	430a      	orrs	r2, r1

    /* Update TIMx SMCR */
    htim->Instance->SMCR = tmpsmcr;
 8002068:	609a      	str	r2, [r3, #8]
  }

  /* Change the htim state */
  htim->State = HAL_TIM_STATE_READY;
 800206a:	2301      	movs	r3, #1
 800206c:	f880 303d 	strb.w	r3, [r0, #61]	; 0x3d

  __HAL_UNLOCK(htim);
 8002070:	2300      	movs	r3, #0
 8002072:	f880 303c 	strb.w	r3, [r0, #60]	; 0x3c
  __HAL_LOCK(htim);
 8002076:	4618      	mov	r0, r3

  return HAL_OK;
}
 8002078:	bd30      	pop	{r4, r5, pc}
 800207a:	bf00      	nop
 800207c:	40010000 	.word	0x40010000

08002080 <USB_CoreReset>:
  * @brief  Reset the USB Core (needed after USB clock settings change)
  * @param  USBx  Selected device
  * @retval HAL status
  */
static HAL_StatusTypeDef USB_CoreReset(USB_OTG_GlobalTypeDef *USBx)
{
 8002080:	4b0a      	ldr	r3, [pc, #40]	; (80020ac <USB_CoreReset+0x2c>)
  uint32_t count = 0U;

  /* Wait for AHB master IDLE state. */
  do
  {
    if (++count > 200000U)
 8002082:	3b01      	subs	r3, #1
 8002084:	d101      	bne.n	800208a <USB_CoreReset+0xa>
    {
      return HAL_TIMEOUT;
 8002086:	2003      	movs	r0, #3
 8002088:	4770      	bx	lr
    }
  }
  while ((USBx->GRSTCTL & USB_OTG_GRSTCTL_AHBIDL) == 0U);
 800208a:	6902      	ldr	r2, [r0, #16]
 800208c:	2a00      	cmp	r2, #0
 800208e:	daf8      	bge.n	8002082 <USB_CoreReset+0x2>

  /* Core Soft Reset */
  count = 0U;
  USBx->GRSTCTL |= USB_OTG_GRSTCTL_CSRST;
 8002090:	6903      	ldr	r3, [r0, #16]
 8002092:	4a06      	ldr	r2, [pc, #24]	; (80020ac <USB_CoreReset+0x2c>)
 8002094:	f043 0301 	orr.w	r3, r3, #1
 8002098:	6103      	str	r3, [r0, #16]

  do
  {
    if (++count > 200000U)
 800209a:	3a01      	subs	r2, #1
 800209c:	d0f3      	beq.n	8002086 <USB_CoreReset+0x6>
    {
      return HAL_TIMEOUT;
    }
  }
  while ((USBx->GRSTCTL & USB_OTG_GRSTCTL_CSRST) == USB_OTG_GRSTCTL_CSRST);
 800209e:	6903      	ldr	r3, [r0, #16]
 80020a0:	f013 0301 	ands.w	r3, r3, #1
 80020a4:	d1f9      	bne.n	800209a <USB_CoreReset+0x1a>

  return HAL_OK;
 80020a6:	4618      	mov	r0, r3
}
 80020a8:	4770      	bx	lr
 80020aa:	bf00      	nop
 80020ac:	00030d41 	.word	0x00030d41

080020b0 <USB_CoreInit>:
{
 80020b0:	b084      	sub	sp, #16
 80020b2:	b538      	push	{r3, r4, r5, lr}
 80020b4:	ad05      	add	r5, sp, #20
 80020b6:	e885 000e 	stmia.w	r5, {r1, r2, r3}
  if (cfg.phy_itface == USB_OTG_ULPI_PHY)
 80020ba:	9b0a      	ldr	r3, [sp, #40]	; 0x28
 80020bc:	2b01      	cmp	r3, #1
{
 80020be:	4604      	mov	r4, r0
  if (cfg.phy_itface == USB_OTG_ULPI_PHY)
 80020c0:	d125      	bne.n	800210e <USB_CoreInit+0x5e>
    USBx->GCCFG &= ~(USB_OTG_GCCFG_PWRDWN);
 80020c2:	6b83      	ldr	r3, [r0, #56]	; 0x38
 80020c4:	f423 3380 	bic.w	r3, r3, #65536	; 0x10000
 80020c8:	6383      	str	r3, [r0, #56]	; 0x38
    USBx->GUSBCFG &= ~(USB_OTG_GUSBCFG_TSDPS | USB_OTG_GUSBCFG_ULPIFSLS | USB_OTG_GUSBCFG_PHYSEL);
 80020ca:	68c3      	ldr	r3, [r0, #12]
 80020cc:	f423 0384 	bic.w	r3, r3, #4325376	; 0x420000
 80020d0:	f023 0340 	bic.w	r3, r3, #64	; 0x40
 80020d4:	60c3      	str	r3, [r0, #12]
    USBx->GUSBCFG &= ~(USB_OTG_GUSBCFG_ULPIEVBUSD | USB_OTG_GUSBCFG_ULPIEVBUSI);
 80020d6:	68c3      	ldr	r3, [r0, #12]
 80020d8:	f423 1340 	bic.w	r3, r3, #3145728	; 0x300000
 80020dc:	60c3      	str	r3, [r0, #12]
    if (cfg.use_external_vbus == 1U)
 80020de:	9b11      	ldr	r3, [sp, #68]	; 0x44
 80020e0:	2b01      	cmp	r3, #1
      USBx->GUSBCFG |= USB_OTG_GUSBCFG_ULPIEVBUSD;
 80020e2:	bf02      	ittt	eq
 80020e4:	68c3      	ldreq	r3, [r0, #12]
 80020e6:	f443 1380 	orreq.w	r3, r3, #1048576	; 0x100000
 80020ea:	60c3      	streq	r3, [r0, #12]
    ret = USB_CoreReset(USBx);
 80020ec:	f7ff ffc8 	bl	8002080 <USB_CoreReset>
  if (cfg.dma_enable == 1U)
 80020f0:	9b08      	ldr	r3, [sp, #32]
 80020f2:	2b01      	cmp	r3, #1
 80020f4:	d107      	bne.n	8002106 <USB_CoreInit+0x56>
    USBx->GAHBCFG |= USB_OTG_GAHBCFG_HBSTLEN_2;
 80020f6:	68a3      	ldr	r3, [r4, #8]
 80020f8:	f043 0306 	orr.w	r3, r3, #6
 80020fc:	60a3      	str	r3, [r4, #8]
    USBx->GAHBCFG |= USB_OTG_GAHBCFG_DMAEN;
 80020fe:	68a3      	ldr	r3, [r4, #8]
 8002100:	f043 0320 	orr.w	r3, r3, #32
 8002104:	60a3      	str	r3, [r4, #8]
}
 8002106:	e8bd 4038 	ldmia.w	sp!, {r3, r4, r5, lr}
 800210a:	b004      	add	sp, #16
 800210c:	4770      	bx	lr
    USBx->GUSBCFG |= USB_OTG_GUSBCFG_PHYSEL;
 800210e:	68c3      	ldr	r3, [r0, #12]
 8002110:	f043 0340 	orr.w	r3, r3, #64	; 0x40
 8002114:	60c3      	str	r3, [r0, #12]
    ret = USB_CoreReset(USBx);
 8002116:	f7ff ffb3 	bl	8002080 <USB_CoreReset>
    if (cfg.battery_charging_enable == 0U)
 800211a:	9b0e      	ldr	r3, [sp, #56]	; 0x38
 800211c:	b923      	cbnz	r3, 8002128 <USB_CoreInit+0x78>
      USBx->GCCFG |= USB_OTG_GCCFG_PWRDWN;
 800211e:	6ba3      	ldr	r3, [r4, #56]	; 0x38
 8002120:	f443 3380 	orr.w	r3, r3, #65536	; 0x10000
      USBx->GCCFG &= ~(USB_OTG_GCCFG_PWRDWN);
 8002124:	63a3      	str	r3, [r4, #56]	; 0x38
 8002126:	e7e3      	b.n	80020f0 <USB_CoreInit+0x40>
 8002128:	6ba3      	ldr	r3, [r4, #56]	; 0x38
 800212a:	f423 3380 	bic.w	r3, r3, #65536	; 0x10000
 800212e:	e7f9      	b.n	8002124 <USB_CoreInit+0x74>

08002130 <USB_EnableGlobalInt>:
  USBx->GAHBCFG |= USB_OTG_GAHBCFG_GINT;
 8002130:	6883      	ldr	r3, [r0, #8]
 8002132:	f043 0301 	orr.w	r3, r3, #1
 8002136:	6083      	str	r3, [r0, #8]
}
 8002138:	2000      	movs	r0, #0
 800213a:	4770      	bx	lr

0800213c <USB_DisableGlobalInt>:
  USBx->GAHBCFG &= ~USB_OTG_GAHBCFG_GINT;
 800213c:	6883      	ldr	r3, [r0, #8]
 800213e:	f023 0301 	bic.w	r3, r3, #1
 8002142:	6083      	str	r3, [r0, #8]
}
 8002144:	2000      	movs	r0, #0
 8002146:	4770      	bx	lr

08002148 <USB_SetCurrentMode>:
{
 8002148:	b508      	push	{r3, lr}
  USBx->GUSBCFG &= ~(USB_OTG_GUSBCFG_FHMOD | USB_OTG_GUSBCFG_FDMOD);
 800214a:	68c3      	ldr	r3, [r0, #12]
  if (mode == USB_HOST_MODE)
 800214c:	2901      	cmp	r1, #1
  USBx->GUSBCFG &= ~(USB_OTG_GUSBCFG_FHMOD | USB_OTG_GUSBCFG_FDMOD);
 800214e:	f023 43c0 	bic.w	r3, r3, #1610612736	; 0x60000000
 8002152:	60c3      	str	r3, [r0, #12]
  if (mode == USB_HOST_MODE)
 8002154:	d108      	bne.n	8002168 <USB_SetCurrentMode+0x20>
    USBx->GUSBCFG |= USB_OTG_GUSBCFG_FHMOD;
 8002156:	68c3      	ldr	r3, [r0, #12]
 8002158:	f043 5300 	orr.w	r3, r3, #536870912	; 0x20000000
    USBx->GUSBCFG |= USB_OTG_GUSBCFG_FDMOD;
 800215c:	60c3      	str	r3, [r0, #12]
  HAL_Delay(50U);
 800215e:	2032      	movs	r0, #50	; 0x32
 8002160:	f7fe fa5e 	bl	8000620 <HAL_Delay>
  return HAL_OK;
 8002164:	2000      	movs	r0, #0
 8002166:	bd08      	pop	{r3, pc}
  else if (mode == USB_DEVICE_MODE)
 8002168:	b919      	cbnz	r1, 8002172 <USB_SetCurrentMode+0x2a>
    USBx->GUSBCFG |= USB_OTG_GUSBCFG_FDMOD;
 800216a:	68c3      	ldr	r3, [r0, #12]
 800216c:	f043 4380 	orr.w	r3, r3, #1073741824	; 0x40000000
 8002170:	e7f4      	b.n	800215c <USB_SetCurrentMode+0x14>
    return HAL_ERROR;
 8002172:	2001      	movs	r0, #1
}
 8002174:	bd08      	pop	{r3, pc}
	...

08002178 <USB_FlushTxFifo>:
  USBx->GRSTCTL = (USB_OTG_GRSTCTL_TXFFLSH | (num << 6));
 8002178:	0189      	lsls	r1, r1, #6
 800217a:	f041 0120 	orr.w	r1, r1, #32
 800217e:	4a06      	ldr	r2, [pc, #24]	; (8002198 <USB_FlushTxFifo+0x20>)
 8002180:	6101      	str	r1, [r0, #16]
    if (++count > 200000U)
 8002182:	3a01      	subs	r2, #1
 8002184:	d005      	beq.n	8002192 <USB_FlushTxFifo+0x1a>
  while ((USBx->GRSTCTL & USB_OTG_GRSTCTL_TXFFLSH) == USB_OTG_GRSTCTL_TXFFLSH);
 8002186:	6903      	ldr	r3, [r0, #16]
 8002188:	f013 0320 	ands.w	r3, r3, #32
 800218c:	d1f9      	bne.n	8002182 <USB_FlushTxFifo+0xa>
  return HAL_OK;
 800218e:	4618      	mov	r0, r3
 8002190:	4770      	bx	lr
      return HAL_TIMEOUT;
 8002192:	2003      	movs	r0, #3
}
 8002194:	4770      	bx	lr
 8002196:	bf00      	nop
 8002198:	00030d41 	.word	0x00030d41

0800219c <USB_FlushRxFifo>:
  USBx->GRSTCTL = USB_OTG_GRSTCTL_RXFFLSH;
 800219c:	2310      	movs	r3, #16
 800219e:	4a06      	ldr	r2, [pc, #24]	; (80021b8 <USB_FlushRxFifo+0x1c>)
 80021a0:	6103      	str	r3, [r0, #16]
    if (++count > 200000U)
 80021a2:	3a01      	subs	r2, #1
 80021a4:	d005      	beq.n	80021b2 <USB_FlushRxFifo+0x16>
  while ((USBx->GRSTCTL & USB_OTG_GRSTCTL_RXFFLSH) == USB_OTG_GRSTCTL_RXFFLSH);
 80021a6:	6903      	ldr	r3, [r0, #16]
 80021a8:	f013 0310 	ands.w	r3, r3, #16
 80021ac:	d1f9      	bne.n	80021a2 <USB_FlushRxFifo+0x6>
  return HAL_OK;
 80021ae:	4618      	mov	r0, r3
 80021b0:	4770      	bx	lr
      return HAL_TIMEOUT;
 80021b2:	2003      	movs	r0, #3
}
 80021b4:	4770      	bx	lr
 80021b6:	bf00      	nop
 80021b8:	00030d41 	.word	0x00030d41

080021bc <USB_WritePacket>:
{
 80021bc:	b510      	push	{r4, lr}
 80021be:	f89d 4008 	ldrb.w	r4, [sp, #8]
  if (dma == 0U)
 80021c2:	b94c      	cbnz	r4, 80021d8 <USB_WritePacket+0x1c>
    count32b = ((uint32_t)len + 3U) / 4U;
 80021c4:	3303      	adds	r3, #3
      USBx_DFIFO((uint32_t)ch_ep_num) = __UNALIGNED_UINT32_READ(pSrc);
 80021c6:	eb00 3002 	add.w	r0, r0, r2, lsl #12
 80021ca:	f023 0303 	bic.w	r3, r3, #3
 80021ce:	f500 5080 	add.w	r0, r0, #4096	; 0x1000
 80021d2:	440b      	add	r3, r1
    for (i = 0U; i < count32b; i++)
 80021d4:	4299      	cmp	r1, r3
 80021d6:	d101      	bne.n	80021dc <USB_WritePacket+0x20>
}
 80021d8:	2000      	movs	r0, #0
 80021da:	bd10      	pop	{r4, pc}
      USBx_DFIFO((uint32_t)ch_ep_num) = __UNALIGNED_UINT32_READ(pSrc);
 80021dc:	f851 2b04 	ldr.w	r2, [r1], #4
 80021e0:	6002      	str	r2, [r0, #0]
 80021e2:	e7f7      	b.n	80021d4 <USB_WritePacket+0x18>

080021e4 <USB_ReadPacket>:
  uint32_t count32b = ((uint32_t)len + 3U) / 4U;
 80021e4:	3203      	adds	r2, #3
 80021e6:	f022 0203 	bic.w	r2, r2, #3
 80021ea:	440a      	add	r2, r1
    __UNALIGNED_UINT32_WRITE(pDest, USBx_DFIFO(0U));
 80021ec:	f500 5080 	add.w	r0, r0, #4096	; 0x1000
  for (i = 0U; i < count32b; i++)
 80021f0:	4291      	cmp	r1, r2
 80021f2:	d101      	bne.n	80021f8 <USB_ReadPacket+0x14>
}
 80021f4:	4608      	mov	r0, r1
 80021f6:	4770      	bx	lr
    __UNALIGNED_UINT32_WRITE(pDest, USBx_DFIFO(0U));
 80021f8:	6803      	ldr	r3, [r0, #0]
 80021fa:	f841 3b04 	str.w	r3, [r1], #4
 80021fe:	e7f7      	b.n	80021f0 <USB_ReadPacket+0xc>

08002200 <USB_ReadInterrupts>:
  tmpreg = USBx->GINTSTS;
 8002200:	6942      	ldr	r2, [r0, #20]
  tmpreg &= USBx->GINTMSK;
 8002202:	6980      	ldr	r0, [r0, #24]
}
 8002204:	4010      	ands	r0, r2
 8002206:	4770      	bx	lr

08002208 <USB_GetMode>:
  return ((USBx->GINTSTS) & 0x1U);
 8002208:	6940      	ldr	r0, [r0, #20]
}
 800220a:	f000 0001 	and.w	r0, r0, #1
 800220e:	4770      	bx	lr

08002210 <USB_InitFSLSPClkSel>:
  */
HAL_StatusTypeDef USB_InitFSLSPClkSel(USB_OTG_GlobalTypeDef *USBx, uint8_t freq)
{
  uint32_t USBx_BASE = (uint32_t)USBx;

  USBx_HOST->HCFG &= ~(USB_OTG_HCFG_FSLSPCS);
 8002210:	f8d0 3400 	ldr.w	r3, [r0, #1024]	; 0x400
 8002214:	f023 0303 	bic.w	r3, r3, #3
{
 8002218:	b510      	push	{r4, lr}
  USBx_HOST->HCFG &= ~(USB_OTG_HCFG_FSLSPCS);
 800221a:	f8c0 3400 	str.w	r3, [r0, #1024]	; 0x400
  USBx_HOST->HCFG |= (uint32_t)freq & USB_OTG_HCFG_FSLSPCS;
 800221e:	f8d0 4400 	ldr.w	r4, [r0, #1024]	; 0x400
 8002222:	f001 0303 	and.w	r3, r1, #3
 8002226:	4323      	orrs	r3, r4

  if (freq == HCFG_48_MHZ)
 8002228:	2901      	cmp	r1, #1
  USBx_HOST->HCFG &= ~(USB_OTG_HCFG_FSLSPCS);
 800222a:	f500 6280 	add.w	r2, r0, #1024	; 0x400
  USBx_HOST->HCFG |= (uint32_t)freq & USB_OTG_HCFG_FSLSPCS;
 800222e:	f8c0 3400 	str.w	r3, [r0, #1024]	; 0x400
  if (freq == HCFG_48_MHZ)
 8002232:	d104      	bne.n	800223e <USB_InitFSLSPClkSel+0x2e>
  {
    USBx_HOST->HFIR = 48000U;
 8002234:	f64b 3380 	movw	r3, #48000	; 0xbb80
  }
  else if (freq == HCFG_6_MHZ)
  {
    USBx_HOST->HFIR = 6000U;
 8002238:	6053      	str	r3, [r2, #4]
  {
    /* ... */
  }

  return HAL_OK;
}
 800223a:	2000      	movs	r0, #0
 800223c:	bd10      	pop	{r4, pc}
  else if (freq == HCFG_6_MHZ)
 800223e:	2902      	cmp	r1, #2
 8002240:	d1fb      	bne.n	800223a <USB_InitFSLSPClkSel+0x2a>
    USBx_HOST->HFIR = 6000U;
 8002242:	f241 7370 	movw	r3, #6000	; 0x1770
 8002246:	e7f7      	b.n	8002238 <USB_InitFSLSPClkSel+0x28>

08002248 <USB_ResetPort>:
  * @retval HAL status
  * @note (1)The application must wait at least 10 ms
  *   before clearing the reset bit.
  */
HAL_StatusTypeDef USB_ResetPort(USB_OTG_GlobalTypeDef *USBx)
{
 8002248:	b537      	push	{r0, r1, r2, r4, r5, lr}
  uint32_t USBx_BASE = (uint32_t)USBx;

  __IO uint32_t hprt0 = 0U;
 800224a:	2500      	movs	r5, #0
 800224c:	9501      	str	r5, [sp, #4]

  hprt0 = USBx_HPRT0;
 800224e:	f8d0 3440 	ldr.w	r3, [r0, #1088]	; 0x440
 8002252:	9301      	str	r3, [sp, #4]

  hprt0 &= ~(USB_OTG_HPRT_PENA | USB_OTG_HPRT_PCDET |
 8002254:	9b01      	ldr	r3, [sp, #4]
 8002256:	f023 032e 	bic.w	r3, r3, #46	; 0x2e
 800225a:	9301      	str	r3, [sp, #4]
             USB_OTG_HPRT_PENCHNG | USB_OTG_HPRT_POCCHNG);

  USBx_HPRT0 = (USB_OTG_HPRT_PRST | hprt0);
 800225c:	9b01      	ldr	r3, [sp, #4]
 800225e:	f443 7380 	orr.w	r3, r3, #256	; 0x100
{
 8002262:	4604      	mov	r4, r0
  USBx_HPRT0 = (USB_OTG_HPRT_PRST | hprt0);
 8002264:	f8c0 3440 	str.w	r3, [r0, #1088]	; 0x440
  HAL_Delay(100U);                                 /* See Note #1 */
 8002268:	2064      	movs	r0, #100	; 0x64
 800226a:	f7fe f9d9 	bl	8000620 <HAL_Delay>
  USBx_HPRT0 = ((~USB_OTG_HPRT_PRST) & hprt0);
 800226e:	9b01      	ldr	r3, [sp, #4]
 8002270:	f423 7380 	bic.w	r3, r3, #256	; 0x100
 8002274:	f8c4 3440 	str.w	r3, [r4, #1088]	; 0x440
  HAL_Delay(10U);
 8002278:	200a      	movs	r0, #10
 800227a:	f7fe f9d1 	bl	8000620 <HAL_Delay>

  return HAL_OK;
}
 800227e:	4628      	mov	r0, r5
 8002280:	b003      	add	sp, #12
 8002282:	bd30      	pop	{r4, r5, pc}

08002284 <USB_DriveVbus>:
  *           0 : VBUS Active
  *           1 : VBUS Inactive
  * @retval HAL status
*/
HAL_StatusTypeDef USB_DriveVbus(USB_OTG_GlobalTypeDef *USBx, uint8_t state)
{
 8002284:	b082      	sub	sp, #8
  uint32_t USBx_BASE = (uint32_t)USBx;
  __IO uint32_t hprt0 = 0U;
 8002286:	2300      	movs	r3, #0
 8002288:	9301      	str	r3, [sp, #4]

  hprt0 = USBx_HPRT0;
 800228a:	f8d0 3440 	ldr.w	r3, [r0, #1088]	; 0x440
 800228e:	9301      	str	r3, [sp, #4]

  hprt0 &= ~(USB_OTG_HPRT_PENA | USB_OTG_HPRT_PCDET |
 8002290:	9b01      	ldr	r3, [sp, #4]
 8002292:	f023 032e 	bic.w	r3, r3, #46	; 0x2e
 8002296:	9301      	str	r3, [sp, #4]
             USB_OTG_HPRT_PENCHNG | USB_OTG_HPRT_POCCHNG);

  if (((hprt0 & USB_OTG_HPRT_PPWR) == 0U) && (state == 1U))
 8002298:	9b01      	ldr	r3, [sp, #4]
 800229a:	04da      	lsls	r2, r3, #19
 800229c:	d406      	bmi.n	80022ac <USB_DriveVbus+0x28>
 800229e:	2901      	cmp	r1, #1
  {
    USBx_HPRT0 = (USB_OTG_HPRT_PPWR | hprt0);
 80022a0:	bf02      	ittt	eq
 80022a2:	9b01      	ldreq	r3, [sp, #4]
 80022a4:	f443 5380 	orreq.w	r3, r3, #4096	; 0x1000
 80022a8:	f8c0 3440 	streq.w	r3, [r0, #1088]	; 0x440
  }
  if (((hprt0 & USB_OTG_HPRT_PPWR) == USB_OTG_HPRT_PPWR) && (state == 0U))
 80022ac:	9b01      	ldr	r3, [sp, #4]
 80022ae:	04db      	lsls	r3, r3, #19
 80022b0:	d505      	bpl.n	80022be <USB_DriveVbus+0x3a>
 80022b2:	b921      	cbnz	r1, 80022be <USB_DriveVbus+0x3a>
  {
    USBx_HPRT0 = ((~USB_OTG_HPRT_PPWR) & hprt0);
 80022b4:	9b01      	ldr	r3, [sp, #4]
 80022b6:	f423 5380 	bic.w	r3, r3, #4096	; 0x1000
 80022ba:	f8c0 3440 	str.w	r3, [r0, #1088]	; 0x440
  }
  return HAL_OK;
}
 80022be:	2000      	movs	r0, #0
 80022c0:	b002      	add	sp, #8
 80022c2:	4770      	bx	lr

080022c4 <USB_HostInit>:
{
 80022c4:	b084      	sub	sp, #16
 80022c6:	b538      	push	{r3, r4, r5, lr}
 80022c8:	4604      	mov	r4, r0
 80022ca:	a805      	add	r0, sp, #20
 80022cc:	e880 000e 	stmia.w	r0, {r1, r2, r3}
  USBx_PCGCCTL = 0U;
 80022d0:	2300      	movs	r3, #0
 80022d2:	f8c4 3e00 	str.w	r3, [r4, #3584]	; 0xe00
  USBx->GCCFG |= USB_OTG_GCCFG_NOVBUSSENS;
 80022d6:	6ba3      	ldr	r3, [r4, #56]	; 0x38
 80022d8:	f443 1300 	orr.w	r3, r3, #2097152	; 0x200000
 80022dc:	63a3      	str	r3, [r4, #56]	; 0x38
  USBx->GCCFG &= ~USB_OTG_GCCFG_VBUSBSEN;
 80022de:	6ba3      	ldr	r3, [r4, #56]	; 0x38
 80022e0:	f423 2300 	bic.w	r3, r3, #524288	; 0x80000
 80022e4:	63a3      	str	r3, [r4, #56]	; 0x38
  USBx->GCCFG &= ~USB_OTG_GCCFG_VBUSASEN;
 80022e6:	6ba3      	ldr	r3, [r4, #56]	; 0x38
 80022e8:	f423 2380 	bic.w	r3, r3, #262144	; 0x40000
 80022ec:	63a3      	str	r3, [r4, #56]	; 0x38
  if ((USBx->CID & (0x1U << 8)) != 0U)
 80022ee:	6be3      	ldr	r3, [r4, #60]	; 0x3c
 80022f0:	05da      	lsls	r2, r3, #23
 80022f2:	d53f      	bpl.n	8002374 <USB_HostInit+0xb0>
    if (cfg.speed == USB_OTG_SPEED_FULL)
 80022f4:	9b07      	ldr	r3, [sp, #28]
 80022f6:	2b03      	cmp	r3, #3
      USBx_HOST->HCFG |= USB_OTG_HCFG_FSLSS;
 80022f8:	f8d4 3400 	ldr.w	r3, [r4, #1024]	; 0x400
    if (cfg.speed == USB_OTG_SPEED_FULL)
 80022fc:	d13c      	bne.n	8002378 <USB_HostInit+0xb4>
      USBx_HOST->HCFG |= USB_OTG_HCFG_FSLSS;
 80022fe:	f043 0304 	orr.w	r3, r3, #4
    USBx_HOST->HCFG &= ~(USB_OTG_HCFG_FSLSS);
 8002302:	f8c4 3400 	str.w	r3, [r4, #1024]	; 0x400
  (void)USB_FlushTxFifo(USBx, 0x10U); /* all Tx FIFOs */
 8002306:	2110      	movs	r1, #16
 8002308:	4620      	mov	r0, r4
 800230a:	f7ff ff35 	bl	8002178 <USB_FlushTxFifo>
  (void)USB_FlushRxFifo(USBx);
 800230e:	4620      	mov	r0, r4
 8002310:	f7ff ff44 	bl	800219c <USB_FlushRxFifo>
  for (i = 0U; i < cfg.Host_channels; i++)
 8002314:	2300      	movs	r3, #0
 8002316:	9906      	ldr	r1, [sp, #24]
 8002318:	f504 62a0 	add.w	r2, r4, #1280	; 0x500
    USBx_HC(i)->HCINT = 0xFFFFFFFFU;
 800231c:	f04f 30ff 	mov.w	r0, #4294967295
    USBx_HC(i)->HCINTMSK = 0U;
 8002320:	461d      	mov	r5, r3
  for (i = 0U; i < cfg.Host_channels; i++)
 8002322:	428b      	cmp	r3, r1
 8002324:	d12b      	bne.n	800237e <USB_HostInit+0xba>
  (void)USB_DriveVbus(USBx, 1U);
 8002326:	2101      	movs	r1, #1
 8002328:	4620      	mov	r0, r4
 800232a:	f7ff ffab 	bl	8002284 <USB_DriveVbus>
  HAL_Delay(200U);
 800232e:	20c8      	movs	r0, #200	; 0xc8
 8002330:	f7fe f976 	bl	8000620 <HAL_Delay>
  USBx->GINTMSK = 0U;
 8002334:	2300      	movs	r3, #0
 8002336:	61a3      	str	r3, [r4, #24]
  USBx->GINTSTS = 0xFFFFFFFFU;
 8002338:	f04f 33ff 	mov.w	r3, #4294967295
 800233c:	6163      	str	r3, [r4, #20]
  if ((USBx->CID & (0x1U << 8)) != 0U)
 800233e:	6be3      	ldr	r3, [r4, #60]	; 0x3c
 8002340:	05db      	lsls	r3, r3, #23
 8002342:	d521      	bpl.n	8002388 <USB_HostInit+0xc4>
    USBx->GRXFSIZ  = 0x200U;
 8002344:	f44f 7300 	mov.w	r3, #512	; 0x200
 8002348:	6263      	str	r3, [r4, #36]	; 0x24
    USBx->DIEPTXF0_HNPTXFSIZ = (uint32_t)(((0x100U << 16) & USB_OTG_NPTXFD) | 0x200U);
 800234a:	f103 7380 	add.w	r3, r3, #16777216	; 0x1000000
 800234e:	62a3      	str	r3, [r4, #40]	; 0x28
    USBx->HPTXFSIZ = (uint32_t)(((0xE0U << 16) & USB_OTG_HPTXFSIZ_PTXFD) | 0x300U);
 8002350:	4b11      	ldr	r3, [pc, #68]	; (8002398 <USB_HostInit+0xd4>)
    USBx->HPTXFSIZ = (uint32_t)(((0x40U << 16)& USB_OTG_HPTXFSIZ_PTXFD) | 0xE0U);
 8002352:	f8c4 3100 	str.w	r3, [r4, #256]	; 0x100
  if (cfg.dma_enable == 0U)
 8002356:	9b08      	ldr	r3, [sp, #32]
 8002358:	b91b      	cbnz	r3, 8002362 <USB_HostInit+0x9e>
    USBx->GINTMSK |= USB_OTG_GINTMSK_RXFLVLM;
 800235a:	69a3      	ldr	r3, [r4, #24]
 800235c:	f043 0310 	orr.w	r3, r3, #16
 8002360:	61a3      	str	r3, [r4, #24]
  USBx->GINTMSK |= (USB_OTG_GINTMSK_PRTIM            | USB_OTG_GINTMSK_HCIM | \
 8002362:	69a2      	ldr	r2, [r4, #24]
 8002364:	4b0d      	ldr	r3, [pc, #52]	; (800239c <USB_HostInit+0xd8>)
 8002366:	4313      	orrs	r3, r2
 8002368:	61a3      	str	r3, [r4, #24]
}
 800236a:	e8bd 4038 	ldmia.w	sp!, {r3, r4, r5, lr}
 800236e:	2000      	movs	r0, #0
 8002370:	b004      	add	sp, #16
 8002372:	4770      	bx	lr
    USBx_HOST->HCFG &= ~(USB_OTG_HCFG_FSLSS);
 8002374:	f8d4 3400 	ldr.w	r3, [r4, #1024]	; 0x400
 8002378:	f023 0304 	bic.w	r3, r3, #4
 800237c:	e7c1      	b.n	8002302 <USB_HostInit+0x3e>
    USBx_HC(i)->HCINT = 0xFFFFFFFFU;
 800237e:	6090      	str	r0, [r2, #8]
  for (i = 0U; i < cfg.Host_channels; i++)
 8002380:	3301      	adds	r3, #1
    USBx_HC(i)->HCINTMSK = 0U;
 8002382:	60d5      	str	r5, [r2, #12]
 8002384:	3220      	adds	r2, #32
 8002386:	e7cc      	b.n	8002322 <USB_HostInit+0x5e>
    USBx->GRXFSIZ  = 0x80U;
 8002388:	2380      	movs	r3, #128	; 0x80
 800238a:	6263      	str	r3, [r4, #36]	; 0x24
    USBx->DIEPTXF0_HNPTXFSIZ = (uint32_t)(((0x60U << 16) & USB_OTG_NPTXFD) | 0x80U);
 800238c:	f503 03c0 	add.w	r3, r3, #6291456	; 0x600000
 8002390:	62a3      	str	r3, [r4, #40]	; 0x28
    USBx->HPTXFSIZ = (uint32_t)(((0x40U << 16)& USB_OTG_HPTXFSIZ_PTXFD) | 0xE0U);
 8002392:	4b03      	ldr	r3, [pc, #12]	; (80023a0 <USB_HostInit+0xdc>)
 8002394:	e7dd      	b.n	8002352 <USB_HostInit+0x8e>
 8002396:	bf00      	nop
 8002398:	00e00300 	.word	0x00e00300
 800239c:	a3200008 	.word	0xa3200008
 80023a0:	004000e0 	.word	0x004000e0

080023a4 <USB_GetHostSpeed>:
  *            @arg HCD_SPEED_HIGH: High speed mode
  *            @arg HCD_SPEED_FULL: Full speed mode
  *            @arg HCD_SPEED_LOW: Low speed mode
  */
uint32_t USB_GetHostSpeed(USB_OTG_GlobalTypeDef *USBx)
{
 80023a4:	b082      	sub	sp, #8
  uint32_t USBx_BASE = (uint32_t)USBx;
  __IO uint32_t hprt0 = 0U;
 80023a6:	2300      	movs	r3, #0
 80023a8:	9301      	str	r3, [sp, #4]

  hprt0 = USBx_HPRT0;
 80023aa:	f8d0 3440 	ldr.w	r3, [r0, #1088]	; 0x440
 80023ae:	9301      	str	r3, [sp, #4]
  return ((hprt0 & USB_OTG_HPRT_PSPD) >> 17);
 80023b0:	9801      	ldr	r0, [sp, #4]
}
 80023b2:	f3c0 4041 	ubfx	r0, r0, #17, #2
 80023b6:	b002      	add	sp, #8
 80023b8:	4770      	bx	lr

080023ba <USB_GetCurrentFrame>:
*/
uint32_t USB_GetCurrentFrame(USB_OTG_GlobalTypeDef *USBx)
{
  uint32_t USBx_BASE = (uint32_t)USBx;

  return (USBx_HOST->HFNUM & USB_OTG_HFNUM_FRNUM);
 80023ba:	f500 6080 	add.w	r0, r0, #1024	; 0x400
 80023be:	6880      	ldr	r0, [r0, #8]
}
 80023c0:	b280      	uxth	r0, r0
 80023c2:	4770      	bx	lr

080023c4 <USB_HC_Init>:
                              uint8_t epnum,
                              uint8_t dev_address,
                              uint8_t speed,
                              uint8_t ep_type,
                              uint16_t mps)
{
 80023c4:	e92d 41f0 	stmdb	sp!, {r4, r5, r6, r7, r8, lr}
  HAL_StatusTypeDef ret = HAL_OK;
  uint32_t USBx_BASE = (uint32_t)USBx;
  uint32_t HCcharEpDir, HCcharLowSpeed;

  /* Clear old interrupt conditions for this host channel. */
  USBx_HC((uint32_t)ch_num)->HCINT = 0xFFFFFFFFU;
 80023c8:	eb00 1741 	add.w	r7, r0, r1, lsl #5
 80023cc:	f507 64a0 	add.w	r4, r7, #1280	; 0x500
{
 80023d0:	f89d 601c 	ldrb.w	r6, [sp, #28]
 80023d4:	4605      	mov	r5, r0
  USBx_HC((uint32_t)ch_num)->HCINT = 0xFFFFFFFFU;
 80023d6:	f04f 30ff 	mov.w	r0, #4294967295
 80023da:	60a0      	str	r0, [r4, #8]
 80023dc:	fa4f f882 	sxtb.w	r8, r2
 80023e0:	f505 6c80 	add.w	ip, r5, #1024	; 0x400
 80023e4:	f001 0e0f 	and.w	lr, r1, #15

  /* Enable channel interrupts required for this transfer. */
  switch (ep_type)
 80023e8:	2e03      	cmp	r6, #3
 80023ea:	d86c      	bhi.n	80024c6 <USB_HC_Init+0x102>
 80023ec:	e8df f006 	tbb	[pc, r6]
 80023f0:	4c026102 	.word	0x4c026102
  {
    case EP_TYPE_CTRL:
    case EP_TYPE_BULK:
      USBx_HC((uint32_t)ch_num)->HCINTMSK = USB_OTG_HCINTMSK_XFRCM  |
 80023f4:	f240 419d 	movw	r1, #1181	; 0x49d
                                            USB_OTG_HCINTMSK_TXERRM |
                                            USB_OTG_HCINTMSK_DTERRM |
                                            USB_OTG_HCINTMSK_AHBERR |
                                            USB_OTG_HCINTMSK_NAKM;

      if ((epnum & 0x80U) == 0x80U)
 80023f8:	f1b8 0f00 	cmp.w	r8, #0
      USBx_HC((uint32_t)ch_num)->HCINTMSK = USB_OTG_HCINTMSK_XFRCM  |
 80023fc:	60e1      	str	r1, [r4, #12]
      if ((epnum & 0x80U) == 0x80U)
 80023fe:	da03      	bge.n	8002408 <USB_HC_Init+0x44>
                                            USB_OTG_HCINTMSK_AHBERR |
                                            USB_OTG_HCINTMSK_FRMORM;

      if ((epnum & 0x80U) == 0x80U)
      {
        USBx_HC((uint32_t)ch_num)->HCINTMSK |= USB_OTG_HCINTMSK_BBERRM;
 8002400:	68e1      	ldr	r1, [r4, #12]
 8002402:	f441 7180 	orr.w	r1, r1, #256	; 0x100
 8002406:	e005      	b.n	8002414 <USB_HC_Init+0x50>
        if ((USBx->CID & (0x1U << 8)) != 0U)
 8002408:	6be9      	ldr	r1, [r5, #60]	; 0x3c
 800240a:	05c9      	lsls	r1, r1, #23
 800240c:	d542      	bpl.n	8002494 <USB_HC_Init+0xd0>
          USBx_HC((uint32_t)ch_num)->HCINTMSK |= (USB_OTG_HCINTMSK_NYET | USB_OTG_HCINTMSK_ACKM);
 800240e:	68e1      	ldr	r1, [r4, #12]
 8002410:	f041 0160 	orr.w	r1, r1, #96	; 0x60
 8002414:	60e1      	str	r1, [r4, #12]
  HAL_StatusTypeDef ret = HAL_OK;
 8002416:	2000      	movs	r0, #0
      ret = HAL_ERROR;
      break;
  }

  /* Enable the top level host channel interrupt. */
  USBx_HOST->HAINTMSK |= 1UL << (ch_num & 0xFU);
 8002418:	f8dc 4018 	ldr.w	r4, [ip, #24]
 800241c:	2101      	movs	r1, #1
 800241e:	fa01 f10e 	lsl.w	r1, r1, lr
 8002422:	4321      	orrs	r1, r4
 8002424:	f8cc 1018 	str.w	r1, [ip, #24]

  /* Make sure host channel interrupts are enabled. */
  USBx->GINTMSK |= USB_OTG_GINTMSK_HCIM;
 8002428:	69a9      	ldr	r1, [r5, #24]
  {
    HCcharEpDir = (0x1U << 15) & USB_OTG_HCCHAR_EPDIR;
  }
  else
  {
    HCcharEpDir = 0U;
 800242a:	f1b8 0f00 	cmp.w	r8, #0
  USBx->GINTMSK |= USB_OTG_GINTMSK_HCIM;
 800242e:	f041 7100 	orr.w	r1, r1, #33554432	; 0x2000000
 8002432:	61a9      	str	r1, [r5, #24]
    HCcharEpDir = 0U;
 8002434:	bfb4      	ite	lt
 8002436:	f44f 4400 	movlt.w	r4, #32768	; 0x8000
 800243a:	2400      	movge	r4, #0
  }

  USBx_HC((uint32_t)ch_num)->HCCHAR = (((uint32_t)dev_address << 22) & USB_OTG_HCCHAR_DAD) |
                                      ((((uint32_t)epnum & 0x7FU) << 11) & USB_OTG_HCCHAR_EPNUM) |
                                      (((uint32_t)ep_type << 18) & USB_OTG_HCCHAR_EPTYP) |
                                      ((uint32_t)mps & USB_OTG_HCCHAR_MPSIZ) | HCcharEpDir | HCcharLowSpeed;
 800243c:	f8bd 5020 	ldrh.w	r5, [sp, #32]
    HCcharLowSpeed = 0U;
 8002440:	f89d 1018 	ldrb.w	r1, [sp, #24]
  USBx_HC((uint32_t)ch_num)->HCCHAR = (((uint32_t)dev_address << 22) & USB_OTG_HCCHAR_DAD) |
 8002444:	059b      	lsls	r3, r3, #22
 8002446:	f003 53fe 	and.w	r3, r3, #532676608	; 0x1fc00000
                                      ((uint32_t)mps & USB_OTG_HCCHAR_MPSIZ) | HCcharEpDir | HCcharLowSpeed;
 800244a:	f3c5 050a 	ubfx	r5, r5, #0, #11
                                      ((((uint32_t)epnum & 0x7FU) << 11) & USB_OTG_HCCHAR_EPNUM) |
 800244e:	02d2      	lsls	r2, r2, #11
 8002450:	f402 42f0 	and.w	r2, r2, #30720	; 0x7800
                                      (((uint32_t)ep_type << 18) & USB_OTG_HCCHAR_EPTYP) |
 8002454:	432b      	orrs	r3, r5
 8002456:	4313      	orrs	r3, r2
 8002458:	04b2      	lsls	r2, r6, #18
 800245a:	f402 2240 	and.w	r2, r2, #786432	; 0xc0000
    HCcharLowSpeed = 0U;
 800245e:	2902      	cmp	r1, #2
                                      (((uint32_t)ep_type << 18) & USB_OTG_HCCHAR_EPTYP) |
 8002460:	ea43 0302 	orr.w	r3, r3, r2
    HCcharLowSpeed = 0U;
 8002464:	bf0c      	ite	eq
 8002466:	f44f 3100 	moveq.w	r1, #131072	; 0x20000
 800246a:	2100      	movne	r1, #0
                                      ((uint32_t)mps & USB_OTG_HCCHAR_MPSIZ) | HCcharEpDir | HCcharLowSpeed;
 800246c:	4323      	orrs	r3, r4
 800246e:	430b      	orrs	r3, r1

  if (ep_type == EP_TYPE_INTR)
 8002470:	2e03      	cmp	r6, #3
  USBx_HC((uint32_t)ch_num)->HCCHAR = (((uint32_t)dev_address << 22) & USB_OTG_HCCHAR_DAD) |
 8002472:	f8c7 3500 	str.w	r3, [r7, #1280]	; 0x500
  if (ep_type == EP_TYPE_INTR)
 8002476:	d128      	bne.n	80024ca <USB_HC_Init+0x106>
  {
    USBx_HC((uint32_t)ch_num)->HCCHAR |= USB_OTG_HCCHAR_ODDFRM ;
 8002478:	f8d7 3500 	ldr.w	r3, [r7, #1280]	; 0x500
 800247c:	f043 5300 	orr.w	r3, r3, #536870912	; 0x20000000
 8002480:	f8c7 3500 	str.w	r3, [r7, #1280]	; 0x500
  }

  return ret;
 8002484:	e8bd 81f0 	ldmia.w	sp!, {r4, r5, r6, r7, r8, pc}
      USBx_HC((uint32_t)ch_num)->HCINTMSK = USB_OTG_HCINTMSK_XFRCM  |
 8002488:	f240 619d 	movw	r1, #1693	; 0x69d
      if ((epnum & 0x80U) == 0x80U)
 800248c:	f1b8 0f00 	cmp.w	r8, #0
      USBx_HC((uint32_t)ch_num)->HCINTMSK = USB_OTG_HCINTMSK_XFRCM  |
 8002490:	60e1      	str	r1, [r4, #12]
      if ((epnum & 0x80U) == 0x80U)
 8002492:	dbb5      	blt.n	8002400 <USB_HC_Init+0x3c>
  USBx_HOST->HAINTMSK |= 1UL << (ch_num & 0xFU);
 8002494:	f8dc 0018 	ldr.w	r0, [ip, #24]
 8002498:	2101      	movs	r1, #1
 800249a:	fa01 f10e 	lsl.w	r1, r1, lr
 800249e:	4301      	orrs	r1, r0
 80024a0:	f8cc 1018 	str.w	r1, [ip, #24]
  USBx->GINTMSK |= USB_OTG_GINTMSK_HCIM;
 80024a4:	69a9      	ldr	r1, [r5, #24]
  HAL_StatusTypeDef ret = HAL_OK;
 80024a6:	2000      	movs	r0, #0
  USBx->GINTMSK |= USB_OTG_GINTMSK_HCIM;
 80024a8:	f041 7100 	orr.w	r1, r1, #33554432	; 0x2000000
 80024ac:	61a9      	str	r1, [r5, #24]
    HCcharEpDir = 0U;
 80024ae:	4604      	mov	r4, r0
 80024b0:	e7c4      	b.n	800243c <USB_HC_Init+0x78>
      USBx_HC((uint32_t)ch_num)->HCINTMSK = USB_OTG_HCINTMSK_XFRCM  |
 80024b2:	f240 2125 	movw	r1, #549	; 0x225
      if ((epnum & 0x80U) == 0x80U)
 80024b6:	f1b8 0f00 	cmp.w	r8, #0
      USBx_HC((uint32_t)ch_num)->HCINTMSK = USB_OTG_HCINTMSK_XFRCM  |
 80024ba:	60e1      	str	r1, [r4, #12]
      if ((epnum & 0x80U) == 0x80U)
 80024bc:	daea      	bge.n	8002494 <USB_HC_Init+0xd0>
        USBx_HC((uint32_t)ch_num)->HCINTMSK |= (USB_OTG_HCINTMSK_TXERRM | USB_OTG_HCINTMSK_BBERRM);
 80024be:	68e1      	ldr	r1, [r4, #12]
 80024c0:	f441 71c0 	orr.w	r1, r1, #384	; 0x180
 80024c4:	e7a6      	b.n	8002414 <USB_HC_Init+0x50>
      ret = HAL_ERROR;
 80024c6:	2001      	movs	r0, #1
 80024c8:	e7a6      	b.n	8002418 <USB_HC_Init+0x54>
}
 80024ca:	e8bd 81f0 	ldmia.w	sp!, {r4, r5, r6, r7, r8, pc}

080024ce <USB_HC_ReadInterrupt>:
  */
uint32_t USB_HC_ReadInterrupt(USB_OTG_GlobalTypeDef *USBx)
{
  uint32_t USBx_BASE = (uint32_t)USBx;

  return ((USBx_HOST->HAINT) & 0xFFFFU);
 80024ce:	f500 6080 	add.w	r0, r0, #1024	; 0x400
 80024d2:	6940      	ldr	r0, [r0, #20]
}
 80024d4:	b280      	uxth	r0, r0
 80024d6:	4770      	bx	lr

080024d8 <USB_HC_Halt>:
HAL_StatusTypeDef USB_HC_Halt(USB_OTG_GlobalTypeDef *USBx, uint8_t hc_num)
{
  uint32_t USBx_BASE = (uint32_t)USBx;
  uint32_t hcnum = (uint32_t)hc_num;
  uint32_t count = 0U;
  uint32_t HcEpType = (USBx_HC(hcnum)->HCCHAR & USB_OTG_HCCHAR_EPTYP) >> 18;
 80024d8:	eb00 1141 	add.w	r1, r0, r1, lsl #5
 80024dc:	f501 62a0 	add.w	r2, r1, #1280	; 0x500
 80024e0:	f8d1 3500 	ldr.w	r3, [r1, #1280]	; 0x500

  /* Check for space in the request queue to issue the halt. */
  if ((HcEpType == HCCHAR_CTRL) || (HcEpType == HCCHAR_BULK))
 80024e4:	f413 2f80 	tst.w	r3, #262144	; 0x40000
  {
    USBx_HC(hcnum)->HCCHAR |= USB_OTG_HCCHAR_CHDIS;
 80024e8:	f8d1 3500 	ldr.w	r3, [r1, #1280]	; 0x500
 80024ec:	f043 4380 	orr.w	r3, r3, #1073741824	; 0x40000000
 80024f0:	f8c1 3500 	str.w	r3, [r1, #1280]	; 0x500
  if ((HcEpType == HCCHAR_CTRL) || (HcEpType == HCCHAR_BULK))
 80024f4:	d11e      	bne.n	8002534 <USB_HC_Halt+0x5c>

    if ((USBx->HNPTXSTS & (0xFFU << 16)) == 0U)
 80024f6:	6ac3      	ldr	r3, [r0, #44]	; 0x2c
 80024f8:	f413 0f7f 	tst.w	r3, #16711680	; 0xff0000
    {
      USBx_HC(hcnum)->HCCHAR &= ~USB_OTG_HCCHAR_CHENA;
 80024fc:	f8d1 3500 	ldr.w	r3, [r1, #1280]	; 0x500
    if ((USBx->HNPTXSTS & (0xFFU << 16)) == 0U)
 8002500:	d137      	bne.n	8002572 <USB_HC_Halt+0x9a>
      USBx_HC(hcnum)->HCCHAR &= ~USB_OTG_HCCHAR_CHENA;
 8002502:	f023 4300 	bic.w	r3, r3, #2147483648	; 0x80000000
 8002506:	f8c1 3500 	str.w	r3, [r1, #1280]	; 0x500
      USBx_HC(hcnum)->HCCHAR |= USB_OTG_HCCHAR_CHENA;
 800250a:	f8d1 3500 	ldr.w	r3, [r1, #1280]	; 0x500
 800250e:	f043 4300 	orr.w	r3, r3, #2147483648	; 0x80000000
 8002512:	f8c1 3500 	str.w	r3, [r1, #1280]	; 0x500
      USBx_HC(hcnum)->HCCHAR &= ~USB_OTG_HCCHAR_EPDIR;
 8002516:	f8d1 3500 	ldr.w	r3, [r1, #1280]	; 0x500
 800251a:	f423 4300 	bic.w	r3, r3, #32768	; 0x8000
 800251e:	f8c1 3500 	str.w	r3, [r1, #1280]	; 0x500
 8002522:	f240 33e9 	movw	r3, #1001	; 0x3e9
      do
      {
        if (++count > 1000U)
 8002526:	3b01      	subs	r3, #1
 8002528:	d002      	beq.n	8002530 <USB_HC_Halt+0x58>
        {
          break;
        }
      }
      while ((USBx_HC(hcnum)->HCCHAR & USB_OTG_HCCHAR_CHENA) == USB_OTG_HCCHAR_CHENA);
 800252a:	6811      	ldr	r1, [r2, #0]
 800252c:	2900      	cmp	r1, #0
 800252e:	dbfa      	blt.n	8002526 <USB_HC_Halt+0x4e>
      USBx_HC(hcnum)->HCCHAR |= USB_OTG_HCCHAR_CHENA;
    }
  }

  return HAL_OK;
}
 8002530:	2000      	movs	r0, #0
 8002532:	4770      	bx	lr
    if ((USBx_HOST->HPTXSTS & (0xFFU << 16)) == 0U)
 8002534:	f8d0 3410 	ldr.w	r3, [r0, #1040]	; 0x410
 8002538:	f413 0f7f 	tst.w	r3, #16711680	; 0xff0000
      USBx_HC(hcnum)->HCCHAR &= ~USB_OTG_HCCHAR_CHENA;
 800253c:	f8d1 3500 	ldr.w	r3, [r1, #1280]	; 0x500
    if ((USBx_HOST->HPTXSTS & (0xFFU << 16)) == 0U)
 8002540:	d117      	bne.n	8002572 <USB_HC_Halt+0x9a>
      USBx_HC(hcnum)->HCCHAR &= ~USB_OTG_HCCHAR_CHENA;
 8002542:	f023 4300 	bic.w	r3, r3, #2147483648	; 0x80000000
 8002546:	f8c1 3500 	str.w	r3, [r1, #1280]	; 0x500
      USBx_HC(hcnum)->HCCHAR |= USB_OTG_HCCHAR_CHENA;
 800254a:	f8d1 3500 	ldr.w	r3, [r1, #1280]	; 0x500
 800254e:	f043 4300 	orr.w	r3, r3, #2147483648	; 0x80000000
 8002552:	f8c1 3500 	str.w	r3, [r1, #1280]	; 0x500
      USBx_HC(hcnum)->HCCHAR &= ~USB_OTG_HCCHAR_EPDIR;
 8002556:	f8d1 3500 	ldr.w	r3, [r1, #1280]	; 0x500
 800255a:	f423 4300 	bic.w	r3, r3, #32768	; 0x8000
 800255e:	f8c1 3500 	str.w	r3, [r1, #1280]	; 0x500
 8002562:	f240 33e9 	movw	r3, #1001	; 0x3e9
        if (++count > 1000U)
 8002566:	3b01      	subs	r3, #1
 8002568:	d0e2      	beq.n	8002530 <USB_HC_Halt+0x58>
      while ((USBx_HC(hcnum)->HCCHAR & USB_OTG_HCCHAR_CHENA) == USB_OTG_HCCHAR_CHENA);
 800256a:	6811      	ldr	r1, [r2, #0]
 800256c:	2900      	cmp	r1, #0
 800256e:	dbfa      	blt.n	8002566 <USB_HC_Halt+0x8e>
 8002570:	e7de      	b.n	8002530 <USB_HC_Halt+0x58>
      USBx_HC(hcnum)->HCCHAR |= USB_OTG_HCCHAR_CHENA;
 8002572:	f043 4300 	orr.w	r3, r3, #2147483648	; 0x80000000
 8002576:	f8c1 3500 	str.w	r3, [r1, #1280]	; 0x500
 800257a:	e7d9      	b.n	8002530 <USB_HC_Halt+0x58>

0800257c <USB_DoPing>:
  uint32_t USBx_BASE = (uint32_t)USBx;
  uint32_t chnum = (uint32_t)ch_num;
  uint32_t num_packets = 1U;
  uint32_t tmpreg;

  USBx_HC(chnum)->HCTSIZ = ((num_packets << 19) & USB_OTG_HCTSIZ_PKTCNT) |
 800257c:	eb00 1141 	add.w	r1, r0, r1, lsl #5
 8002580:	4a06      	ldr	r2, [pc, #24]	; (800259c <USB_DoPing+0x20>)
 8002582:	f8c1 2510 	str.w	r2, [r1, #1296]	; 0x510
                           USB_OTG_HCTSIZ_DOPING;

  /* Set host channel enable */
  tmpreg = USBx_HC(chnum)->HCCHAR;
 8002586:	f8d1 3500 	ldr.w	r3, [r1, #1280]	; 0x500
  tmpreg &= ~USB_OTG_HCCHAR_CHDIS;
 800258a:	f023 4380 	bic.w	r3, r3, #1073741824	; 0x40000000
  tmpreg |= USB_OTG_HCCHAR_CHENA;
 800258e:	f043 4300 	orr.w	r3, r3, #2147483648	; 0x80000000
  USBx_HC(chnum)->HCCHAR = tmpreg;
 8002592:	f8c1 3500 	str.w	r3, [r1, #1280]	; 0x500

  return HAL_OK;
}
 8002596:	2000      	movs	r0, #0
 8002598:	4770      	bx	lr
 800259a:	bf00      	nop
 800259c:	80080000 	.word	0x80080000

080025a0 <USB_HC_StartXfer>:
{
 80025a0:	e92d 41f3 	stmdb	sp!, {r0, r1, r4, r5, r6, r7, r8, lr}
  if (((USBx->CID & (0x1U << 8)) != 0U) && (hc->speed == USBH_HS_SPEED))
 80025a4:	6bc3      	ldr	r3, [r0, #60]	; 0x3c
 80025a6:	05db      	lsls	r3, r3, #23
{
 80025a8:	4616      	mov	r6, r2
 80025aa:	4604      	mov	r4, r0
  uint32_t ch_num = (uint32_t)hc->ch_num;
 80025ac:	784a      	ldrb	r2, [r1, #1]
  if (((USBx->CID & (0x1U << 8)) != 0U) && (hc->speed == USBH_HS_SPEED))
 80025ae:	d517      	bpl.n	80025e0 <USB_HC_StartXfer+0x40>
 80025b0:	790d      	ldrb	r5, [r1, #4]
 80025b2:	b9ad      	cbnz	r5, 80025e0 <USB_HC_StartXfer+0x40>
    if ((dma == 0U) && (hc->do_ping == 1U))
 80025b4:	b94e      	cbnz	r6, 80025ca <USB_HC_StartXfer+0x2a>
 80025b6:	794b      	ldrb	r3, [r1, #5]
 80025b8:	2b01      	cmp	r3, #1
 80025ba:	d111      	bne.n	80025e0 <USB_HC_StartXfer+0x40>
      (void)USB_DoPing(USBx, hc->ch_num);
 80025bc:	4611      	mov	r1, r2
 80025be:	f7ff ffdd 	bl	800257c <USB_DoPing>
}
 80025c2:	2000      	movs	r0, #0
 80025c4:	b002      	add	sp, #8
 80025c6:	e8bd 81f0 	ldmia.w	sp!, {r4, r5, r6, r7, r8, pc}
    else if (dma == 1U)
 80025ca:	2e01      	cmp	r6, #1
 80025cc:	d108      	bne.n	80025e0 <USB_HC_StartXfer+0x40>
      USBx_HC(ch_num)->HCINTMSK &= ~(USB_OTG_HCINTMSK_NYET | USB_OTG_HCINTMSK_ACKM);
 80025ce:	eb00 1342 	add.w	r3, r0, r2, lsl #5
 80025d2:	f8d3 050c 	ldr.w	r0, [r3, #1292]	; 0x50c
 80025d6:	f020 0060 	bic.w	r0, r0, #96	; 0x60
 80025da:	f8c3 050c 	str.w	r0, [r3, #1292]	; 0x50c
      hc->do_ping = 0U;
 80025de:	714d      	strb	r5, [r1, #5]
  if (hc->xfer_len > 0U)
 80025e0:	6908      	ldr	r0, [r1, #16]
 80025e2:	2800      	cmp	r0, #0
 80025e4:	d066      	beq.n	80026b4 <USB_HC_StartXfer+0x114>
    num_packets = (uint16_t)((hc->xfer_len + hc->max_packet - 1U) / hc->max_packet);
 80025e6:	890b      	ldrh	r3, [r1, #8]
 80025e8:	3801      	subs	r0, #1
 80025ea:	4418      	add	r0, r3
 80025ec:	fbb0 f0f3 	udiv	r0, r0, r3
 80025f0:	b280      	uxth	r0, r0
    if (num_packets > max_hc_pkt_count)
 80025f2:	f5b0 7f80 	cmp.w	r0, #256	; 0x100
 80025f6:	d903      	bls.n	8002600 <USB_HC_StartXfer+0x60>
      hc->xfer_len = (uint32_t)num_packets * hc->max_packet;
 80025f8:	021b      	lsls	r3, r3, #8
 80025fa:	610b      	str	r3, [r1, #16]
      num_packets = max_hc_pkt_count;
 80025fc:	f44f 7080 	mov.w	r0, #256	; 0x100
  if (hc->ep_is_in != 0U)
 8002600:	78cf      	ldrb	r7, [r1, #3]
 8002602:	b117      	cbz	r7, 800260a <USB_HC_StartXfer+0x6a>
    hc->xfer_len = (uint32_t)num_packets * hc->max_packet;
 8002604:	890b      	ldrh	r3, [r1, #8]
 8002606:	4343      	muls	r3, r0
 8002608:	610b      	str	r3, [r1, #16]
                            (((uint32_t)hc->data_pid << 29) & USB_OTG_HCTSIZ_DPID);
 800260a:	f891 e00a 	ldrb.w	lr, [r1, #10]
  USBx_HC(ch_num)->HCTSIZ = (hc->xfer_len & USB_OTG_HCTSIZ_XFRSIZ) |
 800260e:	690b      	ldr	r3, [r1, #16]
                            (((uint32_t)hc->data_pid << 29) & USB_OTG_HCTSIZ_DPID);
 8002610:	ea4f 7e4e 	mov.w	lr, lr, lsl #29
  USBx_HC(ch_num)->HCTSIZ = (hc->xfer_len & USB_OTG_HCTSIZ_XFRSIZ) |
 8002614:	f3c3 0812 	ubfx	r8, r3, #0, #19
                            (((uint32_t)hc->data_pid << 29) & USB_OTG_HCTSIZ_DPID);
 8002618:	f00e 4ec0 	and.w	lr, lr, #1610612736	; 0x60000000
                            (((uint32_t)num_packets << 19) & USB_OTG_HCTSIZ_PKTCNT) |
 800261c:	ea4e 0e08 	orr.w	lr, lr, r8
 8002620:	f8df 80dc 	ldr.w	r8, [pc, #220]	; 8002700 <USB_HC_StartXfer+0x160>
  USBx_HC(ch_num)->HCTSIZ = (hc->xfer_len & USB_OTG_HCTSIZ_XFRSIZ) |
 8002624:	eb04 1542 	add.w	r5, r4, r2, lsl #5
                            (((uint32_t)num_packets << 19) & USB_OTG_HCTSIZ_PKTCNT) |
 8002628:	ea08 40c0 	and.w	r0, r8, r0, lsl #19
 800262c:	ea4e 0000 	orr.w	r0, lr, r0
  USBx_HC(ch_num)->HCTSIZ = (hc->xfer_len & USB_OTG_HCTSIZ_XFRSIZ) |
 8002630:	f8c5 0510 	str.w	r0, [r5, #1296]	; 0x510
  if (dma != 0U)
 8002634:	b116      	cbz	r6, 800263c <USB_HC_StartXfer+0x9c>
    USBx_HC(ch_num)->HCDMA = (uint32_t)hc->xfer_buff;
 8002636:	68c8      	ldr	r0, [r1, #12]
 8002638:	f8c5 0514 	str.w	r0, [r5, #1300]	; 0x514
  is_oddframe = (((uint32_t)USBx_HOST->HFNUM & 0x01U) != 0U) ? 0U : 1U;
 800263c:	f504 6e80 	add.w	lr, r4, #1024	; 0x400
 8002640:	f8de 0008 	ldr.w	r0, [lr, #8]
  USBx_HC(ch_num)->HCCHAR &= ~USB_OTG_HCCHAR_ODDFRM;
 8002644:	f8d5 c500 	ldr.w	ip, [r5, #1280]	; 0x500
 8002648:	f02c 5c00 	bic.w	ip, ip, #536870912	; 0x20000000
 800264c:	f8c5 c500 	str.w	ip, [r5, #1280]	; 0x500
  USBx_HC(ch_num)->HCCHAR |= (uint32_t)is_oddframe << 29;
 8002650:	43c0      	mvns	r0, r0
 8002652:	f8d5 c500 	ldr.w	ip, [r5, #1280]	; 0x500
 8002656:	0740      	lsls	r0, r0, #29
 8002658:	f000 5000 	and.w	r0, r0, #536870912	; 0x20000000
 800265c:	ea40 000c 	orr.w	r0, r0, ip
 8002660:	f8c5 0500 	str.w	r0, [r5, #1280]	; 0x500
  tmpreg = USBx_HC(ch_num)->HCCHAR;
 8002664:	4825      	ldr	r0, [pc, #148]	; (80026fc <USB_HC_StartXfer+0x15c>)
 8002666:	f8d5 c500 	ldr.w	ip, [r5, #1280]	; 0x500
 800266a:	f8c0 c000 	str.w	ip, [r0]
  tmpreg &= ~USB_OTG_HCCHAR_CHDIS;
 800266e:	f8d0 c000 	ldr.w	ip, [r0]
 8002672:	f02c 4c80 	bic.w	ip, ip, #1073741824	; 0x40000000
 8002676:	f8c0 c000 	str.w	ip, [r0]
    tmpreg |= USB_OTG_HCCHAR_EPDIR;
 800267a:	f8d0 c000 	ldr.w	ip, [r0]
  if (hc->ep_is_in != 0U)
 800267e:	b1df      	cbz	r7, 80026b8 <USB_HC_StartXfer+0x118>
    tmpreg |= USB_OTG_HCCHAR_EPDIR;
 8002680:	f44c 4c00 	orr.w	ip, ip, #32768	; 0x8000
    tmpreg &= ~USB_OTG_HCCHAR_EPDIR;
 8002684:	f8c0 c000 	str.w	ip, [r0]
  tmpreg |= USB_OTG_HCCHAR_CHENA;
 8002688:	f8d0 c000 	ldr.w	ip, [r0]
 800268c:	f04c 4c00 	orr.w	ip, ip, #2147483648	; 0x80000000
 8002690:	f8c0 c000 	str.w	ip, [r0]
  USBx_HC(ch_num)->HCCHAR = tmpreg;
 8002694:	6800      	ldr	r0, [r0, #0]
 8002696:	f8c5 0500 	str.w	r0, [r5, #1280]	; 0x500
  if (dma == 0U) /* Slave mode */
 800269a:	2e00      	cmp	r6, #0
 800269c:	d191      	bne.n	80025c2 <USB_HC_StartXfer+0x22>
    if ((hc->ep_is_in == 0U) && (hc->xfer_len > 0U))
 800269e:	2f00      	cmp	r7, #0
 80026a0:	d18f      	bne.n	80025c2 <USB_HC_StartXfer+0x22>
 80026a2:	2b00      	cmp	r3, #0
 80026a4:	d08d      	beq.n	80025c2 <USB_HC_StartXfer+0x22>
      switch (hc->ep_type)
 80026a6:	79c8      	ldrb	r0, [r1, #7]
 80026a8:	2803      	cmp	r0, #3
 80026aa:	d813      	bhi.n	80026d4 <USB_HC_StartXfer+0x134>
 80026ac:	e8df f000 	tbb	[pc, r0]
 80026b0:	1a071a07 	.word	0x1a071a07
    num_packets = 1U;
 80026b4:	2001      	movs	r0, #1
 80026b6:	e7a3      	b.n	8002600 <USB_HC_StartXfer+0x60>
    tmpreg &= ~USB_OTG_HCCHAR_EPDIR;
 80026b8:	f42c 4c00 	bic.w	ip, ip, #32768	; 0x8000
 80026bc:	e7e2      	b.n	8002684 <USB_HC_StartXfer+0xe4>
          if (len_words > (USBx->HNPTXSTS & 0xFFFFU))
 80026be:	6ae0      	ldr	r0, [r4, #44]	; 0x2c
          len_words = (uint16_t)((hc->xfer_len + 3U) / 4U);
 80026c0:	1cdd      	adds	r5, r3, #3
          if (len_words > (USBx->HNPTXSTS & 0xFFFFU))
 80026c2:	f3c5 058f 	ubfx	r5, r5, #2, #16
 80026c6:	b280      	uxth	r0, r0
 80026c8:	4285      	cmp	r5, r0
 80026ca:	d903      	bls.n	80026d4 <USB_HC_StartXfer+0x134>
            USBx->GINTMSK |= USB_OTG_GINTMSK_NPTXFEM;
 80026cc:	69a0      	ldr	r0, [r4, #24]
 80026ce:	f040 0020 	orr.w	r0, r0, #32
            USBx->GINTMSK |= USB_OTG_GINTMSK_PTXFEM;
 80026d2:	61a0      	str	r0, [r4, #24]
      (void)USB_WritePacket(USBx, hc->xfer_buff, hc->ch_num, (uint16_t)hc->xfer_len, 0);
 80026d4:	2000      	movs	r0, #0
 80026d6:	9000      	str	r0, [sp, #0]
 80026d8:	b29b      	uxth	r3, r3
 80026da:	68c9      	ldr	r1, [r1, #12]
 80026dc:	4620      	mov	r0, r4
 80026de:	f7ff fd6d 	bl	80021bc <USB_WritePacket>
 80026e2:	e76e      	b.n	80025c2 <USB_HC_StartXfer+0x22>
          if (len_words > (USBx_HOST->HPTXSTS & 0xFFFFU)) /* split the transfer */
 80026e4:	f8de 0010 	ldr.w	r0, [lr, #16]
          len_words = (uint16_t)((hc->xfer_len + 3U) / 4U);
 80026e8:	1cdd      	adds	r5, r3, #3
          if (len_words > (USBx_HOST->HPTXSTS & 0xFFFFU)) /* split the transfer */
 80026ea:	f3c5 058f 	ubfx	r5, r5, #2, #16
 80026ee:	b280      	uxth	r0, r0
 80026f0:	4285      	cmp	r5, r0
 80026f2:	d9ef      	bls.n	80026d4 <USB_HC_StartXfer+0x134>
            USBx->GINTMSK |= USB_OTG_GINTMSK_PTXFEM;
 80026f4:	69a0      	ldr	r0, [r4, #24]
 80026f6:	f040 6080 	orr.w	r0, r0, #67108864	; 0x4000000
 80026fa:	e7ea      	b.n	80026d2 <USB_HC_StartXfer+0x132>
 80026fc:	200000ac 	.word	0x200000ac
 8002700:	1ff80000 	.word	0x1ff80000

08002704 <USB_StopHost>:
  USBx->GAHBCFG &= ~USB_OTG_GAHBCFG_GINT;
 8002704:	6883      	ldr	r3, [r0, #8]
 8002706:	f023 0301 	bic.w	r3, r3, #1
  * @brief  Stop Host Core
  * @param  USBx  Selected device
  * @retval HAL state
  */
HAL_StatusTypeDef USB_StopHost(USB_OTG_GlobalTypeDef *USBx)
{
 800270a:	b510      	push	{r4, lr}


  (void)USB_DisableGlobalInt(USBx);

  /* Flush FIFO */
  (void)USB_FlushTxFifo(USBx, 0x10U);
 800270c:	2110      	movs	r1, #16
{
 800270e:	4604      	mov	r4, r0
  USBx->GAHBCFG &= ~USB_OTG_GAHBCFG_GINT;
 8002710:	6083      	str	r3, [r0, #8]
  (void)USB_FlushTxFifo(USBx, 0x10U);
 8002712:	f7ff fd31 	bl	8002178 <USB_FlushTxFifo>
  (void)USB_FlushRxFifo(USBx);
 8002716:	4620      	mov	r0, r4
 8002718:	f7ff fd40 	bl	800219c <USB_FlushRxFifo>
 800271c:	f504 63a0 	add.w	r3, r4, #1280	; 0x500
 8002720:	f504 60e0 	add.w	r0, r4, #1792	; 0x700
 8002724:	461a      	mov	r2, r3

  /* Flush out any leftover queued requests. */
  for (i = 0U; i <= 15U; i++)
  {
    value = USBx_HC(i)->HCCHAR;
 8002726:	6811      	ldr	r1, [r2, #0]
 8002728:	f021 2180 	bic.w	r1, r1, #2147516416	; 0x80008000
    value |=  USB_OTG_HCCHAR_CHDIS;
    value &= ~USB_OTG_HCCHAR_CHENA;
    value &= ~USB_OTG_HCCHAR_EPDIR;
 800272c:	f041 4180 	orr.w	r1, r1, #1073741824	; 0x40000000
    USBx_HC(i)->HCCHAR = value;
 8002730:	f842 1b20 	str.w	r1, [r2], #32
  for (i = 0U; i <= 15U; i++)
 8002734:	4290      	cmp	r0, r2
 8002736:	d1f6      	bne.n	8002726 <USB_StopHost+0x22>
 8002738:	2000      	movs	r0, #0
  }

  /* Halt all channels to put them into a known state. */
  for (i = 0U; i <= 15U; i++)
  {
    value = USBx_HC(i)->HCCHAR;
 800273a:	6819      	ldr	r1, [r3, #0]
 800273c:	f421 4100 	bic.w	r1, r1, #32768	; 0x8000
    value |= USB_OTG_HCCHAR_CHDIS;
    value |= USB_OTG_HCCHAR_CHENA;
    value &= ~USB_OTG_HCCHAR_EPDIR;
 8002740:	f041 4140 	orr.w	r1, r1, #3221225472	; 0xc0000000
    USBx_HC(i)->HCCHAR = value;
 8002744:	6019      	str	r1, [r3, #0]

    do
    {
      if (++count > 1000U)
 8002746:	3001      	adds	r0, #1
 8002748:	f5b0 7f7a 	cmp.w	r0, #1000	; 0x3e8
 800274c:	d802      	bhi.n	8002754 <USB_StopHost+0x50>
      {
        break;
      }
    }
    while ((USBx_HC(i)->HCCHAR & USB_OTG_HCCHAR_CHENA) == USB_OTG_HCCHAR_CHENA);
 800274e:	6819      	ldr	r1, [r3, #0]
 8002750:	2900      	cmp	r1, #0
 8002752:	dbf8      	blt.n	8002746 <USB_StopHost+0x42>
 8002754:	3320      	adds	r3, #32
  for (i = 0U; i <= 15U; i++)
 8002756:	429a      	cmp	r2, r3
 8002758:	d1ef      	bne.n	800273a <USB_StopHost+0x36>
  }

  /* Clear any pending Host interrupts */
  USBx_HOST->HAINT = 0xFFFFFFFFU;
 800275a:	f04f 33ff 	mov.w	r3, #4294967295
 800275e:	f8c4 3414 	str.w	r3, [r4, #1044]	; 0x414
  USBx->GINTSTS = 0xFFFFFFFFU;
 8002762:	6163      	str	r3, [r4, #20]
  USBx->GAHBCFG |= USB_OTG_GAHBCFG_GINT;
 8002764:	68a3      	ldr	r3, [r4, #8]
 8002766:	f043 0301 	orr.w	r3, r3, #1
 800276a:	60a3      	str	r3, [r4, #8]
  (void)USB_EnableGlobalInt(USBx);

  return HAL_OK;
}
 800276c:	2000      	movs	r0, #0
 800276e:	bd10      	pop	{r4, pc}

08002770 <USBH_CDC_SOFProcess>:
  * @retval USBH Status
  */
static USBH_StatusTypeDef USBH_CDC_SOFProcess (USBH_HandleTypeDef *phost)
{
  return USBH_OK;
}
 8002770:	2000      	movs	r0, #0
 8002772:	4770      	bx	lr

08002774 <USBH_CDC_InterfaceDeInit>:
{
 8002774:	b538      	push	{r3, r4, r5, lr}
  CDC_HandleTypeDef *CDC_Handle =  (CDC_HandleTypeDef*) phost->pActiveClass->pData;
 8002776:	f8d0 3378 	ldr.w	r3, [r0, #888]	; 0x378
 800277a:	69dc      	ldr	r4, [r3, #28]
  if ( CDC_Handle->CommItf.NotifPipe)
 800277c:	7821      	ldrb	r1, [r4, #0]
{
 800277e:	4605      	mov	r5, r0
  if ( CDC_Handle->CommItf.NotifPipe)
 8002780:	b139      	cbz	r1, 8002792 <USBH_CDC_InterfaceDeInit+0x1e>
    USBH_ClosePipe(phost, CDC_Handle->CommItf.NotifPipe);
 8002782:	f000 fe17 	bl	80033b4 <USBH_ClosePipe>
    USBH_FreePipe  (phost, CDC_Handle->CommItf.NotifPipe);
 8002786:	7821      	ldrb	r1, [r4, #0]
 8002788:	4628      	mov	r0, r5
 800278a:	f000 fe2f 	bl	80033ec <USBH_FreePipe>
    CDC_Handle->CommItf.NotifPipe = 0U;     /* Reset the Channel as Free */
 800278e:	2300      	movs	r3, #0
 8002790:	7023      	strb	r3, [r4, #0]
  if ( CDC_Handle->DataItf.InPipe)
 8002792:	7b21      	ldrb	r1, [r4, #12]
 8002794:	b141      	cbz	r1, 80027a8 <USBH_CDC_InterfaceDeInit+0x34>
    USBH_ClosePipe(phost, CDC_Handle->DataItf.InPipe);
 8002796:	4628      	mov	r0, r5
 8002798:	f000 fe0c 	bl	80033b4 <USBH_ClosePipe>
    USBH_FreePipe  (phost, CDC_Handle->DataItf.InPipe);
 800279c:	7b21      	ldrb	r1, [r4, #12]
 800279e:	4628      	mov	r0, r5
 80027a0:	f000 fe24 	bl	80033ec <USBH_FreePipe>
    CDC_Handle->DataItf.InPipe = 0U;     /* Reset the Channel as Free */
 80027a4:	2300      	movs	r3, #0
 80027a6:	7323      	strb	r3, [r4, #12]
  if ( CDC_Handle->DataItf.OutPipe)
 80027a8:	7b61      	ldrb	r1, [r4, #13]
 80027aa:	b141      	cbz	r1, 80027be <USBH_CDC_InterfaceDeInit+0x4a>
    USBH_ClosePipe(phost, CDC_Handle->DataItf.OutPipe);
 80027ac:	4628      	mov	r0, r5
 80027ae:	f000 fe01 	bl	80033b4 <USBH_ClosePipe>
    USBH_FreePipe  (phost, CDC_Handle->DataItf.OutPipe);
 80027b2:	7b61      	ldrb	r1, [r4, #13]
 80027b4:	4628      	mov	r0, r5
 80027b6:	f000 fe19 	bl	80033ec <USBH_FreePipe>
    CDC_Handle->DataItf.OutPipe = 0U;    /* Reset the Channel as Free */
 80027ba:	2300      	movs	r3, #0
 80027bc:	7363      	strb	r3, [r4, #13]
  if(phost->pActiveClass->pData)
 80027be:	f8d5 3378 	ldr.w	r3, [r5, #888]	; 0x378
 80027c2:	69d8      	ldr	r0, [r3, #28]
 80027c4:	b128      	cbz	r0, 80027d2 <USBH_CDC_InterfaceDeInit+0x5e>
    USBH_free (phost->pActiveClass->pData);
 80027c6:	f001 fbc1 	bl	8003f4c <free>
    phost->pActiveClass->pData = 0U;
 80027ca:	f8d5 3378 	ldr.w	r3, [r5, #888]	; 0x378
 80027ce:	2200      	movs	r2, #0
 80027d0:	61da      	str	r2, [r3, #28]
}
 80027d2:	2000      	movs	r0, #0
 80027d4:	bd38      	pop	{r3, r4, r5, pc}

080027d6 <USBH_CDC_InterfaceInit>:
{
 80027d6:	b5f0      	push	{r4, r5, r6, r7, lr}
  interface = USBH_FindInterface(phost,
 80027d8:	2202      	movs	r2, #2
{
 80027da:	b085      	sub	sp, #20
  interface = USBH_FindInterface(phost,
 80027dc:	2301      	movs	r3, #1
 80027de:	4611      	mov	r1, r2
{
 80027e0:	4605      	mov	r5, r0
  interface = USBH_FindInterface(phost,
 80027e2:	f000 f9b2 	bl	8002b4a <USBH_FindInterface>
  if(interface == 0xFFU) /* No Valid Interface */
 80027e6:	28ff      	cmp	r0, #255	; 0xff
  interface = USBH_FindInterface(phost,
 80027e8:	4606      	mov	r6, r0
  if(interface == 0xFFU) /* No Valid Interface */
 80027ea:	d102      	bne.n	80027f2 <USBH_CDC_InterfaceInit+0x1c>
  USBH_StatusTypeDef status = USBH_FAIL ;
 80027ec:	2002      	movs	r0, #2
}
 80027ee:	b005      	add	sp, #20
 80027f0:	bdf0      	pop	{r4, r5, r6, r7, pc}
    USBH_SelectInterface (phost, interface);
 80027f2:	4601      	mov	r1, r0
 80027f4:	4628      	mov	r0, r5
 80027f6:	f000 f99f 	bl	8002b38 <USBH_SelectInterface>
    phost->pActiveClass->pData = (CDC_HandleTypeDef *)USBH_malloc (sizeof(CDC_HandleTypeDef));
 80027fa:	2050      	movs	r0, #80	; 0x50
 80027fc:	f8d5 7378 	ldr.w	r7, [r5, #888]	; 0x378
 8002800:	f001 fb9c 	bl	8003f3c <malloc>
    if(phost->device.CfgDesc.Itf_Desc[interface].Ep_Desc[0].bEndpointAddress & 0x80U)
 8002804:	231a      	movs	r3, #26
 8002806:	fb03 5606 	mla	r6, r3, r6, r5
    phost->pActiveClass->pData = (CDC_HandleTypeDef *)USBH_malloc (sizeof(CDC_HandleTypeDef));
 800280a:	61f8      	str	r0, [r7, #28]
    if(phost->device.CfgDesc.Itf_Desc[interface].Ep_Desc[0].bEndpointAddress & 0x80U)
 800280c:	f896 334a 	ldrb.w	r3, [r6, #842]	; 0x34a
 8002810:	061a      	lsls	r2, r3, #24
      CDC_Handle->CommItf.NotifEp = phost->device.CfgDesc.Itf_Desc[interface].Ep_Desc[0].bEndpointAddress;
 8002812:	bf42      	ittt	mi
 8002814:	7043      	strbmi	r3, [r0, #1]
      CDC_Handle->CommItf.NotifEpSize  = phost->device.CfgDesc.Itf_Desc[interface].Ep_Desc[0].wMaxPacketSize;
 8002816:	f8b6 334c 	ldrhmi.w	r3, [r6, #844]	; 0x34c
 800281a:	8143      	strhmi	r3, [r0, #10]
    phost->pActiveClass->pData = (CDC_HandleTypeDef *)USBH_malloc (sizeof(CDC_HandleTypeDef));
 800281c:	4604      	mov	r4, r0
    CDC_Handle->CommItf.NotifPipe = USBH_AllocPipe(phost, CDC_Handle->CommItf.NotifEp);
 800281e:	7841      	ldrb	r1, [r0, #1]
 8002820:	4628      	mov	r0, r5
 8002822:	f000 fdcc 	bl	80033be <USBH_AllocPipe>
 8002826:	4601      	mov	r1, r0
 8002828:	7020      	strb	r0, [r4, #0]
    USBH_OpenPipe  (phost,
 800282a:	8960      	ldrh	r0, [r4, #10]
 800282c:	9002      	str	r0, [sp, #8]
 800282e:	2003      	movs	r0, #3
 8002830:	9001      	str	r0, [sp, #4]
 8002832:	f895 031d 	ldrb.w	r0, [r5, #797]	; 0x31d
 8002836:	f895 331c 	ldrb.w	r3, [r5, #796]	; 0x31c
 800283a:	7862      	ldrb	r2, [r4, #1]
 800283c:	9000      	str	r0, [sp, #0]
 800283e:	4628      	mov	r0, r5
 8002840:	f000 fda9 	bl	8003396 <USBH_OpenPipe>
    USBH_LL_SetToggle (phost, CDC_Handle->CommItf.NotifPipe, 0U);
 8002844:	2200      	movs	r2, #0
 8002846:	7821      	ldrb	r1, [r4, #0]
 8002848:	4628      	mov	r0, r5
 800284a:	f001 fb08 	bl	8003e5e <USBH_LL_SetToggle>
    interface = USBH_FindInterface(phost,
 800284e:	2300      	movs	r3, #0
 8002850:	461a      	mov	r2, r3
 8002852:	210a      	movs	r1, #10
 8002854:	4628      	mov	r0, r5
 8002856:	f000 f978 	bl	8002b4a <USBH_FindInterface>
    if(interface == 0xFFU) /* No Valid Interface */
 800285a:	28ff      	cmp	r0, #255	; 0xff
 800285c:	d0c6      	beq.n	80027ec <USBH_CDC_InterfaceInit+0x16>
      if(phost->device.CfgDesc.Itf_Desc[interface].Ep_Desc[0].bEndpointAddress & 0x80U)
 800285e:	231a      	movs	r3, #26
 8002860:	fb03 5100 	mla	r1, r3, r0, r5
      if(phost->device.CfgDesc.Itf_Desc[interface].Ep_Desc[1].bEndpointAddress & 0x80U)
 8002864:	fb03 5000 	mla	r0, r3, r0, r5
      if(phost->device.CfgDesc.Itf_Desc[interface].Ep_Desc[0].bEndpointAddress & 0x80U)
 8002868:	f891 234a 	ldrb.w	r2, [r1, #842]	; 0x34a
      if(phost->device.CfgDesc.Itf_Desc[interface].Ep_Desc[1].bEndpointAddress & 0x80U)
 800286c:	f890 3352 	ldrb.w	r3, [r0, #850]	; 0x352
 8002870:	f8b1 134c 	ldrh.w	r1, [r1, #844]	; 0x34c
      if(phost->device.CfgDesc.Itf_Desc[interface].Ep_Desc[0].bEndpointAddress & 0x80U)
 8002874:	f012 0f80 	tst.w	r2, #128	; 0x80
        CDC_Handle->DataItf.OutEp = phost->device.CfgDesc.Itf_Desc[interface].Ep_Desc[0].bEndpointAddress;
 8002878:	bf0d      	iteet	eq
 800287a:	73a2      	strbeq	r2, [r4, #14]
        CDC_Handle->DataItf.InEp = phost->device.CfgDesc.Itf_Desc[interface].Ep_Desc[0].bEndpointAddress;
 800287c:	73e2      	strbne	r2, [r4, #15]
        CDC_Handle->DataItf.InEpSize  = phost->device.CfgDesc.Itf_Desc[interface].Ep_Desc[0].wMaxPacketSize;
 800287e:	8361      	strhne	r1, [r4, #26]
        CDC_Handle->DataItf.OutEpSize  = phost->device.CfgDesc.Itf_Desc[interface].Ep_Desc[0].wMaxPacketSize;
 8002880:	8321      	strheq	r1, [r4, #24]
      if(phost->device.CfgDesc.Itf_Desc[interface].Ep_Desc[1].bEndpointAddress & 0x80U)
 8002882:	f013 0f80 	tst.w	r3, #128	; 0x80
        CDC_Handle->DataItf.OutEp = phost->device.CfgDesc.Itf_Desc[interface].Ep_Desc[1].bEndpointAddress;
 8002886:	bf08      	it	eq
 8002888:	73a3      	strbeq	r3, [r4, #14]
 800288a:	f8b0 2354 	ldrh.w	r2, [r0, #852]	; 0x354
      CDC_Handle->DataItf.OutPipe = USBH_AllocPipe(phost, CDC_Handle->DataItf.OutEp);
 800288e:	7ba1      	ldrb	r1, [r4, #14]
        CDC_Handle->DataItf.InEp = phost->device.CfgDesc.Itf_Desc[interface].Ep_Desc[1].bEndpointAddress;
 8002890:	bf18      	it	ne
 8002892:	73e3      	strbne	r3, [r4, #15]
      CDC_Handle->DataItf.OutPipe = USBH_AllocPipe(phost, CDC_Handle->DataItf.OutEp);
 8002894:	4628      	mov	r0, r5
        CDC_Handle->DataItf.InEpSize  = phost->device.CfgDesc.Itf_Desc[interface].Ep_Desc[1].wMaxPacketSize;
 8002896:	bf14      	ite	ne
 8002898:	8362      	strhne	r2, [r4, #26]
        CDC_Handle->DataItf.OutEpSize  = phost->device.CfgDesc.Itf_Desc[interface].Ep_Desc[1].wMaxPacketSize;
 800289a:	8322      	strheq	r2, [r4, #24]
      CDC_Handle->DataItf.OutPipe = USBH_AllocPipe(phost, CDC_Handle->DataItf.OutEp);
 800289c:	f000 fd8f 	bl	80033be <USBH_AllocPipe>
      CDC_Handle->DataItf.InPipe = USBH_AllocPipe(phost, CDC_Handle->DataItf.InEp);
 80028a0:	7be1      	ldrb	r1, [r4, #15]
      CDC_Handle->DataItf.OutPipe = USBH_AllocPipe(phost, CDC_Handle->DataItf.OutEp);
 80028a2:	7360      	strb	r0, [r4, #13]
      CDC_Handle->DataItf.InPipe = USBH_AllocPipe(phost, CDC_Handle->DataItf.InEp);
 80028a4:	4628      	mov	r0, r5
 80028a6:	f000 fd8a 	bl	80033be <USBH_AllocPipe>
 80028aa:	7320      	strb	r0, [r4, #12]
      USBH_OpenPipe  (phost,
 80028ac:	8b20      	ldrh	r0, [r4, #24]
 80028ae:	9002      	str	r0, [sp, #8]
 80028b0:	2602      	movs	r6, #2
 80028b2:	f895 031d 	ldrb.w	r0, [r5, #797]	; 0x31d
 80028b6:	f895 331c 	ldrb.w	r3, [r5, #796]	; 0x31c
 80028ba:	7ba2      	ldrb	r2, [r4, #14]
 80028bc:	7b61      	ldrb	r1, [r4, #13]
 80028be:	9601      	str	r6, [sp, #4]
 80028c0:	9000      	str	r0, [sp, #0]
 80028c2:	4628      	mov	r0, r5
 80028c4:	f000 fd67 	bl	8003396 <USBH_OpenPipe>
      USBH_OpenPipe  (phost,
 80028c8:	8b60      	ldrh	r0, [r4, #26]
 80028ca:	9002      	str	r0, [sp, #8]
 80028cc:	f895 031d 	ldrb.w	r0, [r5, #797]	; 0x31d
 80028d0:	f895 331c 	ldrb.w	r3, [r5, #796]	; 0x31c
 80028d4:	7be2      	ldrb	r2, [r4, #15]
 80028d6:	7b21      	ldrb	r1, [r4, #12]
 80028d8:	9601      	str	r6, [sp, #4]
 80028da:	9000      	str	r0, [sp, #0]
      CDC_Handle->state = CDC_IDLE_STATE;
 80028dc:	2600      	movs	r6, #0
      USBH_OpenPipe  (phost,
 80028de:	4628      	mov	r0, r5
 80028e0:	f000 fd59 	bl	8003396 <USBH_OpenPipe>
      USBH_LL_SetToggle (phost, CDC_Handle->DataItf.OutPipe, 0U);
 80028e4:	4632      	mov	r2, r6
 80028e6:	7b61      	ldrb	r1, [r4, #13]
      CDC_Handle->state = CDC_IDLE_STATE;
 80028e8:	f884 604c 	strb.w	r6, [r4, #76]	; 0x4c
      USBH_LL_SetToggle (phost, CDC_Handle->DataItf.OutPipe, 0U);
 80028ec:	4628      	mov	r0, r5
 80028ee:	f001 fab6 	bl	8003e5e <USBH_LL_SetToggle>
      USBH_LL_SetToggle (phost, CDC_Handle->DataItf.InPipe, 0U);
 80028f2:	4632      	mov	r2, r6
 80028f4:	7b21      	ldrb	r1, [r4, #12]
 80028f6:	4628      	mov	r0, r5
 80028f8:	f001 fab1 	bl	8003e5e <USBH_LL_SetToggle>
      status = USBH_OK;
 80028fc:	4630      	mov	r0, r6
 80028fe:	e776      	b.n	80027ee <USBH_CDC_InterfaceInit+0x18>

08002900 <USBH_CDC_ClassRequest>:
{
 8002900:	b538      	push	{r3, r4, r5, lr}
  CDC_HandleTypeDef *CDC_Handle =  (CDC_HandleTypeDef*) phost->pActiveClass->pData;
 8002902:	f8d0 3378 	ldr.w	r3, [r0, #888]	; 0x378
 8002906:	69d9      	ldr	r1, [r3, #28]
  * @retval USBH_StatusTypeDef : USB ctl xfer status
  */
static USBH_StatusTypeDef GetLineCoding(USBH_HandleTypeDef *phost, CDC_LineCodingTypeDef *linecoding)
{

  phost->Control.setup.b.bmRequestType = USB_D2H | USB_REQ_TYPE_CLASS | \
 8002908:	23a1      	movs	r3, #161	; 0xa1
 800290a:	7403      	strb	r3, [r0, #16]
                              USB_REQ_RECIPIENT_INTERFACE;

  phost->Control.setup.b.bRequest = CDC_GET_LINE_CODING;
 800290c:	2321      	movs	r3, #33	; 0x21
 800290e:	7443      	strb	r3, [r0, #17]
  phost->Control.setup.b.wValue.w = 0U;
  phost->Control.setup.b.wIndex.w = 0U;
  phost->Control.setup.b.wLength.w = LINE_CODING_STRUCTURE_SIZE;
 8002910:	2207      	movs	r2, #7
  phost->Control.setup.b.wValue.w = 0U;
 8002912:	2300      	movs	r3, #0
 8002914:	8243      	strh	r3, [r0, #18]
  phost->Control.setup.b.wIndex.w = 0U;
 8002916:	8283      	strh	r3, [r0, #20]
  phost->Control.setup.b.wLength.w = LINE_CODING_STRUCTURE_SIZE;
 8002918:	82c2      	strh	r2, [r0, #22]

  return USBH_CtlReq(phost, linecoding->Array, LINE_CODING_STRUCTURE_SIZE);
 800291a:	3140      	adds	r1, #64	; 0x40
{
 800291c:	4604      	mov	r4, r0
  return USBH_CtlReq(phost, linecoding->Array, LINE_CODING_STRUCTURE_SIZE);
 800291e:	f000 fac9 	bl	8002eb4 <USBH_CtlReq>
  if(status == USBH_OK)
 8002922:	4605      	mov	r5, r0
 8002924:	b920      	cbnz	r0, 8002930 <USBH_CDC_ClassRequest+0x30>
    phost->pUser(phost, HOST_USER_CLASS_ACTIVE);
 8002926:	f8d4 33c8 	ldr.w	r3, [r4, #968]	; 0x3c8
 800292a:	2102      	movs	r1, #2
 800292c:	4620      	mov	r0, r4
 800292e:	4798      	blx	r3
}
 8002930:	4628      	mov	r0, r5
 8002932:	bd38      	pop	{r3, r4, r5, pc}

08002934 <USBH_CDC_TransmitCallback>:
 8002934:	4770      	bx	lr

08002936 <USBH_CDC_ReceiveCallback>:
 8002936:	4770      	bx	lr

08002938 <USBH_CDC_LineCodingChanged>:
* @brief  The function informs user that Settings have been changed
*  @param  pdev: Selected device
* @retval None
*/
__weak void USBH_CDC_LineCodingChanged(USBH_HandleTypeDef *phost)
{
 8002938:	4770      	bx	lr

0800293a <USBH_CDC_Process>:
  CDC_HandleTypeDef *CDC_Handle =  (CDC_HandleTypeDef*) phost->pActiveClass->pData;
 800293a:	f8d0 3378 	ldr.w	r3, [r0, #888]	; 0x378
{
 800293e:	b573      	push	{r0, r1, r4, r5, r6, lr}
  CDC_HandleTypeDef *CDC_Handle =  (CDC_HandleTypeDef*) phost->pActiveClass->pData;
 8002940:	69dc      	ldr	r4, [r3, #28]
  switch(CDC_Handle->state)
 8002942:	f894 304c 	ldrb.w	r3, [r4, #76]	; 0x4c
{
 8002946:	4605      	mov	r5, r0
  switch(CDC_Handle->state)
 8002948:	2b04      	cmp	r3, #4
 800294a:	d83d      	bhi.n	80029c8 <USBH_CDC_Process+0x8e>
 800294c:	e8df f003 	tbb	[pc, r3]
 8002950:	42170603 	.word	0x42170603
 8002954:	a6          	.byte	0xa6
 8002955:	00          	.byte	0x00
    status = USBH_OK;
 8002956:	2000      	movs	r0, #0
}
 8002958:	b002      	add	sp, #8
 800295a:	bd70      	pop	{r4, r5, r6, pc}
  phost->Control.setup.b.bmRequestType = USB_H2D | USB_REQ_TYPE_CLASS |
 800295c:	2321      	movs	r3, #33	; 0x21
    req_status = SetLineCoding(phost, CDC_Handle->pUserLineCoding);
 800295e:	6ca1      	ldr	r1, [r4, #72]	; 0x48
  phost->Control.setup.b.bmRequestType = USB_H2D | USB_REQ_TYPE_CLASS |
 8002960:	7403      	strb	r3, [r0, #16]
  phost->Control.setup.b.bRequest = CDC_SET_LINE_CODING;
 8002962:	2320      	movs	r3, #32
 8002964:	7443      	strb	r3, [r0, #17]
  phost->Control.setup.b.wLength.w = LINE_CODING_STRUCTURE_SIZE;
 8002966:	2207      	movs	r2, #7
  phost->Control.setup.b.wValue.w = 0U;
 8002968:	2300      	movs	r3, #0
 800296a:	8243      	strh	r3, [r0, #18]
  phost->Control.setup.b.wIndex.w = 0U;
 800296c:	8283      	strh	r3, [r0, #20]
  phost->Control.setup.b.wLength.w = LINE_CODING_STRUCTURE_SIZE;
 800296e:	82c2      	strh	r2, [r0, #22]
  return USBH_CtlReq(phost, linecoding->Array, LINE_CODING_STRUCTURE_SIZE);
 8002970:	f000 faa0 	bl	8002eb4 <USBH_CtlReq>
    if(req_status == USBH_OK)
 8002974:	bb50      	cbnz	r0, 80029cc <USBH_CDC_Process+0x92>
      CDC_Handle->state = CDC_GET_LAST_LINE_CODING_STATE;
 8002976:	2302      	movs	r3, #2
        CDC_Handle->state = CDC_ERROR_STATE;
 8002978:	f884 304c 	strb.w	r3, [r4, #76]	; 0x4c
 800297c:	e024      	b.n	80029c8 <USBH_CDC_Process+0x8e>
  phost->Control.setup.b.bmRequestType = USB_D2H | USB_REQ_TYPE_CLASS | \
 800297e:	23a1      	movs	r3, #161	; 0xa1
 8002980:	7403      	strb	r3, [r0, #16]
  phost->Control.setup.b.bRequest = CDC_GET_LINE_CODING;
 8002982:	2321      	movs	r3, #33	; 0x21
 8002984:	7443      	strb	r3, [r0, #17]
  phost->Control.setup.b.wLength.w = LINE_CODING_STRUCTURE_SIZE;
 8002986:	2207      	movs	r2, #7
  phost->Control.setup.b.wValue.w = 0U;
 8002988:	2300      	movs	r3, #0
 800298a:	8243      	strh	r3, [r0, #18]
  phost->Control.setup.b.wIndex.w = 0U;
 800298c:	8283      	strh	r3, [r0, #20]
  phost->Control.setup.b.wLength.w = LINE_CODING_STRUCTURE_SIZE;
 800298e:	82c2      	strh	r2, [r0, #22]
  return USBH_CtlReq(phost, linecoding->Array, LINE_CODING_STRUCTURE_SIZE);
 8002990:	f104 0140 	add.w	r1, r4, #64	; 0x40
 8002994:	f000 fa8e 	bl	8002eb4 <USBH_CtlReq>
    if(req_status == USBH_OK)
 8002998:	b9c0      	cbnz	r0, 80029cc <USBH_CDC_Process+0x92>
      if((CDC_Handle->LineCoding.b.bCharFormat == CDC_Handle->pUserLineCoding->b.bCharFormat) &&
 800299a:	6c62      	ldr	r2, [r4, #68]	; 0x44
 800299c:	6ca3      	ldr	r3, [r4, #72]	; 0x48
      CDC_Handle->state = CDC_IDLE_STATE;
 800299e:	f884 004c 	strb.w	r0, [r4, #76]	; 0x4c
      if((CDC_Handle->LineCoding.b.bCharFormat == CDC_Handle->pUserLineCoding->b.bCharFormat) &&
 80029a2:	f002 11ff 	and.w	r1, r2, #16711935	; 0xff00ff
 80029a6:	685a      	ldr	r2, [r3, #4]
 80029a8:	f002 12ff 	and.w	r2, r2, #16711935	; 0xff00ff
 80029ac:	4291      	cmp	r1, r2
 80029ae:	d10b      	bne.n	80029c8 <USBH_CDC_Process+0x8e>
         (CDC_Handle->LineCoding.b.bDataBits == CDC_Handle->pUserLineCoding->b.bDataBits) &&
 80029b0:	f894 1045 	ldrb.w	r1, [r4, #69]	; 0x45
 80029b4:	795a      	ldrb	r2, [r3, #5]
 80029b6:	4291      	cmp	r1, r2
 80029b8:	d106      	bne.n	80029c8 <USBH_CDC_Process+0x8e>
         (CDC_Handle->LineCoding.b.bParityType == CDC_Handle->pUserLineCoding->b.bParityType) &&
 80029ba:	6c22      	ldr	r2, [r4, #64]	; 0x40
 80029bc:	681b      	ldr	r3, [r3, #0]
 80029be:	429a      	cmp	r2, r3
 80029c0:	d102      	bne.n	80029c8 <USBH_CDC_Process+0x8e>
        USBH_CDC_LineCodingChanged(phost);
 80029c2:	4628      	mov	r0, r5
 80029c4:	f7ff ffb8 	bl	8002938 <USBH_CDC_LineCodingChanged>
  USBH_StatusTypeDef status = USBH_BUSY;
 80029c8:	2001      	movs	r0, #1
 80029ca:	e7c5      	b.n	8002958 <USBH_CDC_Process+0x1e>
      if(req_status != USBH_BUSY)
 80029cc:	2801      	cmp	r0, #1
 80029ce:	d0fb      	beq.n	80029c8 <USBH_CDC_Process+0x8e>
        CDC_Handle->state = CDC_ERROR_STATE;
 80029d0:	2304      	movs	r3, #4
 80029d2:	e7d1      	b.n	8002978 <USBH_CDC_Process+0x3e>
  switch (CDC_Handle->data_tx_state)
 80029d4:	f894 104d 	ldrb.w	r1, [r4, #77]	; 0x4d
 80029d8:	2901      	cmp	r1, #1
 80029da:	d021      	beq.n	8002a20 <USBH_CDC_Process+0xe6>
 80029dc:	2902      	cmp	r1, #2
 80029de:	d02e      	beq.n	8002a3e <USBH_CDC_Process+0x104>
  CDC_HandleTypeDef *CDC_Handle =  (CDC_HandleTypeDef*) phost->pActiveClass->pData;
 80029e0:	f8d5 3378 	ldr.w	r3, [r5, #888]	; 0x378
 80029e4:	69de      	ldr	r6, [r3, #28]
  switch(CDC_Handle->data_rx_state)
 80029e6:	f896 304e 	ldrb.w	r3, [r6, #78]	; 0x4e
 80029ea:	2b03      	cmp	r3, #3
 80029ec:	d045      	beq.n	8002a7a <USBH_CDC_Process+0x140>
 80029ee:	2b04      	cmp	r3, #4
 80029f0:	d1ea      	bne.n	80029c8 <USBH_CDC_Process+0x8e>
    URB_Status = USBH_LL_GetURBState(phost, CDC_Handle->DataItf.InPipe);
 80029f2:	7b31      	ldrb	r1, [r6, #12]
 80029f4:	4628      	mov	r0, r5
 80029f6:	f001 fa21 	bl	8003e3c <USBH_LL_GetURBState>
    if(URB_Status == USBH_URB_DONE)
 80029fa:	2801      	cmp	r0, #1
 80029fc:	d1e4      	bne.n	80029c8 <USBH_CDC_Process+0x8e>
      length = USBH_LL_GetLastXferSize(phost, CDC_Handle->DataItf.InPipe);
 80029fe:	7b31      	ldrb	r1, [r6, #12]
 8002a00:	4628      	mov	r0, r5
 8002a02:	f001 f9d7 	bl	8003db4 <USBH_LL_GetLastXferSize>
      if(((CDC_Handle->RxDataLength - length) > 0U) && (length > CDC_Handle->DataItf.InEpSize))
 8002a06:	6ab3      	ldr	r3, [r6, #40]	; 0x28
 8002a08:	4298      	cmp	r0, r3
 8002a0a:	d040      	beq.n	8002a8e <USBH_CDC_Process+0x154>
 8002a0c:	8b72      	ldrh	r2, [r6, #26]
 8002a0e:	4290      	cmp	r0, r2
 8002a10:	d93d      	bls.n	8002a8e <USBH_CDC_Process+0x154>
        CDC_Handle->RxDataLength -= length ;
 8002a12:	1a1b      	subs	r3, r3, r0
 8002a14:	62b3      	str	r3, [r6, #40]	; 0x28
        CDC_Handle->pRxData += length;
 8002a16:	6a33      	ldr	r3, [r6, #32]
 8002a18:	4418      	add	r0, r3
 8002a1a:	6230      	str	r0, [r6, #32]
        CDC_Handle->data_rx_state = CDC_RECEIVE_DATA;
 8002a1c:	2303      	movs	r3, #3
 8002a1e:	e033      	b.n	8002a88 <USBH_CDC_Process+0x14e>
    if (CDC_Handle->TxDataLength > CDC_Handle->DataItf.OutEpSize)
 8002a20:	6a60      	ldr	r0, [r4, #36]	; 0x24
 8002a22:	8b22      	ldrh	r2, [r4, #24]
 8002a24:	7b63      	ldrb	r3, [r4, #13]
      USBH_BulkSendData (phost,
 8002a26:	9100      	str	r1, [sp, #0]
    if (CDC_Handle->TxDataLength > CDC_Handle->DataItf.OutEpSize)
 8002a28:	4290      	cmp	r0, r2
      USBH_BulkSendData (phost,
 8002a2a:	bf98      	it	ls
 8002a2c:	b282      	uxthls	r2, r0
 8002a2e:	69e1      	ldr	r1, [r4, #28]
 8002a30:	4628      	mov	r0, r5
 8002a32:	f000 fc89 	bl	8003348 <USBH_BulkSendData>
    CDC_Handle->data_tx_state = CDC_SEND_DATA_WAIT;
 8002a36:	2302      	movs	r3, #2
        CDC_Handle->data_tx_state = CDC_SEND_DATA;
 8002a38:	f884 304d 	strb.w	r3, [r4, #77]	; 0x4d
 8002a3c:	e7d0      	b.n	80029e0 <USBH_CDC_Process+0xa6>
    URB_Status = USBH_LL_GetURBState(phost, CDC_Handle->DataItf.OutPipe);
 8002a3e:	7b61      	ldrb	r1, [r4, #13]
 8002a40:	f001 f9fc 	bl	8003e3c <USBH_LL_GetURBState>
    if (URB_Status == USBH_URB_DONE)
 8002a44:	2801      	cmp	r0, #1
 8002a46:	d115      	bne.n	8002a74 <USBH_CDC_Process+0x13a>
      if (CDC_Handle->TxDataLength > CDC_Handle->DataItf.OutEpSize)
 8002a48:	6a63      	ldr	r3, [r4, #36]	; 0x24
 8002a4a:	8b22      	ldrh	r2, [r4, #24]
 8002a4c:	4293      	cmp	r3, r2
        CDC_Handle->TxDataLength -= CDC_Handle->DataItf.OutEpSize;
 8002a4e:	bf83      	ittte	hi
 8002a50:	1a9b      	subhi	r3, r3, r2
 8002a52:	6263      	strhi	r3, [r4, #36]	; 0x24
        CDC_Handle->pTxData += CDC_Handle->DataItf.OutEpSize;
 8002a54:	69e3      	ldrhi	r3, [r4, #28]
        CDC_Handle->TxDataLength = 0U;
 8002a56:	2300      	movls	r3, #0
        CDC_Handle->pTxData += CDC_Handle->DataItf.OutEpSize;
 8002a58:	bf8a      	itet	hi
 8002a5a:	189b      	addhi	r3, r3, r2
        CDC_Handle->TxDataLength = 0U;
 8002a5c:	6263      	strls	r3, [r4, #36]	; 0x24
        CDC_Handle->pTxData += CDC_Handle->DataItf.OutEpSize;
 8002a5e:	61e3      	strhi	r3, [r4, #28]
      if (CDC_Handle->TxDataLength > 0U)
 8002a60:	6a63      	ldr	r3, [r4, #36]	; 0x24
 8002a62:	b10b      	cbz	r3, 8002a68 <USBH_CDC_Process+0x12e>
        CDC_Handle->data_tx_state = CDC_SEND_DATA;
 8002a64:	2301      	movs	r3, #1
 8002a66:	e7e7      	b.n	8002a38 <USBH_CDC_Process+0xfe>
        CDC_Handle->data_tx_state = CDC_IDLE;
 8002a68:	f884 304d 	strb.w	r3, [r4, #77]	; 0x4d
        USBH_CDC_TransmitCallback(phost);
 8002a6c:	4628      	mov	r0, r5
 8002a6e:	f7ff ff61 	bl	8002934 <USBH_CDC_TransmitCallback>
 8002a72:	e7b5      	b.n	80029e0 <USBH_CDC_Process+0xa6>
      if (URB_Status == USBH_URB_NOTREADY)
 8002a74:	2802      	cmp	r0, #2
 8002a76:	d1b3      	bne.n	80029e0 <USBH_CDC_Process+0xa6>
 8002a78:	e7f4      	b.n	8002a64 <USBH_CDC_Process+0x12a>
    USBH_BulkReceiveData (phost,
 8002a7a:	7b33      	ldrb	r3, [r6, #12]
 8002a7c:	8b72      	ldrh	r2, [r6, #26]
 8002a7e:	6a31      	ldr	r1, [r6, #32]
 8002a80:	4628      	mov	r0, r5
 8002a82:	f000 fc78 	bl	8003376 <USBH_BulkReceiveData>
    CDC_Handle->data_rx_state = CDC_RECEIVE_DATA_WAIT;
 8002a86:	2304      	movs	r3, #4
        CDC_Handle->data_rx_state = CDC_RECEIVE_DATA;
 8002a88:	f886 304e 	strb.w	r3, [r6, #78]	; 0x4e
 8002a8c:	e79c      	b.n	80029c8 <USBH_CDC_Process+0x8e>
        CDC_Handle->data_rx_state = CDC_IDLE;
 8002a8e:	2300      	movs	r3, #0
 8002a90:	f886 304e 	strb.w	r3, [r6, #78]	; 0x4e
        USBH_CDC_ReceiveCallback(phost);
 8002a94:	4628      	mov	r0, r5
 8002a96:	f7ff ff4e 	bl	8002936 <USBH_CDC_ReceiveCallback>
 8002a9a:	e795      	b.n	80029c8 <USBH_CDC_Process+0x8e>
    req_status = USBH_ClrFeature(phost, 0x00U);
 8002a9c:	2100      	movs	r1, #0
 8002a9e:	f000 fc0d 	bl	80032bc <USBH_ClrFeature>
    if(req_status == USBH_OK )
 8002aa2:	2800      	cmp	r0, #0
 8002aa4:	d190      	bne.n	80029c8 <USBH_CDC_Process+0x8e>
      CDC_Handle->state = CDC_IDLE_STATE ;
 8002aa6:	f884 004c 	strb.w	r0, [r4, #76]	; 0x4c
 8002aaa:	e78d      	b.n	80029c8 <USBH_CDC_Process+0x8e>

08002aac <DeInitStateMachine>:
  *         De-Initialize the Host state machine.
  * @param  phost: Host Handle
  * @retval USBH Status
  */
static USBH_StatusTypeDef  DeInitStateMachine(USBH_HandleTypeDef *phost)
{
 8002aac:	f500 7360 	add.w	r3, r0, #896	; 0x380
 8002ab0:	f500 726f 	add.w	r2, r0, #956	; 0x3bc
  uint32_t i = 0U;

  /* Clear Pipes flags*/
  for ( ; i < USBH_MAX_PIPES_NBR; i++)
  {
    phost->Pipes[i] = 0U;
 8002ab4:	2100      	movs	r1, #0
 8002ab6:	f843 1b04 	str.w	r1, [r3], #4
  for ( ; i < USBH_MAX_PIPES_NBR; i++)
 8002aba:	4293      	cmp	r3, r2
 8002abc:	d1fb      	bne.n	8002ab6 <DeInitStateMachine+0xa>
 8002abe:	f500 728e 	add.w	r2, r0, #284	; 0x11c
 8002ac2:	f500 7147 	add.w	r1, r0, #796	; 0x31c
  }

  for(i = 0U; i< USBH_MAX_DATA_BUFFER; i++)
  {
    phost->device.Data[i] = 0U;
 8002ac6:	2300      	movs	r3, #0
 8002ac8:	f802 3b01 	strb.w	r3, [r2], #1
  for(i = 0U; i< USBH_MAX_DATA_BUFFER; i++)
 8002acc:	4291      	cmp	r1, r2
 8002ace:	d1fb      	bne.n	8002ac8 <DeInitStateMachine+0x1c>
  }

  phost->gState = HOST_IDLE;
  phost->EnumState = ENUM_IDLE;
  phost->RequestState = CMD_SEND;
 8002ad0:	2201      	movs	r2, #1
  phost->Timer = 0U;

  phost->Control.state = CTRL_SETUP;
  phost->Control.pipe_size = USBH_MPS_DEFAULT;
 8002ad2:	2140      	movs	r1, #64	; 0x40
  phost->gState = HOST_IDLE;
 8002ad4:	7003      	strb	r3, [r0, #0]
  phost->EnumState = ENUM_IDLE;
 8002ad6:	7043      	strb	r3, [r0, #1]
  phost->RequestState = CMD_SEND;
 8002ad8:	7082      	strb	r2, [r0, #2]
  phost->Timer = 0U;
 8002ada:	f8c0 33bc 	str.w	r3, [r0, #956]	; 0x3bc
  phost->Control.state = CTRL_SETUP;
 8002ade:	7602      	strb	r2, [r0, #24]
  phost->Control.pipe_size = USBH_MPS_DEFAULT;
 8002ae0:	7181      	strb	r1, [r0, #6]
  phost->Control.errorcount = 0U;
 8002ae2:	7643      	strb	r3, [r0, #25]

  phost->device.address = USBH_ADDRESS_DEFAULT;
 8002ae4:	f880 331c 	strb.w	r3, [r0, #796]	; 0x31c
  phost->device.speed   = USBH_SPEED_FULL;
 8002ae8:	f880 231d 	strb.w	r2, [r0, #797]	; 0x31d

  return USBH_OK;
}
 8002aec:	2000      	movs	r0, #0
 8002aee:	4770      	bx	lr

08002af0 <USBH_Init>:
{
 8002af0:	b538      	push	{r3, r4, r5, lr}
 8002af2:	460d      	mov	r5, r1
  if(phost == NULL)
 8002af4:	4604      	mov	r4, r0
 8002af6:	b180      	cbz	r0, 8002b1a <USBH_Init+0x2a>
  phost->pActiveClass = NULL;
 8002af8:	2300      	movs	r3, #0
  phost->id = id;
 8002afa:	f880 23c0 	strb.w	r2, [r0, #960]	; 0x3c0
  phost->pActiveClass = NULL;
 8002afe:	f8c0 3378 	str.w	r3, [r0, #888]	; 0x378
  phost->ClassNumber = 0U;
 8002b02:	f8c0 337c 	str.w	r3, [r0, #892]	; 0x37c
  DeInitStateMachine(phost);
 8002b06:	f7ff ffd1 	bl	8002aac <DeInitStateMachine>
  if(pUsrFunc != NULL)
 8002b0a:	b10d      	cbz	r5, 8002b10 <USBH_Init+0x20>
    phost->pUser = pUsrFunc;
 8002b0c:	f8c4 53c8 	str.w	r5, [r4, #968]	; 0x3c8
  USBH_LL_Init(phost);
 8002b10:	4620      	mov	r0, r4
 8002b12:	f001 f8f1 	bl	8003cf8 <USBH_LL_Init>
  return USBH_OK;
 8002b16:	2000      	movs	r0, #0
 8002b18:	bd38      	pop	{r3, r4, r5, pc}
    return USBH_FAIL;
 8002b1a:	2002      	movs	r0, #2
}
 8002b1c:	bd38      	pop	{r3, r4, r5, pc}

08002b1e <USBH_RegisterClass>:
  */
USBH_StatusTypeDef  USBH_RegisterClass(USBH_HandleTypeDef *phost, USBH_ClassTypeDef *pclass)
{
  USBH_StatusTypeDef   status = USBH_OK;

  if(pclass != 0)
 8002b1e:	b149      	cbz	r1, 8002b34 <USBH_RegisterClass+0x16>
  {
    if(phost->ClassNumber < USBH_MAX_NUM_SUPPORTED_CLASS)
 8002b20:	f8d0 337c 	ldr.w	r3, [r0, #892]	; 0x37c
 8002b24:	b933      	cbnz	r3, 8002b34 <USBH_RegisterClass+0x16>
    {
      /* link the class to the USB Host handle */
      phost->pClass[phost->ClassNumber++] = pclass;
 8002b26:	2201      	movs	r2, #1
 8002b28:	f8c0 237c 	str.w	r2, [r0, #892]	; 0x37c
 8002b2c:	f8c0 1374 	str.w	r1, [r0, #884]	; 0x374
      status = USBH_OK;
 8002b30:	4618      	mov	r0, r3
 8002b32:	4770      	bx	lr
    }
  }
  else
  {
    USBH_ErrLog("Invalid Class handle");
    status = USBH_FAIL;
 8002b34:	2002      	movs	r0, #2
  }

  return status;
}
 8002b36:	4770      	bx	lr

08002b38 <USBH_SelectInterface>:
  */
USBH_StatusTypeDef USBH_SelectInterface(USBH_HandleTypeDef *phost, uint8_t interface)
{
  USBH_StatusTypeDef   status = USBH_OK;

  if(interface < phost->device.CfgDesc.bNumInterfaces)
 8002b38:	f890 3338 	ldrb.w	r3, [r0, #824]	; 0x338
 8002b3c:	428b      	cmp	r3, r1
  {
    phost->device.current_interface = interface;
 8002b3e:	bf86      	itte	hi
 8002b40:	f880 1320 	strbhi.w	r1, [r0, #800]	; 0x320
  USBH_StatusTypeDef   status = USBH_OK;
 8002b44:	2000      	movhi	r0, #0
    USBH_UsrLog ("Protocol : %xh", phost->device.CfgDesc.Itf_Desc[interface].bInterfaceProtocol );
  }
  else
  {
    USBH_ErrLog ("Cannot Select This Interface.");
    status = USBH_FAIL;
 8002b46:	2002      	movls	r0, #2
  }
  return status;
}
 8002b48:	4770      	bx	lr

08002b4a <USBH_FindInterface>:
  * @param  Protocol: Protocol code
  * @retval interface index in the configuration structure
  * @note : (1)interface index 0xFF means interface index not found
  */
uint8_t  USBH_FindInterface(USBH_HandleTypeDef *phost, uint8_t Class, uint8_t SubClass, uint8_t Protocol)
{
 8002b4a:	b570      	push	{r4, r5, r6, lr}
 8002b4c:	2400      	movs	r4, #0
  pcfg = &phost->device.CfgDesc;

  while (if_ix < USBH_MAX_NUM_INTERFACES)
  {
    pif = &pcfg->Itf_Desc[if_ix];
    if(((pif->bInterfaceClass == Class) || (Class == 0xFFU))&&
 8002b4e:	f890 6343 	ldrb.w	r6, [r0, #835]	; 0x343
 8002b52:	428e      	cmp	r6, r1
 8002b54:	b2e5      	uxtb	r5, r4
 8002b56:	d001      	beq.n	8002b5c <USBH_FindInterface+0x12>
 8002b58:	29ff      	cmp	r1, #255	; 0xff
 8002b5a:	d10b      	bne.n	8002b74 <USBH_FindInterface+0x2a>
 8002b5c:	f890 6344 	ldrb.w	r6, [r0, #836]	; 0x344
 8002b60:	4296      	cmp	r6, r2
 8002b62:	d001      	beq.n	8002b68 <USBH_FindInterface+0x1e>
       ((pif->bInterfaceSubClass == SubClass) || (SubClass == 0xFFU))&&
 8002b64:	2aff      	cmp	r2, #255	; 0xff
 8002b66:	d105      	bne.n	8002b74 <USBH_FindInterface+0x2a>
 8002b68:	f890 6345 	ldrb.w	r6, [r0, #837]	; 0x345
 8002b6c:	429e      	cmp	r6, r3
 8002b6e:	d007      	beq.n	8002b80 <USBH_FindInterface+0x36>
         ((pif->bInterfaceProtocol == Protocol) || (Protocol == 0xFFU)))
 8002b70:	2bff      	cmp	r3, #255	; 0xff
 8002b72:	d005      	beq.n	8002b80 <USBH_FindInterface+0x36>
 8002b74:	3401      	adds	r4, #1
  while (if_ix < USBH_MAX_NUM_INTERFACES)
 8002b76:	2c02      	cmp	r4, #2
 8002b78:	f100 001a 	add.w	r0, r0, #26
 8002b7c:	d1e7      	bne.n	8002b4e <USBH_FindInterface+0x4>
    {
      return  if_ix;
    }
    if_ix++;
  }
  return 0xFFU;
 8002b7e:	25ff      	movs	r5, #255	; 0xff
}
 8002b80:	4628      	mov	r0, r5
 8002b82:	bd70      	pop	{r4, r5, r6, pc}

08002b84 <USBH_Start>:
  *         Start the USB Host Core.
  * @param  phost: Host Handle
  * @retval USBH Status
  */
USBH_StatusTypeDef  USBH_Start  (USBH_HandleTypeDef *phost)
{
 8002b84:	b510      	push	{r4, lr}
 8002b86:	4604      	mov	r4, r0
  /* Start the low level driver  */
  USBH_LL_Start(phost);
 8002b88:	f001 f8dc 	bl	8003d44 <USBH_LL_Start>

  /* Activate VBUS on the port */
  USBH_LL_DriverVBUS (phost, TRUE);
 8002b8c:	2101      	movs	r1, #1
 8002b8e:	4620      	mov	r0, r4
 8002b90:	f001 f958 	bl	8003e44 <USBH_LL_DriverVBUS>

  return USBH_OK;
}
 8002b94:	2000      	movs	r0, #0
 8002b96:	bd10      	pop	{r4, pc}

08002b98 <USBH_Process>:
  *         Background process of the USB Core.
  * @param  phost: Host Handle
  * @retval USBH Status
  */
USBH_StatusTypeDef  USBH_Process(USBH_HandleTypeDef *phost)
{
 8002b98:	b530      	push	{r4, r5, lr}
 8002b9a:	b087      	sub	sp, #28
  __IO USBH_StatusTypeDef status = USBH_FAIL;
 8002b9c:	2302      	movs	r3, #2
 8002b9e:	f88d 3017 	strb.w	r3, [sp, #23]
  * @param  phost: Host Handle
  * @retval None
  */
uint8_t USBH_IsPortEnabled(USBH_HandleTypeDef *phost)
{
  return(phost->device.PortEnabled);
 8002ba2:	f890 331f 	ldrb.w	r3, [r0, #799]	; 0x31f
{
 8002ba6:	4604      	mov	r4, r0
  if (((USBH_IsPortEnabled(phost) == 0U)) && (phost->gState != HOST_IDLE))
 8002ba8:	b933      	cbnz	r3, 8002bb8 <USBH_Process+0x20>
 8002baa:	7802      	ldrb	r2, [r0, #0]
 8002bac:	b122      	cbz	r2, 8002bb8 <USBH_Process+0x20>
    if(phost->gState != HOST_DEV_DISCONNECTED)
 8002bae:	7802      	ldrb	r2, [r0, #0]
 8002bb0:	2a03      	cmp	r2, #3
      phost->gState = HOST_DEV_DISCONNECTED;
 8002bb2:	bf1c      	itt	ne
 8002bb4:	2203      	movne	r2, #3
 8002bb6:	7002      	strbne	r2, [r0, #0]
  switch (phost->gState)
 8002bb8:	7822      	ldrb	r2, [r4, #0]
 8002bba:	2a0b      	cmp	r2, #11
 8002bbc:	d818      	bhi.n	8002bf0 <USBH_Process+0x58>
 8002bbe:	e8df f012 	tbh	[pc, r2, lsl #1]
 8002bc2:	000c      	.short	0x000c
 8002bc4:	001f001a 	.word	0x001f001a
 8002bc8:	00170121 	.word	0x00170121
 8002bcc:	0107004f 	.word	0x0107004f
 8002bd0:	00d000c6 	.word	0x00d000c6
 8002bd4:	00e700da 	.word	0x00e700da
 8002bd8:	0118      	.short	0x0118
    if (phost->device.is_connected)
 8002bda:	f894 331e 	ldrb.w	r3, [r4, #798]	; 0x31e
 8002bde:	b13b      	cbz	r3, 8002bf0 <USBH_Process+0x58>
      phost->gState = HOST_DEV_WAIT_FOR_ATTACHMENT;
 8002be0:	2301      	movs	r3, #1
      USBH_Delay(200U);
 8002be2:	20c8      	movs	r0, #200	; 0xc8
      phost->gState = HOST_DEV_WAIT_FOR_ATTACHMENT;
 8002be4:	7023      	strb	r3, [r4, #0]
      USBH_Delay(200U);
 8002be6:	f001 f949 	bl	8003e7c <USBH_Delay>
      USBH_LL_ResetPort(phost);
 8002bea:	4620      	mov	r0, r4
 8002bec:	f001 f8d4 	bl	8003d98 <USBH_LL_ResetPort>
}
 8002bf0:	2000      	movs	r0, #0
 8002bf2:	b007      	add	sp, #28
 8002bf4:	bd30      	pop	{r4, r5, pc}
    if (phost->device.PortEnabled == 1U)
 8002bf6:	2b01      	cmp	r3, #1
 8002bf8:	d1fa      	bne.n	8002bf0 <USBH_Process+0x58>
      phost->gState = HOST_DEV_ATTACHED;
 8002bfa:	2302      	movs	r3, #2
        phost->gState  = HOST_SET_CONFIGURATION;
 8002bfc:	7023      	strb	r3, [r4, #0]
 8002bfe:	e7f7      	b.n	8002bf0 <USBH_Process+0x58>
    USBH_Delay(100U);
 8002c00:	2064      	movs	r0, #100	; 0x64
 8002c02:	f001 f93b 	bl	8003e7c <USBH_Delay>
    phost->device.speed = USBH_LL_GetSpeed(phost);
 8002c06:	4620      	mov	r0, r4
 8002c08:	f001 f8b8 	bl	8003d7c <USBH_LL_GetSpeed>
    phost->gState = HOST_ENUMERATION;
 8002c0c:	2305      	movs	r3, #5
 8002c0e:	7023      	strb	r3, [r4, #0]
    phost->device.speed = USBH_LL_GetSpeed(phost);
 8002c10:	f884 031d 	strb.w	r0, [r4, #797]	; 0x31d
    phost->Control.pipe_out = USBH_AllocPipe (phost, 0x00U);
 8002c14:	2100      	movs	r1, #0
 8002c16:	4620      	mov	r0, r4
 8002c18:	f000 fbd1 	bl	80033be <USBH_AllocPipe>
    phost->Control.pipe_in  = USBH_AllocPipe (phost, 0x80U);
 8002c1c:	2180      	movs	r1, #128	; 0x80
    phost->Control.pipe_out = USBH_AllocPipe (phost, 0x00U);
 8002c1e:	7160      	strb	r0, [r4, #5]
    phost->Control.pipe_in  = USBH_AllocPipe (phost, 0x80U);
 8002c20:	4620      	mov	r0, r4
 8002c22:	f000 fbcc 	bl	80033be <USBH_AllocPipe>
    USBH_OpenPipe (phost,
 8002c26:	79a2      	ldrb	r2, [r4, #6]
 8002c28:	f894 331c 	ldrb.w	r3, [r4, #796]	; 0x31c
    phost->Control.pipe_in  = USBH_AllocPipe (phost, 0x80U);
 8002c2c:	7120      	strb	r0, [r4, #4]
 8002c2e:	4601      	mov	r1, r0
    USBH_OpenPipe (phost,
 8002c30:	9202      	str	r2, [sp, #8]
 8002c32:	2500      	movs	r5, #0
      USBH_OpenPipe (phost,
 8002c34:	f894 231d 	ldrb.w	r2, [r4, #797]	; 0x31d
 8002c38:	9200      	str	r2, [sp, #0]
 8002c3a:	9501      	str	r5, [sp, #4]
 8002c3c:	2280      	movs	r2, #128	; 0x80
 8002c3e:	4620      	mov	r0, r4
 8002c40:	f000 fba9 	bl	8003396 <USBH_OpenPipe>
      USBH_OpenPipe (phost,
 8002c44:	79a2      	ldrb	r2, [r4, #6]
 8002c46:	9202      	str	r2, [sp, #8]
 8002c48:	f894 231d 	ldrb.w	r2, [r4, #797]	; 0x31d
 8002c4c:	9200      	str	r2, [sp, #0]
 8002c4e:	f894 331c 	ldrb.w	r3, [r4, #796]	; 0x31c
 8002c52:	7961      	ldrb	r1, [r4, #5]
 8002c54:	9501      	str	r5, [sp, #4]
 8002c56:	462a      	mov	r2, r5
 8002c58:	4620      	mov	r0, r4
 8002c5a:	f000 fb9c 	bl	8003396 <USBH_OpenPipe>
 8002c5e:	e7c7      	b.n	8002bf0 <USBH_Process+0x58>
  switch (phost->EnumState)
 8002c60:	7863      	ldrb	r3, [r4, #1]
 8002c62:	2b07      	cmp	r3, #7
 8002c64:	d8c4      	bhi.n	8002bf0 <USBH_Process+0x58>
 8002c66:	e8df f003 	tbb	[pc, r3]
 8002c6a:	1504      	.short	0x1504
 8002c6c:	4138301e 	.word	0x4138301e
 8002c70:	5d4f      	.short	0x5d4f
    if ( USBH_Get_DevDesc(phost, 8U) == USBH_OK)
 8002c72:	2108      	movs	r1, #8
 8002c74:	4620      	mov	r0, r4
 8002c76:	f000 f9fa 	bl	800306e <USBH_Get_DevDesc>
 8002c7a:	4605      	mov	r5, r0
 8002c7c:	2800      	cmp	r0, #0
 8002c7e:	d1b7      	bne.n	8002bf0 <USBH_Process+0x58>
      phost->EnumState = ENUM_GET_FULL_DEV_DESC;
 8002c80:	2301      	movs	r3, #1
      phost->Control.pipe_size = phost->device.DevDesc.bMaxPacketSize;
 8002c82:	f894 2329 	ldrb.w	r2, [r4, #809]	; 0x329
      phost->EnumState = ENUM_GET_FULL_DEV_DESC;
 8002c86:	7063      	strb	r3, [r4, #1]
      USBH_OpenPipe (phost,
 8002c88:	7921      	ldrb	r1, [r4, #4]
 8002c8a:	f894 331c 	ldrb.w	r3, [r4, #796]	; 0x31c
      phost->Control.pipe_size = phost->device.DevDesc.bMaxPacketSize;
 8002c8e:	71a2      	strb	r2, [r4, #6]
      USBH_OpenPipe (phost,
 8002c90:	9202      	str	r2, [sp, #8]
 8002c92:	e7cf      	b.n	8002c34 <USBH_Process+0x9c>
    if ( USBH_Get_DevDesc(phost, USB_DEVICE_DESC_SIZE)== USBH_OK)
 8002c94:	2112      	movs	r1, #18
 8002c96:	4620      	mov	r0, r4
 8002c98:	f000 f9e9 	bl	800306e <USBH_Get_DevDesc>
 8002c9c:	2800      	cmp	r0, #0
 8002c9e:	d1a7      	bne.n	8002bf0 <USBH_Process+0x58>
      phost->EnumState = ENUM_SET_ADDR;
 8002ca0:	2302      	movs	r3, #2
      phost->EnumState = ENUM_GET_FULL_CFG_DESC;
 8002ca2:	7063      	strb	r3, [r4, #1]
 8002ca4:	e7a4      	b.n	8002bf0 <USBH_Process+0x58>
    if ( USBH_SetAddress(phost, USBH_DEVICE_ADDRESS) == USBH_OK)
 8002ca6:	2101      	movs	r1, #1
 8002ca8:	4620      	mov	r0, r4
 8002caa:	f000 fadd 	bl	8003268 <USBH_SetAddress>
 8002cae:	4605      	mov	r5, r0
 8002cb0:	2800      	cmp	r0, #0
 8002cb2:	d19d      	bne.n	8002bf0 <USBH_Process+0x58>
      USBH_Delay(2U);
 8002cb4:	2002      	movs	r0, #2
 8002cb6:	f001 f8e1 	bl	8003e7c <USBH_Delay>
      phost->EnumState = ENUM_GET_CFG_DESC;
 8002cba:	2203      	movs	r2, #3
      phost->device.address = USBH_DEVICE_ADDRESS;
 8002cbc:	2301      	movs	r3, #1
      phost->EnumState = ENUM_GET_CFG_DESC;
 8002cbe:	7062      	strb	r2, [r4, #1]
      phost->device.address = USBH_DEVICE_ADDRESS;
 8002cc0:	f884 331c 	strb.w	r3, [r4, #796]	; 0x31c
      USBH_OpenPipe (phost,
 8002cc4:	7921      	ldrb	r1, [r4, #4]
 8002cc6:	79a2      	ldrb	r2, [r4, #6]
 8002cc8:	e7e2      	b.n	8002c90 <USBH_Process+0xf8>
    if ( USBH_Get_CfgDesc(phost,
 8002cca:	2109      	movs	r1, #9
 8002ccc:	4620      	mov	r0, r4
 8002cce:	f000 fa16 	bl	80030fe <USBH_Get_CfgDesc>
 8002cd2:	2800      	cmp	r0, #0
 8002cd4:	d18c      	bne.n	8002bf0 <USBH_Process+0x58>
      phost->EnumState = ENUM_GET_FULL_CFG_DESC;
 8002cd6:	2304      	movs	r3, #4
 8002cd8:	e7e3      	b.n	8002ca2 <USBH_Process+0x10a>
    if (USBH_Get_CfgDesc(phost,
 8002cda:	f8b4 1336 	ldrh.w	r1, [r4, #822]	; 0x336
 8002cde:	4620      	mov	r0, r4
 8002ce0:	f000 fa0d 	bl	80030fe <USBH_Get_CfgDesc>
 8002ce4:	2800      	cmp	r0, #0
 8002ce6:	d183      	bne.n	8002bf0 <USBH_Process+0x58>
      phost->EnumState = ENUM_GET_MFC_STRING_DESC;
 8002ce8:	2305      	movs	r3, #5
 8002cea:	e7da      	b.n	8002ca2 <USBH_Process+0x10a>
    if (phost->device.DevDesc.iManufacturer != 0U)
 8002cec:	f894 1330 	ldrb.w	r1, [r4, #816]	; 0x330
 8002cf0:	b141      	cbz	r1, 8002d04 <USBH_Process+0x16c>
      if ( USBH_Get_StringDesc(phost,
 8002cf2:	23ff      	movs	r3, #255	; 0xff
 8002cf4:	f504 728e 	add.w	r2, r4, #284	; 0x11c
 8002cf8:	4620      	mov	r0, r4
 8002cfa:	f000 fa8e 	bl	800321a <USBH_Get_StringDesc>
 8002cfe:	2800      	cmp	r0, #0
 8002d00:	f47f af76 	bne.w	8002bf0 <USBH_Process+0x58>
        phost->EnumState = ENUM_GET_PRODUCT_STRING_DESC;
 8002d04:	2306      	movs	r3, #6
 8002d06:	e7cc      	b.n	8002ca2 <USBH_Process+0x10a>
    if (phost->device.DevDesc.iProduct != 0U)
 8002d08:	f894 1331 	ldrb.w	r1, [r4, #817]	; 0x331
 8002d0c:	b141      	cbz	r1, 8002d20 <USBH_Process+0x188>
      if ( USBH_Get_StringDesc(phost,
 8002d0e:	23ff      	movs	r3, #255	; 0xff
 8002d10:	f504 728e 	add.w	r2, r4, #284	; 0x11c
 8002d14:	4620      	mov	r0, r4
 8002d16:	f000 fa80 	bl	800321a <USBH_Get_StringDesc>
 8002d1a:	2800      	cmp	r0, #0
 8002d1c:	f47f af68 	bne.w	8002bf0 <USBH_Process+0x58>
        phost->EnumState = ENUM_GET_SERIALNUM_STRING_DESC;
 8002d20:	2307      	movs	r3, #7
 8002d22:	e7be      	b.n	8002ca2 <USBH_Process+0x10a>
    if (phost->device.DevDesc.iSerialNumber != 0U)
 8002d24:	f894 1332 	ldrb.w	r1, [r4, #818]	; 0x332
 8002d28:	b141      	cbz	r1, 8002d3c <USBH_Process+0x1a4>
      if ( USBH_Get_StringDesc(phost,
 8002d2a:	23ff      	movs	r3, #255	; 0xff
 8002d2c:	f504 728e 	add.w	r2, r4, #284	; 0x11c
 8002d30:	4620      	mov	r0, r4
 8002d32:	f000 fa72 	bl	800321a <USBH_Get_StringDesc>
 8002d36:	2800      	cmp	r0, #0
 8002d38:	f47f af5a 	bne.w	8002bf0 <USBH_Process+0x58>
      phost->device.current_interface = 0U;
 8002d3c:	2300      	movs	r3, #0
 8002d3e:	f884 3320 	strb.w	r3, [r4, #800]	; 0x320
      if(phost->device.DevDesc.bNumConfigurations == 1U)
 8002d42:	f894 3333 	ldrb.w	r3, [r4, #819]	; 0x333
 8002d46:	2b01      	cmp	r3, #1
 8002d48:	d009      	beq.n	8002d5e <USBH_Process+0x1c6>
        phost->gState  = HOST_INPUT;
 8002d4a:	2307      	movs	r3, #7
 8002d4c:	e756      	b.n	8002bfc <USBH_Process+0x64>
      if(phost->pUser != NULL)
 8002d4e:	f8d4 33c8 	ldr.w	r3, [r4, #968]	; 0x3c8
 8002d52:	2b00      	cmp	r3, #0
 8002d54:	f43f af4c 	beq.w	8002bf0 <USBH_Process+0x58>
        phost->pUser(phost, HOST_USER_SELECT_CONFIGURATION);
 8002d58:	2101      	movs	r1, #1
 8002d5a:	4620      	mov	r0, r4
 8002d5c:	4798      	blx	r3
        phost->gState  = HOST_SET_CONFIGURATION;
 8002d5e:	2308      	movs	r3, #8
 8002d60:	e74c      	b.n	8002bfc <USBH_Process+0x64>
    if (USBH_SetCfg(phost, (uint16_t)phost->device.CfgDesc.bConfigurationValue) == USBH_OK)
 8002d62:	f894 1339 	ldrb.w	r1, [r4, #825]	; 0x339
 8002d66:	4620      	mov	r0, r4
 8002d68:	f000 fa8c 	bl	8003284 <USBH_SetCfg>
 8002d6c:	2800      	cmp	r0, #0
 8002d6e:	f47f af3f 	bne.w	8002bf0 <USBH_Process+0x58>
      phost->gState  = HOST_SET_WAKEUP_FEATURE;
 8002d72:	2309      	movs	r3, #9
 8002d74:	e742      	b.n	8002bfc <USBH_Process+0x64>
    if ((phost->device.CfgDesc.bmAttributes) & (1U << 5))
 8002d76:	f894 333b 	ldrb.w	r3, [r4, #827]	; 0x33b
 8002d7a:	069b      	lsls	r3, r3, #26
 8002d7c:	d506      	bpl.n	8002d8c <USBH_Process+0x1f4>
      if (USBH_SetFeature(phost, FEATURE_SELECTOR_REMOTEWAKEUP) == USBH_OK)
 8002d7e:	2101      	movs	r1, #1
 8002d80:	4620      	mov	r0, r4
 8002d82:	f000 fa8d 	bl	80032a0 <USBH_SetFeature>
 8002d86:	2800      	cmp	r0, #0
 8002d88:	f47f af32 	bne.w	8002bf0 <USBH_Process+0x58>
      phost->gState  = HOST_CHECK_CLASS;
 8002d8c:	230a      	movs	r3, #10
 8002d8e:	e735      	b.n	8002bfc <USBH_Process+0x64>
    if(phost->ClassNumber == 0U)
 8002d90:	f8d4 337c 	ldr.w	r3, [r4, #892]	; 0x37c
 8002d94:	2b00      	cmp	r3, #0
 8002d96:	f43f af2b 	beq.w	8002bf0 <USBH_Process+0x58>
      phost->pActiveClass = NULL;
 8002d9a:	2300      	movs	r3, #0
 8002d9c:	f8c4 3378 	str.w	r3, [r4, #888]	; 0x378
        if(phost->pClass[idx]->ClassCode == phost->device.CfgDesc.Itf_Desc[0].bInterfaceClass)
 8002da0:	f8d4 3374 	ldr.w	r3, [r4, #884]	; 0x374
 8002da4:	f894 2343 	ldrb.w	r2, [r4, #835]	; 0x343
 8002da8:	7919      	ldrb	r1, [r3, #4]
 8002daa:	4291      	cmp	r1, r2
          phost->pActiveClass = phost->pClass[idx];
 8002dac:	bf08      	it	eq
 8002dae:	f8c4 3378 	streq.w	r3, [r4, #888]	; 0x378
      if(phost->pActiveClass != NULL)
 8002db2:	f8d4 3378 	ldr.w	r3, [r4, #888]	; 0x378
 8002db6:	b1d3      	cbz	r3, 8002dee <USBH_Process+0x256>
        if(phost->pActiveClass->Init(phost)== USBH_OK)
 8002db8:	689b      	ldr	r3, [r3, #8]
 8002dba:	4620      	mov	r0, r4
 8002dbc:	4798      	blx	r3
 8002dbe:	b9b0      	cbnz	r0, 8002dee <USBH_Process+0x256>
          phost->gState  = HOST_CLASS_REQUEST;
 8002dc0:	2306      	movs	r3, #6
 8002dc2:	7023      	strb	r3, [r4, #0]
          phost->pUser(phost, HOST_USER_CLASS_SELECTED);
 8002dc4:	2103      	movs	r1, #3
 8002dc6:	f8d4 33c8 	ldr.w	r3, [r4, #968]	; 0x3c8
 8002dca:	4620      	mov	r0, r4
 8002dcc:	4798      	blx	r3
 8002dce:	e70f      	b.n	8002bf0 <USBH_Process+0x58>
    if(phost->pActiveClass != NULL)
 8002dd0:	f8d4 3378 	ldr.w	r3, [r4, #888]	; 0x378
 8002dd4:	b15b      	cbz	r3, 8002dee <USBH_Process+0x256>
      status = phost->pActiveClass->Requests(phost);
 8002dd6:	691b      	ldr	r3, [r3, #16]
 8002dd8:	4620      	mov	r0, r4
 8002dda:	4798      	blx	r3
 8002ddc:	f88d 0017 	strb.w	r0, [sp, #23]
      if(status == USBH_OK)
 8002de0:	f89d 3017 	ldrb.w	r3, [sp, #23]
 8002de4:	2b00      	cmp	r3, #0
 8002de6:	f47f af03 	bne.w	8002bf0 <USBH_Process+0x58>
        phost->gState  = HOST_CLASS;
 8002dea:	230b      	movs	r3, #11
 8002dec:	e706      	b.n	8002bfc <USBH_Process+0x64>
      phost->gState  = HOST_ABORT_STATE;
 8002dee:	230d      	movs	r3, #13
 8002df0:	e704      	b.n	8002bfc <USBH_Process+0x64>
    if(phost->pActiveClass != NULL)
 8002df2:	f8d4 3378 	ldr.w	r3, [r4, #888]	; 0x378
 8002df6:	2b00      	cmp	r3, #0
 8002df8:	f43f aefa 	beq.w	8002bf0 <USBH_Process+0x58>
      phost->pActiveClass->BgndProcess(phost);
 8002dfc:	695b      	ldr	r3, [r3, #20]
 8002dfe:	4620      	mov	r0, r4
 8002e00:	4798      	blx	r3
 8002e02:	e6f5      	b.n	8002bf0 <USBH_Process+0x58>
    DeInitStateMachine(phost);
 8002e04:	4620      	mov	r0, r4
 8002e06:	f7ff fe51 	bl	8002aac <DeInitStateMachine>
    if(phost->pActiveClass != NULL)
 8002e0a:	f8d4 3378 	ldr.w	r3, [r4, #888]	; 0x378
 8002e0e:	2b00      	cmp	r3, #0
 8002e10:	f43f aeee 	beq.w	8002bf0 <USBH_Process+0x58>
      phost->pActiveClass->DeInit(phost);
 8002e14:	68db      	ldr	r3, [r3, #12]
 8002e16:	4620      	mov	r0, r4
 8002e18:	4798      	blx	r3
      phost->pActiveClass = NULL;
 8002e1a:	2300      	movs	r3, #0
 8002e1c:	f8c4 3378 	str.w	r3, [r4, #888]	; 0x378
 return USBH_OK;
 8002e20:	e6e6      	b.n	8002bf0 <USBH_Process+0x58>

08002e22 <USBH_LL_SetTimer>:
  phost->Timer = time;
 8002e22:	f8c0 13bc 	str.w	r1, [r0, #956]	; 0x3bc
 8002e26:	4770      	bx	lr

08002e28 <USBH_LL_IncTimer>:
  phost->Timer ++;
 8002e28:	f8d0 23bc 	ldr.w	r2, [r0, #956]	; 0x3bc
 8002e2c:	3201      	adds	r2, #1
 8002e2e:	f8c0 23bc 	str.w	r2, [r0, #956]	; 0x3bc
  if((phost->gState == HOST_CLASS)&&(phost->pActiveClass != NULL))
 8002e32:	7802      	ldrb	r2, [r0, #0]
 8002e34:	2a0b      	cmp	r2, #11
 8002e36:	d104      	bne.n	8002e42 <USBH_LL_IncTimer+0x1a>
 8002e38:	f8d0 3378 	ldr.w	r3, [r0, #888]	; 0x378
 8002e3c:	b10b      	cbz	r3, 8002e42 <USBH_LL_IncTimer+0x1a>
    phost->pActiveClass->SOFProcess(phost);
 8002e3e:	699b      	ldr	r3, [r3, #24]
 8002e40:	4718      	bx	r3
 8002e42:	4770      	bx	lr

08002e44 <USBH_LL_PortEnabled>:
  phost->device.PortEnabled = 1U;
 8002e44:	2301      	movs	r3, #1
 8002e46:	f880 331f 	strb.w	r3, [r0, #799]	; 0x31f
 8002e4a:	4770      	bx	lr

08002e4c <USBH_LL_PortDisabled>:
  phost->device.PortEnabled = 0U;
 8002e4c:	2300      	movs	r3, #0
 8002e4e:	f880 331f 	strb.w	r3, [r0, #799]	; 0x31f
 8002e52:	4770      	bx	lr

08002e54 <USBH_LL_Connect>:
  * @param  phost: Host Handle
  * @retval USBH_Status
  */
USBH_StatusTypeDef  USBH_LL_Connect (USBH_HandleTypeDef *phost)
{
  if(phost->gState == HOST_IDLE )
 8002e54:	7802      	ldrb	r2, [r0, #0]
{
 8002e56:	b508      	push	{r3, lr}
  if(phost->gState == HOST_IDLE )
 8002e58:	b94a      	cbnz	r2, 8002e6e <USBH_LL_Connect+0x1a>
  {
    phost->device.is_connected = 1U;

    if(phost->pUser != NULL)
 8002e5a:	f8d0 33c8 	ldr.w	r3, [r0, #968]	; 0x3c8
    phost->device.is_connected = 1U;
 8002e5e:	2201      	movs	r2, #1
 8002e60:	f880 231e 	strb.w	r2, [r0, #798]	; 0x31e
    if(phost->pUser != NULL)
 8002e64:	b10b      	cbz	r3, 8002e6a <USBH_LL_Connect+0x16>
    {
      phost->pUser(phost, HOST_USER_CONNECTION);
 8002e66:	2104      	movs	r1, #4
 8002e68:	4798      	blx	r3
  (void)osMessageQueuePut(phost->os_event, &phost->os_msg, 0U, NULL);
#endif
#endif

  return USBH_OK;
}
 8002e6a:	2000      	movs	r0, #0
 8002e6c:	bd08      	pop	{r3, pc}
    if (phost->device.PortEnabled == 1U)
 8002e6e:	f890 231f 	ldrb.w	r2, [r0, #799]	; 0x31f
 8002e72:	2a01      	cmp	r2, #1
      phost->gState = HOST_DEV_ATTACHED;
 8002e74:	bf04      	itt	eq
 8002e76:	2202      	moveq	r2, #2
 8002e78:	7002      	strbeq	r2, [r0, #0]
 8002e7a:	e7f6      	b.n	8002e6a <USBH_LL_Connect+0x16>

08002e7c <USBH_LL_Disconnect>:
  *         Handle USB Host disconnection event
  * @param  phost: Host Handle
  * @retval USBH_Status
  */
USBH_StatusTypeDef  USBH_LL_Disconnect  (USBH_HandleTypeDef *phost)
{
 8002e7c:	b510      	push	{r4, lr}
 8002e7e:	4604      	mov	r4, r0
  /*Stop Host */
  USBH_LL_Stop(phost);
 8002e80:	f000 ff6e 	bl	8003d60 <USBH_LL_Stop>

  /* FRee Control Pipes */
  USBH_FreePipe  (phost, phost->Control.pipe_in);
 8002e84:	7921      	ldrb	r1, [r4, #4]
 8002e86:	4620      	mov	r0, r4
 8002e88:	f000 fab0 	bl	80033ec <USBH_FreePipe>
  USBH_FreePipe  (phost, phost->Control.pipe_out);
 8002e8c:	7961      	ldrb	r1, [r4, #5]
 8002e8e:	4620      	mov	r0, r4
 8002e90:	f000 faac 	bl	80033ec <USBH_FreePipe>

  phost->device.is_connected = 0U;
 8002e94:	2300      	movs	r3, #0
 8002e96:	f884 331e 	strb.w	r3, [r4, #798]	; 0x31e

  if(phost->pUser != NULL)
 8002e9a:	f8d4 33c8 	ldr.w	r3, [r4, #968]	; 0x3c8
 8002e9e:	b113      	cbz	r3, 8002ea6 <USBH_LL_Disconnect+0x2a>
  {
    phost->pUser(phost, HOST_USER_DISCONNECTION);
 8002ea0:	2105      	movs	r1, #5
 8002ea2:	4620      	mov	r0, r4
 8002ea4:	4798      	blx	r3
  }
  USBH_UsrLog("USB Device disconnected");

  /* Start the low level driver  */
  USBH_LL_Start(phost);
 8002ea6:	4620      	mov	r0, r4
 8002ea8:	f000 ff4c 	bl	8003d44 <USBH_LL_Start>

  phost->gState = HOST_DEV_DISCONNECTED;
 8002eac:	2303      	movs	r3, #3
 8002eae:	7023      	strb	r3, [r4, #0]
  (void)osMessageQueuePut(phost->os_event, &phost->os_msg, 0U, NULL);
#endif
#endif

  return USBH_OK;
}
 8002eb0:	2000      	movs	r0, #0
 8002eb2:	bd10      	pop	{r4, pc}

08002eb4 <USBH_CtlReq>:
  * @retval USBH Status
  */
USBH_StatusTypeDef USBH_CtlReq     (USBH_HandleTypeDef *phost,
                             uint8_t             *buff,
                             uint16_t            length)
{
 8002eb4:	b513      	push	{r0, r1, r4, lr}
 8002eb6:	4604      	mov	r4, r0
  USBH_StatusTypeDef status;
  status = USBH_BUSY;

  switch (phost->RequestState)
 8002eb8:	7880      	ldrb	r0, [r0, #2]
 8002eba:	2801      	cmp	r0, #1
 8002ebc:	d003      	beq.n	8002ec6 <USBH_CtlReq+0x12>
 8002ebe:	2802      	cmp	r0, #2
 8002ec0:	d008      	beq.n	8002ed4 <USBH_CtlReq+0x20>
    {
      if (status == USBH_FAIL)
      {
        /* Failure Mode */
        phost->RequestState = CMD_SEND;
        status = USBH_FAIL;
 8002ec2:	2001      	movs	r0, #1
    break;

  default:
    break;
  }
  return status;
 8002ec4:	e004      	b.n	8002ed0 <USBH_CtlReq+0x1c>
    phost->RequestState = CMD_WAIT;
 8002ec6:	2302      	movs	r3, #2
    phost->Control.buff = buff;
 8002ec8:	60a1      	str	r1, [r4, #8]
    phost->Control.length = length;
 8002eca:	81a2      	strh	r2, [r4, #12]
    phost->Control.state = CTRL_SETUP;
 8002ecc:	7620      	strb	r0, [r4, #24]
    phost->RequestState = CMD_WAIT;
 8002ece:	70a3      	strb	r3, [r4, #2]
}
 8002ed0:	b002      	add	sp, #8
 8002ed2:	bd10      	pop	{r4, pc}
{
  uint8_t direction;
  USBH_StatusTypeDef status = USBH_BUSY;
  USBH_URBStateTypeDef URB_Status = USBH_URB_IDLE;

  switch (phost->Control.state)
 8002ed4:	7e23      	ldrb	r3, [r4, #24]
 8002ed6:	3b01      	subs	r3, #1
 8002ed8:	2101      	movs	r1, #1
 8002eda:	2b0a      	cmp	r3, #10
 8002edc:	d8f1      	bhi.n	8002ec2 <USBH_CtlReq+0xe>
 8002ede:	e8df f003 	tbb	[pc, r3]
 8002ee2:	0f06      	.short	0x0f06
 8002ee4:	4c40362b 	.word	0x4c40362b
 8002ee8:	8c806f64 	.word	0x8c806f64
 8002eec:	95          	.byte	0x95
 8002eed:	00          	.byte	0x00
  {
  case CTRL_SETUP:
    /* send a SETUP packet */
    USBH_CtlSendSetup (phost, (uint8_t *)(void *)phost->Control.setup.d8,
 8002eee:	7962      	ldrb	r2, [r4, #5]
 8002ef0:	f104 0110 	add.w	r1, r4, #16
 8002ef4:	4620      	mov	r0, r4
 8002ef6:	f000 f9ef 	bl	80032d8 <USBH_CtlSendSetup>
	                     phost->Control.pipe_out);

    phost->Control.state = CTRL_SETUP_WAIT;
 8002efa:	2302      	movs	r3, #2
      if (phost->Control.setup.b.wLength.w != 0U)
      {
        if (direction == USB_D2H)
        {
          /* Data Direction is IN */
          phost->Control.state = CTRL_DATA_IN;
 8002efc:	7623      	strb	r3, [r4, #24]
 8002efe:	e7e0      	b.n	8002ec2 <USBH_CtlReq+0xe>
    URB_Status = USBH_LL_GetURBState(phost, phost->Control.pipe_out);
 8002f00:	7961      	ldrb	r1, [r4, #5]
 8002f02:	4620      	mov	r0, r4
 8002f04:	f000 ff9a 	bl	8003e3c <USBH_LL_GetURBState>
    if(URB_Status == USBH_URB_DONE)
 8002f08:	2801      	cmp	r0, #1
 8002f0a:	d10f      	bne.n	8002f2c <USBH_CtlReq+0x78>
      if (phost->Control.setup.b.wLength.w != 0U)
 8002f0c:	8ae2      	ldrh	r2, [r4, #22]
 8002f0e:	f994 3010 	ldrsb.w	r3, [r4, #16]
 8002f12:	b12a      	cbz	r2, 8002f20 <USBH_CtlReq+0x6c>
        if (direction == USB_D2H)
 8002f14:	2b00      	cmp	r3, #0
 8002f16:	da01      	bge.n	8002f1c <USBH_CtlReq+0x68>
          phost->Control.state = CTRL_DATA_IN;
 8002f18:	2303      	movs	r3, #3
 8002f1a:	e7ef      	b.n	8002efc <USBH_CtlReq+0x48>
        }
        else
        {
          /* Data Direction is OUT */
          phost->Control.state = CTRL_DATA_OUT;
 8002f1c:	2305      	movs	r3, #5
 8002f1e:	e7ed      	b.n	8002efc <USBH_CtlReq+0x48>
      }
      /* No DATA stage */
      else
      {
        /* If there is No Data Transfer Stage */
        if (direction == USB_D2H)
 8002f20:	2b00      	cmp	r3, #0
 8002f22:	da01      	bge.n	8002f28 <USBH_CtlReq+0x74>
    URB_Status = USBH_LL_GetURBState(phost , phost->Control.pipe_in);

    /* check is DATA packet transferred successfully */
    if  (URB_Status == USBH_URB_DONE)
    {
      phost->Control.state = CTRL_STATUS_OUT;
 8002f24:	2309      	movs	r3, #9
 8002f26:	e7e9      	b.n	8002efc <USBH_CtlReq+0x48>
          phost->Control.state = CTRL_STATUS_IN;
 8002f28:	2307      	movs	r3, #7
 8002f2a:	e7e7      	b.n	8002efc <USBH_CtlReq+0x48>
      if((URB_Status == USBH_URB_ERROR) || (URB_Status == USBH_URB_NOTREADY))
 8002f2c:	2804      	cmp	r0, #4
 8002f2e:	d001      	beq.n	8002f34 <USBH_CtlReq+0x80>
 8002f30:	2802      	cmp	r0, #2
 8002f32:	d1c6      	bne.n	8002ec2 <USBH_CtlReq+0xe>
        phost->Control.state = CTRL_ERROR;
 8002f34:	230b      	movs	r3, #11
 8002f36:	e7e1      	b.n	8002efc <USBH_CtlReq+0x48>
    phost->Control.timer = (uint16_t)phost->Timer;
 8002f38:	f8d4 33bc 	ldr.w	r3, [r4, #956]	; 0x3bc
 8002f3c:	81e3      	strh	r3, [r4, #14]
    USBH_CtlReceiveData(phost,
 8002f3e:	89a2      	ldrh	r2, [r4, #12]
 8002f40:	7923      	ldrb	r3, [r4, #4]
 8002f42:	68a1      	ldr	r1, [r4, #8]
 8002f44:	4620      	mov	r0, r4
 8002f46:	f000 f9ef 	bl	8003328 <USBH_CtlReceiveData>
    phost->Control.state = CTRL_DATA_IN_WAIT;
 8002f4a:	2304      	movs	r3, #4
 8002f4c:	e7d6      	b.n	8002efc <USBH_CtlReq+0x48>
    URB_Status = USBH_LL_GetURBState(phost , phost->Control.pipe_in);
 8002f4e:	7921      	ldrb	r1, [r4, #4]
 8002f50:	4620      	mov	r0, r4
 8002f52:	f000 ff73 	bl	8003e3c <USBH_LL_GetURBState>
    if  (URB_Status == USBH_URB_DONE)
 8002f56:	2801      	cmp	r0, #1
 8002f58:	d0e4      	beq.n	8002f24 <USBH_CtlReq+0x70>
#endif
#endif
    }

    /* manage error cases*/
    if  (URB_Status == USBH_URB_STALL)
 8002f5a:	2805      	cmp	r0, #5
 8002f5c:	d015      	beq.n	8002f8a <USBH_CtlReq+0xd6>
#endif
#endif
    }
    else
    {
      if (URB_Status == USBH_URB_ERROR)
 8002f5e:	2804      	cmp	r0, #4
 8002f60:	e7e7      	b.n	8002f32 <USBH_CtlReq+0x7e>
    USBH_CtlSendData (phost,
 8002f62:	7963      	ldrb	r3, [r4, #5]
 8002f64:	9100      	str	r1, [sp, #0]
 8002f66:	89a2      	ldrh	r2, [r4, #12]
 8002f68:	68a1      	ldr	r1, [r4, #8]
 8002f6a:	4620      	mov	r0, r4
 8002f6c:	f000 f9c5 	bl	80032fa <USBH_CtlSendData>
     phost->Control.timer = (uint16_t)phost->Timer;
 8002f70:	f8d4 33bc 	ldr.w	r3, [r4, #956]	; 0x3bc
 8002f74:	81e3      	strh	r3, [r4, #14]
    phost->Control.state = CTRL_DATA_OUT_WAIT;
 8002f76:	2306      	movs	r3, #6
 8002f78:	e7c0      	b.n	8002efc <USBH_CtlReq+0x48>
    URB_Status = USBH_LL_GetURBState(phost , phost->Control.pipe_out);
 8002f7a:	7961      	ldrb	r1, [r4, #5]
 8002f7c:	4620      	mov	r0, r4
 8002f7e:	f000 ff5d 	bl	8003e3c <USBH_LL_GetURBState>
    if  (URB_Status == USBH_URB_DONE)
 8002f82:	2801      	cmp	r0, #1
 8002f84:	d0d0      	beq.n	8002f28 <USBH_CtlReq+0x74>
    else if  (URB_Status == USBH_URB_STALL)
 8002f86:	2805      	cmp	r0, #5
 8002f88:	d105      	bne.n	8002f96 <USBH_CtlReq+0xe2>
      phost->RequestState = CMD_SEND;
 8002f8a:	2301      	movs	r3, #1
 8002f8c:	70a3      	strb	r3, [r4, #2]
      phost->Control.state = CTRL_IDLE;
 8002f8e:	2300      	movs	r3, #0
 8002f90:	7623      	strb	r3, [r4, #24]
      status = USBH_NOT_SUPPORTED;
 8002f92:	2003      	movs	r0, #3
 8002f94:	e79c      	b.n	8002ed0 <USBH_CtlReq+0x1c>
    else if  (URB_Status == USBH_URB_NOTREADY)
 8002f96:	2802      	cmp	r0, #2
 8002f98:	d0c0      	beq.n	8002f1c <USBH_CtlReq+0x68>
      if (URB_Status == USBH_URB_ERROR)
 8002f9a:	2804      	cmp	r0, #4
 8002f9c:	d191      	bne.n	8002ec2 <USBH_CtlReq+0xe>
        phost->Control.state = CTRL_ERROR;
 8002f9e:	230b      	movs	r3, #11
 8002fa0:	7623      	strb	r3, [r4, #24]
        phost->RequestState = CMD_SEND;
 8002fa2:	2301      	movs	r3, #1
 8002fa4:	70a3      	strb	r3, [r4, #2]
        status = USBH_FAIL;
 8002fa6:	2002      	movs	r0, #2
 8002fa8:	e792      	b.n	8002ed0 <USBH_CtlReq+0x1c>
    USBH_CtlReceiveData (phost,
 8002faa:	2200      	movs	r2, #0
 8002fac:	7923      	ldrb	r3, [r4, #4]
 8002fae:	4611      	mov	r1, r2
 8002fb0:	4620      	mov	r0, r4
 8002fb2:	f000 f9b9 	bl	8003328 <USBH_CtlReceiveData>
    phost->Control.timer = (uint16_t)phost->Timer;
 8002fb6:	f8d4 33bc 	ldr.w	r3, [r4, #956]	; 0x3bc
 8002fba:	81e3      	strh	r3, [r4, #14]
    phost->Control.state = CTRL_STATUS_IN_WAIT;
 8002fbc:	2308      	movs	r3, #8
 8002fbe:	e79d      	b.n	8002efc <USBH_CtlReq+0x48>
    URB_Status = USBH_LL_GetURBState(phost , phost->Control.pipe_in);
 8002fc0:	7921      	ldrb	r1, [r4, #4]
 8002fc2:	4620      	mov	r0, r4
 8002fc4:	f000 ff3a 	bl	8003e3c <USBH_LL_GetURBState>
    if  ( URB_Status == USBH_URB_DONE)
 8002fc8:	2801      	cmp	r0, #1
 8002fca:	d104      	bne.n	8002fd6 <USBH_CtlReq+0x122>
      phost->RequestState = CMD_SEND;
 8002fcc:	2301      	movs	r3, #1
      phost->Control.state =CTRL_IDLE;
 8002fce:	2000      	movs	r0, #0
      phost->RequestState = CMD_SEND;
 8002fd0:	70a3      	strb	r3, [r4, #2]
      phost->Control.state =CTRL_IDLE;
 8002fd2:	7620      	strb	r0, [r4, #24]
 8002fd4:	e77c      	b.n	8002ed0 <USBH_CtlReq+0x1c>
    else if (URB_Status == USBH_URB_ERROR)
 8002fd6:	2804      	cmp	r0, #4
 8002fd8:	d0ac      	beq.n	8002f34 <USBH_CtlReq+0x80>
      if(URB_Status == USBH_URB_STALL)
 8002fda:	2805      	cmp	r0, #5
 8002fdc:	f47f af71 	bne.w	8002ec2 <USBH_CtlReq+0xe>
 8002fe0:	e7d3      	b.n	8002f8a <USBH_CtlReq+0xd6>
    USBH_CtlSendData (phost,
 8002fe2:	2200      	movs	r2, #0
 8002fe4:	7963      	ldrb	r3, [r4, #5]
 8002fe6:	9100      	str	r1, [sp, #0]
 8002fe8:	4620      	mov	r0, r4
 8002fea:	4611      	mov	r1, r2
 8002fec:	f000 f985 	bl	80032fa <USBH_CtlSendData>
     phost->Control.timer = (uint16_t)phost->Timer;
 8002ff0:	f8d4 33bc 	ldr.w	r3, [r4, #956]	; 0x3bc
 8002ff4:	81e3      	strh	r3, [r4, #14]
    phost->Control.state = CTRL_STATUS_OUT_WAIT;
 8002ff6:	230a      	movs	r3, #10
 8002ff8:	e780      	b.n	8002efc <USBH_CtlReq+0x48>
    URB_Status = USBH_LL_GetURBState(phost , phost->Control.pipe_out);
 8002ffa:	7961      	ldrb	r1, [r4, #5]
 8002ffc:	4620      	mov	r0, r4
 8002ffe:	f000 ff1d 	bl	8003e3c <USBH_LL_GetURBState>
    if  (URB_Status == USBH_URB_DONE)
 8003002:	2801      	cmp	r0, #1
 8003004:	d0e2      	beq.n	8002fcc <USBH_CtlReq+0x118>
    else if  (URB_Status == USBH_URB_NOTREADY)
 8003006:	2802      	cmp	r0, #2
 8003008:	d1a9      	bne.n	8002f5e <USBH_CtlReq+0xaa>
 800300a:	e78b      	b.n	8002f24 <USBH_CtlReq+0x70>
    PID; i.e., recovery actions via some other pipe are not required for control
    endpoints. For the Default Control Pipe, a device reset will ultimately be
    required to clear the halt or error condition if the next Setup PID is not
    accepted.
    */
    if (++ phost->Control.errorcount <= USBH_MAX_ERROR_COUNT)
 800300c:	7e63      	ldrb	r3, [r4, #25]
 800300e:	3301      	adds	r3, #1
 8003010:	b2db      	uxtb	r3, r3
 8003012:	2b02      	cmp	r3, #2
 8003014:	7663      	strb	r3, [r4, #25]
 8003016:	d806      	bhi.n	8003026 <USBH_CtlReq+0x172>
    {
      /* try to recover control */
      USBH_LL_Stop(phost);
 8003018:	4620      	mov	r0, r4
 800301a:	f000 fea1 	bl	8003d60 <USBH_LL_Stop>

      /* Do the transmission again, starting from SETUP Packet */
      phost->Control.state = CTRL_SETUP;
 800301e:	2301      	movs	r3, #1
 8003020:	7623      	strb	r3, [r4, #24]
      phost->RequestState = CMD_SEND;
 8003022:	70a3      	strb	r3, [r4, #2]
 8003024:	e74d      	b.n	8002ec2 <USBH_CtlReq+0xe>
    }
    else
    {
      phost->pUser(phost, HOST_USER_UNRECOVERED_ERROR);
 8003026:	f8d4 33c8 	ldr.w	r3, [r4, #968]	; 0x3c8
 800302a:	2106      	movs	r1, #6
 800302c:	4620      	mov	r0, r4
 800302e:	4798      	blx	r3
      phost->Control.errorcount = 0U;
 8003030:	2300      	movs	r3, #0
 8003032:	7663      	strb	r3, [r4, #25]
 8003034:	e7b5      	b.n	8002fa2 <USBH_CtlReq+0xee>

08003036 <USBH_GetDescriptor>:
{
 8003036:	b430      	push	{r4, r5}
  if(phost->RequestState == CMD_SEND)
 8003038:	7884      	ldrb	r4, [r0, #2]
{
 800303a:	f8bd 5008 	ldrh.w	r5, [sp, #8]
  if(phost->RequestState == CMD_SEND)
 800303e:	2c01      	cmp	r4, #1
 8003040:	d110      	bne.n	8003064 <USBH_GetDescriptor+0x2e>
    phost->Control.setup.b.bmRequestType = USB_D2H | req_type;
 8003042:	f061 047f 	orn	r4, r1, #127	; 0x7f
 8003046:	7404      	strb	r4, [r0, #16]
    if ((value_idx & 0xff00U) == USB_DESC_STRING)
 8003048:	f402 447f 	and.w	r4, r2, #65280	; 0xff00
 800304c:	f5b4 7f40 	cmp.w	r4, #768	; 0x300
    phost->Control.setup.b.wValue.w = value_idx;
 8003050:	8242      	strh	r2, [r0, #18]
    phost->Control.setup.b.bRequest = USB_REQ_GET_DESCRIPTOR;
 8003052:	f04f 0106 	mov.w	r1, #6
      phost->Control.setup.b.wIndex.w = 0x0409U;
 8003056:	bf0c      	ite	eq
 8003058:	f240 4209 	movweq	r2, #1033	; 0x409
      phost->Control.setup.b.wIndex.w = 0U;
 800305c:	2200      	movne	r2, #0
    phost->Control.setup.b.bRequest = USB_REQ_GET_DESCRIPTOR;
 800305e:	7441      	strb	r1, [r0, #17]
      phost->Control.setup.b.wIndex.w = 0U;
 8003060:	8282      	strh	r2, [r0, #20]
    phost->Control.setup.b.wLength.w = length;
 8003062:	82c5      	strh	r5, [r0, #22]
  return USBH_CtlReq(phost, buff, length);
 8003064:	462a      	mov	r2, r5
 8003066:	4619      	mov	r1, r3
}
 8003068:	bc30      	pop	{r4, r5}
  return USBH_CtlReq(phost, buff, length);
 800306a:	f7ff bf23 	b.w	8002eb4 <USBH_CtlReq>

0800306e <USBH_Get_DevDesc>:
{
 800306e:	b537      	push	{r0, r1, r2, r4, r5, lr}
  if((status = USBH_GetDescriptor(phost,
 8003070:	f500 738e 	add.w	r3, r0, #284	; 0x11c
 8003074:	460d      	mov	r5, r1
 8003076:	9100      	str	r1, [sp, #0]
 8003078:	f44f 7280 	mov.w	r2, #256	; 0x100
 800307c:	2100      	movs	r1, #0
{
 800307e:	4604      	mov	r4, r0
  if((status = USBH_GetDescriptor(phost,
 8003080:	f7ff ffd9 	bl	8003036 <USBH_GetDescriptor>
 8003084:	bbc8      	cbnz	r0, 80030fa <USBH_Get_DevDesc+0x8c>
  dev_desc->bLength            = *(uint8_t  *) (buf +  0);
 8003086:	f894 311c 	ldrb.w	r3, [r4, #284]	; 0x11c
 800308a:	f884 3322 	strb.w	r3, [r4, #802]	; 0x322
  dev_desc->bDescriptorType    = *(uint8_t  *) (buf +  1);
 800308e:	f894 311d 	ldrb.w	r3, [r4, #285]	; 0x11d
 8003092:	f884 3323 	strb.w	r3, [r4, #803]	; 0x323
  dev_desc->bcdUSB             = LE16 (buf +  2);
 8003096:	f8b4 311e 	ldrh.w	r3, [r4, #286]	; 0x11e
 800309a:	f8a4 3324 	strh.w	r3, [r4, #804]	; 0x324
  dev_desc->bDeviceClass       = *(uint8_t  *) (buf +  4);
 800309e:	f894 3120 	ldrb.w	r3, [r4, #288]	; 0x120
 80030a2:	f884 3326 	strb.w	r3, [r4, #806]	; 0x326
  dev_desc->bDeviceSubClass    = *(uint8_t  *) (buf +  5);
 80030a6:	f894 3121 	ldrb.w	r3, [r4, #289]	; 0x121
 80030aa:	f884 3327 	strb.w	r3, [r4, #807]	; 0x327
  dev_desc->bDeviceProtocol    = *(uint8_t  *) (buf +  6);
 80030ae:	f894 3122 	ldrb.w	r3, [r4, #290]	; 0x122
 80030b2:	f884 3328 	strb.w	r3, [r4, #808]	; 0x328
  if (length > 8U)
 80030b6:	2d08      	cmp	r5, #8
  dev_desc->bMaxPacketSize     = *(uint8_t  *) (buf +  7);
 80030b8:	f894 3123 	ldrb.w	r3, [r4, #291]	; 0x123
 80030bc:	f884 3329 	strb.w	r3, [r4, #809]	; 0x329
  if (length > 8U)
 80030c0:	d91b      	bls.n	80030fa <USBH_Get_DevDesc+0x8c>
    dev_desc->idVendor           = LE16 (buf +  8);
 80030c2:	f8b4 3124 	ldrh.w	r3, [r4, #292]	; 0x124
 80030c6:	f8a4 332a 	strh.w	r3, [r4, #810]	; 0x32a
    dev_desc->idProduct          = LE16 (buf + 10);
 80030ca:	f8b4 3126 	ldrh.w	r3, [r4, #294]	; 0x126
 80030ce:	f8a4 332c 	strh.w	r3, [r4, #812]	; 0x32c
    dev_desc->bcdDevice          = LE16 (buf + 12);
 80030d2:	f8b4 3128 	ldrh.w	r3, [r4, #296]	; 0x128
 80030d6:	f8a4 332e 	strh.w	r3, [r4, #814]	; 0x32e
    dev_desc->iManufacturer      = *(uint8_t  *) (buf + 14);
 80030da:	f894 312a 	ldrb.w	r3, [r4, #298]	; 0x12a
 80030de:	f884 3330 	strb.w	r3, [r4, #816]	; 0x330
    dev_desc->iProduct           = *(uint8_t  *) (buf + 15);
 80030e2:	f894 312b 	ldrb.w	r3, [r4, #299]	; 0x12b
 80030e6:	f884 3331 	strb.w	r3, [r4, #817]	; 0x331
    dev_desc->iSerialNumber      = *(uint8_t  *) (buf + 16);
 80030ea:	f894 312c 	ldrb.w	r3, [r4, #300]	; 0x12c
 80030ee:	f884 3332 	strb.w	r3, [r4, #818]	; 0x332
    dev_desc->bNumConfigurations = *(uint8_t  *) (buf + 17);
 80030f2:	f894 312d 	ldrb.w	r3, [r4, #301]	; 0x12d
 80030f6:	f884 3333 	strb.w	r3, [r4, #819]	; 0x333
}
 80030fa:	b003      	add	sp, #12
 80030fc:	bd30      	pop	{r4, r5, pc}

080030fe <USBH_Get_CfgDesc>:
{
 80030fe:	e92d 43f7 	stmdb	sp!, {r0, r1, r2, r4, r5, r6, r7, r8, r9, lr}
  pData = phost->device.CfgDesc_Raw;
 8003102:	f100 051c 	add.w	r5, r0, #28
{
 8003106:	460e      	mov	r6, r1
  if((status = USBH_GetDescriptor(phost,
 8003108:	9100      	str	r1, [sp, #0]
 800310a:	462b      	mov	r3, r5
 800310c:	f44f 7200 	mov.w	r2, #512	; 0x200
 8003110:	2100      	movs	r1, #0
{
 8003112:	4604      	mov	r4, r0
  if((status = USBH_GetDescriptor(phost,
 8003114:	f7ff ff8f 	bl	8003036 <USBH_GetDescriptor>
 8003118:	bb48      	cbnz	r0, 800316e <USBH_Get_CfgDesc+0x70>
  cfg_desc->bLength             = *(uint8_t  *) (buf + 0);
 800311a:	7f23      	ldrb	r3, [r4, #28]
 800311c:	f884 3334 	strb.w	r3, [r4, #820]	; 0x334
  cfg_desc->bDescriptorType     = *(uint8_t  *) (buf + 1);
 8003120:	7f63      	ldrb	r3, [r4, #29]
 8003122:	f884 3335 	strb.w	r3, [r4, #821]	; 0x335
  cfg_desc->bNumInterfaces      = *(uint8_t  *) (buf + 4);
 8003126:	f894 3020 	ldrb.w	r3, [r4, #32]
 800312a:	f884 3338 	strb.w	r3, [r4, #824]	; 0x338
  cfg_desc->bConfigurationValue = *(uint8_t  *) (buf + 5);
 800312e:	f894 3021 	ldrb.w	r3, [r4, #33]	; 0x21
 8003132:	f884 3339 	strb.w	r3, [r4, #825]	; 0x339
  cfg_desc->iConfiguration      = *(uint8_t  *) (buf + 6);
 8003136:	f894 3022 	ldrb.w	r3, [r4, #34]	; 0x22
 800313a:	f884 333a 	strb.w	r3, [r4, #826]	; 0x33a
  cfg_desc->bmAttributes        = *(uint8_t  *) (buf + 7);
 800313e:	f894 3023 	ldrb.w	r3, [r4, #35]	; 0x23
  cfg_desc->wTotalLength        = LE16 (buf + 2);
 8003142:	f8b4 e01e 	ldrh.w	lr, [r4, #30]
  cfg_desc->bmAttributes        = *(uint8_t  *) (buf + 7);
 8003146:	f884 333b 	strb.w	r3, [r4, #827]	; 0x33b
  if (length > USB_CONFIGURATION_DESC_SIZE)
 800314a:	2e09      	cmp	r6, #9
  cfg_desc->bMaxPower           = *(uint8_t  *) (buf + 8);
 800314c:	f894 3024 	ldrb.w	r3, [r4, #36]	; 0x24
  cfg_desc->wTotalLength        = LE16 (buf + 2);
 8003150:	f8a4 e336 	strh.w	lr, [r4, #822]	; 0x336
  cfg_desc->bMaxPower           = *(uint8_t  *) (buf + 8);
 8003154:	f884 333c 	strb.w	r3, [r4, #828]	; 0x33c
  if (length > USB_CONFIGURATION_DESC_SIZE)
 8003158:	d909      	bls.n	800316e <USBH_Get_CfgDesc+0x70>
 800315a:	4627      	mov	r7, r4
 800315c:	462b      	mov	r3, r5
 800315e:	4606      	mov	r6, r0
 8003160:	2209      	movs	r2, #9
  ep_descriptor->bLength          = *(uint8_t  *) (buf + 0);
 8003162:	f04f 0c1a 	mov.w	ip, #26
    while ((if_ix < USBH_MAX_NUM_INTERFACES) && (ptr < cfg_desc->wTotalLength))
 8003166:	2e02      	cmp	r6, #2
 8003168:	d001      	beq.n	800316e <USBH_Get_CfgDesc+0x70>
 800316a:	4596      	cmp	lr, r2
 800316c:	d802      	bhi.n	8003174 <USBH_Get_CfgDesc+0x76>
}
 800316e:	b003      	add	sp, #12
 8003170:	e8bd 83f0 	ldmia.w	sp!, {r4, r5, r6, r7, r8, r9, pc}
  *ptr += ((USBH_DescHeader_t *)(void *)pbuf)->bLength;
 8003174:	7819      	ldrb	r1, [r3, #0]
  pnext = (USBH_DescHeader_t *)(void *)((uint8_t *)(void *)pbuf + \
 8003176:	440b      	add	r3, r1
  *ptr += ((USBH_DescHeader_t *)(void *)pbuf)->bLength;
 8003178:	440a      	add	r2, r1
      if (pdesc->bDescriptorType   == USB_DESC_TYPE_INTERFACE)
 800317a:	7859      	ldrb	r1, [r3, #1]
 800317c:	2904      	cmp	r1, #4
  *ptr += ((USBH_DescHeader_t *)(void *)pbuf)->bLength;
 800317e:	b292      	uxth	r2, r2
      if (pdesc->bDescriptorType   == USB_DESC_TYPE_INTERFACE)
 8003180:	d1f1      	bne.n	8003166 <USBH_Get_CfgDesc+0x68>
  if_descriptor->bLength            = *(uint8_t  *) (buf + 0);
 8003182:	7819      	ldrb	r1, [r3, #0]
 8003184:	f887 133e 	strb.w	r1, [r7, #830]	; 0x33e
  if_descriptor->bDescriptorType    = *(uint8_t  *) (buf + 1);
 8003188:	7859      	ldrb	r1, [r3, #1]
 800318a:	f887 133f 	strb.w	r1, [r7, #831]	; 0x33f
  if_descriptor->bInterfaceNumber   = *(uint8_t  *) (buf + 2);
 800318e:	7899      	ldrb	r1, [r3, #2]
 8003190:	f887 1340 	strb.w	r1, [r7, #832]	; 0x340
  if_descriptor->bAlternateSetting  = *(uint8_t  *) (buf + 3);
 8003194:	78d9      	ldrb	r1, [r3, #3]
 8003196:	f887 1341 	strb.w	r1, [r7, #833]	; 0x341
  if_descriptor->bNumEndpoints      = *(uint8_t  *) (buf + 4);
 800319a:	7919      	ldrb	r1, [r3, #4]
 800319c:	f887 1342 	strb.w	r1, [r7, #834]	; 0x342
  if_descriptor->bInterfaceClass    = *(uint8_t  *) (buf + 5);
 80031a0:	7959      	ldrb	r1, [r3, #5]
 80031a2:	f887 1343 	strb.w	r1, [r7, #835]	; 0x343
  if_descriptor->bInterfaceSubClass = *(uint8_t  *) (buf + 6);
 80031a6:	7999      	ldrb	r1, [r3, #6]
 80031a8:	f887 1344 	strb.w	r1, [r7, #836]	; 0x344
  if_descriptor->bInterfaceProtocol = *(uint8_t  *) (buf + 7);
 80031ac:	79d9      	ldrb	r1, [r3, #7]
 80031ae:	f887 1345 	strb.w	r1, [r7, #837]	; 0x345
  if_descriptor->iInterface         = *(uint8_t  *) (buf + 8);
 80031b2:	7a19      	ldrb	r1, [r3, #8]
 80031b4:	f887 1346 	strb.w	r1, [r7, #838]	; 0x346
  ep_descriptor->bLength          = *(uint8_t  *) (buf + 0);
 80031b8:	fb0c f806 	mul.w	r8, ip, r6
        ep_ix = 0U;
 80031bc:	2100      	movs	r1, #0
        while ((ep_ix < pif->bNumEndpoints) && (ptr < cfg_desc->wTotalLength))
 80031be:	f897 5342 	ldrb.w	r5, [r7, #834]	; 0x342
 80031c2:	428d      	cmp	r5, r1
 80031c4:	d802      	bhi.n	80031cc <USBH_Get_CfgDesc+0xce>
 80031c6:	3601      	adds	r6, #1
 80031c8:	371a      	adds	r7, #26
 80031ca:	e7cc      	b.n	8003166 <USBH_Get_CfgDesc+0x68>
 80031cc:	4596      	cmp	lr, r2
 80031ce:	d9fa      	bls.n	80031c6 <USBH_Get_CfgDesc+0xc8>
  *ptr += ((USBH_DescHeader_t *)(void *)pbuf)->bLength;
 80031d0:	781d      	ldrb	r5, [r3, #0]
  pnext = (USBH_DescHeader_t *)(void *)((uint8_t *)(void *)pbuf + \
 80031d2:	442b      	add	r3, r5
  *ptr += ((USBH_DescHeader_t *)(void *)pbuf)->bLength;
 80031d4:	442a      	add	r2, r5
          if (pdesc->bDescriptorType   == USB_DESC_TYPE_ENDPOINT)
 80031d6:	785d      	ldrb	r5, [r3, #1]
 80031d8:	2d05      	cmp	r5, #5
  *ptr += ((USBH_DescHeader_t *)(void *)pbuf)->bLength;
 80031da:	b292      	uxth	r2, r2
          if (pdesc->bDescriptorType   == USB_DESC_TYPE_ENDPOINT)
 80031dc:	d1ef      	bne.n	80031be <USBH_Get_CfgDesc+0xc0>
  ep_descriptor->bLength          = *(uint8_t  *) (buf + 0);
 80031de:	1c4d      	adds	r5, r1, #1
 80031e0:	eb08 01c5 	add.w	r1, r8, r5, lsl #3
 80031e4:	4421      	add	r1, r4
 80031e6:	f893 9000 	ldrb.w	r9, [r3]
 80031ea:	f881 9340 	strb.w	r9, [r1, #832]	; 0x340
  ep_descriptor->bDescriptorType  = *(uint8_t  *) (buf + 1);
 80031ee:	f893 9001 	ldrb.w	r9, [r3, #1]
 80031f2:	f881 9341 	strb.w	r9, [r1, #833]	; 0x341
  ep_descriptor->bEndpointAddress = *(uint8_t  *) (buf + 2);
 80031f6:	f893 9002 	ldrb.w	r9, [r3, #2]
 80031fa:	f881 9342 	strb.w	r9, [r1, #834]	; 0x342
  ep_descriptor->bmAttributes     = *(uint8_t  *) (buf + 3);
 80031fe:	f893 9003 	ldrb.w	r9, [r3, #3]
 8003202:	f881 9343 	strb.w	r9, [r1, #835]	; 0x343
  ep_descriptor->wMaxPacketSize   = LE16 (buf + 4);
 8003206:	f8b3 9004 	ldrh.w	r9, [r3, #4]
 800320a:	f8a1 9344 	strh.w	r9, [r1, #836]	; 0x344
  ep_descriptor->bInterval        = *(uint8_t  *) (buf + 6);
 800320e:	f893 9006 	ldrb.w	r9, [r3, #6]
 8003212:	f881 9346 	strb.w	r9, [r1, #838]	; 0x346
            ep_ix++;
 8003216:	b2e9      	uxtb	r1, r5
 8003218:	e7d1      	b.n	80031be <USBH_Get_CfgDesc+0xc0>

0800321a <USBH_Get_StringDesc>:
{
 800321a:	b5f7      	push	{r0, r1, r2, r4, r5, r6, r7, lr}
                                  phost->device.Data,
 800321c:	f500 758e 	add.w	r5, r0, #284	; 0x11c
{
 8003220:	4614      	mov	r4, r2
 8003222:	461f      	mov	r7, r3
  if((status = USBH_GetDescriptor(phost,
 8003224:	9300      	str	r3, [sp, #0]
 8003226:	f441 7240 	orr.w	r2, r1, #768	; 0x300
 800322a:	462b      	mov	r3, r5
 800322c:	2100      	movs	r1, #0
{
 800322e:	4606      	mov	r6, r0
  if((status = USBH_GetDescriptor(phost,
 8003230:	f7ff ff01 	bl	8003036 <USBH_GetDescriptor>
 8003234:	b978      	cbnz	r0, 8003256 <USBH_Get_StringDesc+0x3c>
  if (psrc[1] == USB_DESC_TYPE_STRING)
 8003236:	f896 311d 	ldrb.w	r3, [r6, #285]	; 0x11d
 800323a:	2b03      	cmp	r3, #3
 800323c:	d10b      	bne.n	8003256 <USBH_Get_StringDesc+0x3c>
    strlength = ((((uint16_t)psrc[0] - 2U) <= length) ? ((uint16_t)psrc[0] - 2U) : length);
 800323e:	f896 311c 	ldrb.w	r3, [r6, #284]	; 0x11c
 8003242:	3b02      	subs	r3, #2
 8003244:	42bb      	cmp	r3, r7
 8003246:	bf28      	it	cs
 8003248:	463b      	movcs	r3, r7
 800324a:	b29b      	uxth	r3, r3
    for (idx = 0U; idx < strlength; idx += 2U)
 800324c:	4602      	mov	r2, r0
 800324e:	4293      	cmp	r3, r2
 8003250:	d803      	bhi.n	800325a <USBH_Get_StringDesc+0x40>
    *pdest = 0U; /* mark end of string */
 8003252:	2300      	movs	r3, #0
 8003254:	7023      	strb	r3, [r4, #0]
}
 8003256:	b003      	add	sp, #12
 8003258:	bdf0      	pop	{r4, r5, r6, r7, pc}
      *pdest =  psrc[idx];
 800325a:	18a9      	adds	r1, r5, r2
    for (idx = 0U; idx < strlength; idx += 2U)
 800325c:	3202      	adds	r2, #2
      *pdest =  psrc[idx];
 800325e:	7889      	ldrb	r1, [r1, #2]
 8003260:	f804 1b01 	strb.w	r1, [r4], #1
    for (idx = 0U; idx < strlength; idx += 2U)
 8003264:	b292      	uxth	r2, r2
 8003266:	e7f2      	b.n	800324e <USBH_Get_StringDesc+0x34>

08003268 <USBH_SetAddress>:
  if(phost->RequestState == CMD_SEND)
 8003268:	7883      	ldrb	r3, [r0, #2]
 800326a:	2b01      	cmp	r3, #1
 800326c:	d106      	bne.n	800327c <USBH_SetAddress+0x14>
    phost->Control.setup.b.bmRequestType = USB_H2D | USB_REQ_RECIPIENT_DEVICE | \
 800326e:	2300      	movs	r3, #0
    phost->Control.setup.b.bRequest = USB_REQ_SET_ADDRESS;
 8003270:	2205      	movs	r2, #5
    phost->Control.setup.b.bmRequestType = USB_H2D | USB_REQ_RECIPIENT_DEVICE | \
 8003272:	7403      	strb	r3, [r0, #16]
    phost->Control.setup.b.bRequest = USB_REQ_SET_ADDRESS;
 8003274:	7442      	strb	r2, [r0, #17]
    phost->Control.setup.b.wValue.w = (uint16_t)DeviceAddress;
 8003276:	8241      	strh	r1, [r0, #18]
    phost->Control.setup.b.wIndex.w = 0U;
 8003278:	8283      	strh	r3, [r0, #20]
    phost->Control.setup.b.wLength.w = 0U;
 800327a:	82c3      	strh	r3, [r0, #22]
  return USBH_CtlReq(phost, 0U, 0U);
 800327c:	2200      	movs	r2, #0
 800327e:	4611      	mov	r1, r2
 8003280:	f7ff be18 	b.w	8002eb4 <USBH_CtlReq>

08003284 <USBH_SetCfg>:
  if(phost->RequestState == CMD_SEND)
 8003284:	7883      	ldrb	r3, [r0, #2]
 8003286:	2b01      	cmp	r3, #1
 8003288:	d106      	bne.n	8003298 <USBH_SetCfg+0x14>
    phost->Control.setup.b.bmRequestType = USB_H2D | USB_REQ_RECIPIENT_DEVICE
 800328a:	2300      	movs	r3, #0
    phost->Control.setup.b.bRequest = USB_REQ_SET_CONFIGURATION;
 800328c:	2209      	movs	r2, #9
    phost->Control.setup.b.bmRequestType = USB_H2D | USB_REQ_RECIPIENT_DEVICE
 800328e:	7403      	strb	r3, [r0, #16]
    phost->Control.setup.b.bRequest = USB_REQ_SET_CONFIGURATION;
 8003290:	7442      	strb	r2, [r0, #17]
    phost->Control.setup.b.wValue.w = cfg_idx;
 8003292:	8241      	strh	r1, [r0, #18]
    phost->Control.setup.b.wIndex.w = 0U;
 8003294:	8283      	strh	r3, [r0, #20]
    phost->Control.setup.b.wLength.w = 0U;
 8003296:	82c3      	strh	r3, [r0, #22]
  return USBH_CtlReq(phost, 0U , 0U);
 8003298:	2200      	movs	r2, #0
 800329a:	4611      	mov	r1, r2
 800329c:	f7ff be0a 	b.w	8002eb4 <USBH_CtlReq>

080032a0 <USBH_SetFeature>:
  if(phost->RequestState == CMD_SEND)
 80032a0:	7883      	ldrb	r3, [r0, #2]
 80032a2:	2b01      	cmp	r3, #1
 80032a4:	d106      	bne.n	80032b4 <USBH_SetFeature+0x14>
    phost->Control.setup.b.bmRequestType = USB_H2D | USB_REQ_RECIPIENT_DEVICE
 80032a6:	2300      	movs	r3, #0
    phost->Control.setup.b.bRequest = USB_REQ_SET_FEATURE;
 80032a8:	2203      	movs	r2, #3
    phost->Control.setup.b.bmRequestType = USB_H2D | USB_REQ_RECIPIENT_DEVICE
 80032aa:	7403      	strb	r3, [r0, #16]
    phost->Control.setup.b.bRequest = USB_REQ_SET_FEATURE;
 80032ac:	7442      	strb	r2, [r0, #17]
    phost->Control.setup.b.wValue.w = wValue;
 80032ae:	8241      	strh	r1, [r0, #18]
    phost->Control.setup.b.wIndex.w = 0U;
 80032b0:	8283      	strh	r3, [r0, #20]
    phost->Control.setup.b.wLength.w = 0U;
 80032b2:	82c3      	strh	r3, [r0, #22]
  return USBH_CtlReq(phost, 0U, 0U);
 80032b4:	2200      	movs	r2, #0
 80032b6:	4611      	mov	r1, r2
 80032b8:	f7ff bdfc 	b.w	8002eb4 <USBH_CtlReq>

080032bc <USBH_ClrFeature>:
  if(phost->RequestState == CMD_SEND)
 80032bc:	7883      	ldrb	r3, [r0, #2]
 80032be:	2b01      	cmp	r3, #1
 80032c0:	d106      	bne.n	80032d0 <USBH_ClrFeature+0x14>
    phost->Control.setup.b.bmRequestType = USB_H2D | USB_REQ_RECIPIENT_ENDPOINT
 80032c2:	2202      	movs	r2, #2
    phost->Control.setup.b.bRequest = USB_REQ_CLEAR_FEATURE;
 80032c4:	7443      	strb	r3, [r0, #17]
    phost->Control.setup.b.wValue.w = FEATURE_SELECTOR_ENDPOINT;
 80032c6:	2300      	movs	r3, #0
    phost->Control.setup.b.bmRequestType = USB_H2D | USB_REQ_RECIPIENT_ENDPOINT
 80032c8:	7402      	strb	r2, [r0, #16]
    phost->Control.setup.b.wValue.w = FEATURE_SELECTOR_ENDPOINT;
 80032ca:	8243      	strh	r3, [r0, #18]
    phost->Control.setup.b.wIndex.w = ep_num;
 80032cc:	8281      	strh	r1, [r0, #20]
    phost->Control.setup.b.wLength.w = 0U;
 80032ce:	82c3      	strh	r3, [r0, #22]
  return USBH_CtlReq(phost, 0U , 0U);
 80032d0:	2200      	movs	r2, #0
 80032d2:	4611      	mov	r1, r2
 80032d4:	f7ff bdee 	b.w	8002eb4 <USBH_CtlReq>

080032d8 <USBH_CtlSendSetup>:
  * @retval USBH Status
  */
USBH_StatusTypeDef USBH_CtlSendSetup (USBH_HandleTypeDef *phost,
                                uint8_t *buff,
                                uint8_t pipe_num)
{
 80032d8:	b530      	push	{r4, r5, lr}
 80032da:	b085      	sub	sp, #20

  USBH_LL_SubmitURB (phost,                     /* Driver handle    */
 80032dc:	2400      	movs	r4, #0
{
 80032de:	4615      	mov	r5, r2
  USBH_LL_SubmitURB (phost,                     /* Driver handle    */
 80032e0:	2308      	movs	r3, #8
 80032e2:	9302      	str	r3, [sp, #8]
 80032e4:	9101      	str	r1, [sp, #4]
 80032e6:	9403      	str	r4, [sp, #12]
 80032e8:	9400      	str	r4, [sp, #0]
 80032ea:	4623      	mov	r3, r4
 80032ec:	4622      	mov	r2, r4
 80032ee:	4629      	mov	r1, r5
 80032f0:	f000 fd8a 	bl	8003e08 <USBH_LL_SubmitURB>
                          USBH_PID_SETUP,       /* Type setup       */
                          buff,                 /* data buffer      */
                          USBH_SETUP_PKT_SIZE,  /* data length      */
                          0U);
  return USBH_OK;
}
 80032f4:	4620      	mov	r0, r4
 80032f6:	b005      	add	sp, #20
 80032f8:	bd30      	pop	{r4, r5, pc}

080032fa <USBH_CtlSendData>:
USBH_StatusTypeDef USBH_CtlSendData (USBH_HandleTypeDef *phost,
                                uint8_t *buff,
                                uint16_t length,
                                uint8_t pipe_num,
                                uint8_t do_ping )
{
 80032fa:	b530      	push	{r4, r5, lr}
  if(phost->device.speed != USBH_SPEED_HIGH)
 80032fc:	f890 531d 	ldrb.w	r5, [r0, #797]	; 0x31d
{
 8003300:	b085      	sub	sp, #20
  if(phost->device.speed != USBH_SPEED_HIGH)
 8003302:	2d00      	cmp	r5, #0
{
 8003304:	461c      	mov	r4, r3
 8003306:	f89d 3020 	ldrb.w	r3, [sp, #32]
  {
    do_ping = 0U;
  }

  USBH_LL_SubmitURB (phost,                     /* Driver handle    */
 800330a:	9202      	str	r2, [sp, #8]
    do_ping = 0U;
 800330c:	bf18      	it	ne
 800330e:	2300      	movne	r3, #0
  USBH_LL_SubmitURB (phost,                     /* Driver handle    */
 8003310:	9303      	str	r3, [sp, #12]
 8003312:	2301      	movs	r3, #1
 8003314:	9300      	str	r3, [sp, #0]
 8003316:	2300      	movs	r3, #0
 8003318:	9101      	str	r1, [sp, #4]
 800331a:	461a      	mov	r2, r3
 800331c:	4621      	mov	r1, r4
 800331e:	f000 fd73 	bl	8003e08 <USBH_LL_SubmitURB>
                          buff,                 /* data buffer      */
                          length,               /* data length      */
                          do_ping);             /* do ping (HS Only)*/

  return USBH_OK;
}
 8003322:	2000      	movs	r0, #0
 8003324:	b005      	add	sp, #20
 8003326:	bd30      	pop	{r4, r5, pc}

08003328 <USBH_CtlReceiveData>:
  */
USBH_StatusTypeDef USBH_CtlReceiveData(USBH_HandleTypeDef *phost,
                                uint8_t* buff,
                                uint16_t length,
                                uint8_t pipe_num)
{
 8003328:	b530      	push	{r4, r5, lr}
 800332a:	b085      	sub	sp, #20
  USBH_LL_SubmitURB (phost,                     /* Driver handle    */
 800332c:	2400      	movs	r4, #0
{
 800332e:	461d      	mov	r5, r3
  USBH_LL_SubmitURB (phost,                     /* Driver handle    */
 8003330:	9202      	str	r2, [sp, #8]
 8003332:	2201      	movs	r2, #1
 8003334:	9101      	str	r1, [sp, #4]
 8003336:	9403      	str	r4, [sp, #12]
 8003338:	9200      	str	r2, [sp, #0]
 800333a:	4623      	mov	r3, r4
 800333c:	4629      	mov	r1, r5
 800333e:	f000 fd63 	bl	8003e08 <USBH_LL_SubmitURB>
                          buff,                 /* data buffer      */
                          length,               /* data length      */
                          0U);
  return USBH_OK;

}
 8003342:	4620      	mov	r0, r4
 8003344:	b005      	add	sp, #20
 8003346:	bd30      	pop	{r4, r5, pc}

08003348 <USBH_BulkSendData>:
USBH_StatusTypeDef USBH_BulkSendData (USBH_HandleTypeDef *phost,
                                uint8_t *buff,
                                uint16_t length,
                                uint8_t pipe_num,
                                uint8_t do_ping)
{
 8003348:	b530      	push	{r4, r5, lr}
  if(phost->device.speed != USBH_SPEED_HIGH)
 800334a:	f890 531d 	ldrb.w	r5, [r0, #797]	; 0x31d
{
 800334e:	b085      	sub	sp, #20
  if(phost->device.speed != USBH_SPEED_HIGH)
 8003350:	2d00      	cmp	r5, #0
{
 8003352:	461c      	mov	r4, r3
 8003354:	f89d 3020 	ldrb.w	r3, [sp, #32]
  {
    do_ping = 0U;
  }

  USBH_LL_SubmitURB (phost,                     /* Driver handle    */
 8003358:	9202      	str	r2, [sp, #8]
    do_ping = 0U;
 800335a:	bf18      	it	ne
 800335c:	2300      	movne	r3, #0
  USBH_LL_SubmitURB (phost,                     /* Driver handle    */
 800335e:	9303      	str	r3, [sp, #12]
 8003360:	2301      	movs	r3, #1
 8003362:	9101      	str	r1, [sp, #4]
 8003364:	9300      	str	r3, [sp, #0]
 8003366:	2200      	movs	r2, #0
 8003368:	2302      	movs	r3, #2
 800336a:	4621      	mov	r1, r4
 800336c:	f000 fd4c 	bl	8003e08 <USBH_LL_SubmitURB>
                          USBH_PID_DATA,        /* Type Data        */
                          buff,                 /* data buffer      */
                          length,               /* data length      */
                          do_ping);             /* do ping (HS Only)*/
  return USBH_OK;
}
 8003370:	2000      	movs	r0, #0
 8003372:	b005      	add	sp, #20
 8003374:	bd30      	pop	{r4, r5, pc}

08003376 <USBH_BulkReceiveData>:
  */
USBH_StatusTypeDef USBH_BulkReceiveData(USBH_HandleTypeDef *phost,
                                uint8_t *buff,
                                uint16_t length,
                                uint8_t pipe_num)
{
 8003376:	b530      	push	{r4, r5, lr}
 8003378:	b085      	sub	sp, #20
 800337a:	461d      	mov	r5, r3
  USBH_LL_SubmitURB (phost,                     /* Driver handle    */
 800337c:	2400      	movs	r4, #0
 800337e:	9202      	str	r2, [sp, #8]
 8003380:	2201      	movs	r2, #1
 8003382:	9101      	str	r1, [sp, #4]
 8003384:	9403      	str	r4, [sp, #12]
 8003386:	9200      	str	r2, [sp, #0]
 8003388:	2302      	movs	r3, #2
 800338a:	4629      	mov	r1, r5
 800338c:	f000 fd3c 	bl	8003e08 <USBH_LL_SubmitURB>
                          USBH_PID_DATA,        /* Type Data        */
                          buff,                 /* data buffer      */
                          length,               /* data length      */
                          0U);
  return USBH_OK;
}
 8003390:	4620      	mov	r0, r4
 8003392:	b005      	add	sp, #20
 8003394:	bd30      	pop	{r4, r5, pc}

08003396 <USBH_OpenPipe>:
                            uint8_t epnum,
                            uint8_t dev_address,
                            uint8_t speed,
                            uint8_t ep_type,
                            uint16_t mps)
{
 8003396:	b51f      	push	{r0, r1, r2, r3, r4, lr}

  USBH_LL_OpenPipe(phost,
 8003398:	f8bd 4020 	ldrh.w	r4, [sp, #32]
 800339c:	9402      	str	r4, [sp, #8]
 800339e:	f89d 401c 	ldrb.w	r4, [sp, #28]
 80033a2:	9401      	str	r4, [sp, #4]
 80033a4:	f89d 4018 	ldrb.w	r4, [sp, #24]
 80033a8:	9400      	str	r4, [sp, #0]
 80033aa:	f000 fd07 	bl	8003dbc <USBH_LL_OpenPipe>
                        ep_type,
                        mps);

  return USBH_OK;

}
 80033ae:	2000      	movs	r0, #0
 80033b0:	b004      	add	sp, #16
 80033b2:	bd10      	pop	{r4, pc}

080033b4 <USBH_ClosePipe>:
  * @param  pipe_num: Pipe Number
  * @retval USBH Status
  */
USBH_StatusTypeDef USBH_ClosePipe  (USBH_HandleTypeDef *phost,
                            uint8_t pipe_num)
{
 80033b4:	b508      	push	{r3, lr}

  USBH_LL_ClosePipe(phost, pipe_num);
 80033b6:	f000 fd19 	bl	8003dec <USBH_LL_ClosePipe>

  return USBH_OK;

}
 80033ba:	2000      	movs	r0, #0
 80033bc:	bd08      	pop	{r3, pc}

080033be <USBH_AllocPipe>:
  * @param  phost: Host Handle
  * @param  ep_addr: End point for which the Pipe to be allocated
  * @retval Pipe number
  */
uint8_t USBH_AllocPipe  (USBH_HandleTypeDef *phost, uint8_t ep_addr)
{
 80033be:	b530      	push	{r4, r5, lr}
 80033c0:	2300      	movs	r3, #0
 80033c2:	f500 7460 	add.w	r4, r0, #896	; 0x380
{
  uint8_t idx = 0U;

  for (idx = 0U ; idx < 11U ; idx++)
  {
	if ((phost->Pipes[idx] & 0x8000U) == 0U)
 80033c6:	f854 5b04 	ldr.w	r5, [r4], #4
 80033ca:	042d      	lsls	r5, r5, #16
 80033cc:	b2da      	uxtb	r2, r3
 80033ce:	d407      	bmi.n	80033e0 <USBH_AllocPipe+0x22>
	phost->Pipes[pipe] = 0x8000U | ep_addr;
 80033d0:	33e0      	adds	r3, #224	; 0xe0
 80033d2:	f441 4100 	orr.w	r1, r1, #32768	; 0x8000
 80033d6:	f840 1023 	str.w	r1, [r0, r3, lsl #2]
	{
	   return (uint16_t)idx;
 80033da:	b292      	uxth	r2, r2
}
 80033dc:	b2d0      	uxtb	r0, r2
 80033de:	bd30      	pop	{r4, r5, pc}
 80033e0:	3301      	adds	r3, #1
  for (idx = 0U ; idx < 11U ; idx++)
 80033e2:	2b0b      	cmp	r3, #11
 80033e4:	d1ef      	bne.n	80033c6 <USBH_AllocPipe+0x8>
	}
  }
  return 0xFFFFU;
 80033e6:	f64f 72ff 	movw	r2, #65535	; 0xffff
 80033ea:	e7f7      	b.n	80033dc <USBH_AllocPipe+0x1e>

080033ec <USBH_FreePipe>:
   if(idx < 11U)
 80033ec:	290a      	cmp	r1, #10
 80033ee:	bf9f      	itttt	ls
 80033f0:	eb00 0081 	addls.w	r0, r0, r1, lsl #2
	 phost->Pipes[idx] &= 0x7FFFU;
 80033f4:	f8d0 3380 	ldrls.w	r3, [r0, #896]	; 0x380
 80033f8:	f3c3 030e 	ubfxls	r3, r3, #0, #15
 80033fc:	f8c0 3380 	strls.w	r3, [r0, #896]	; 0x380
}
 8003400:	2000      	movs	r0, #0
 8003402:	4770      	bx	lr

08003404 <MX_GPIO_Init>:
        * EXTI
     PC3   ------> I2S2_SD
     PB10   ------> I2S2_CK
*/
void MX_GPIO_Init(void)
{
 8003404:	e92d 4ff0 	stmdb	sp!, {r4, r5, r6, r7, r8, r9, sl, fp, lr}
 8003408:	b08d      	sub	sp, #52	; 0x34

  GPIO_InitTypeDef GPIO_InitStruct = {0};
 800340a:	2214      	movs	r2, #20
 800340c:	2100      	movs	r1, #0
 800340e:	a807      	add	r0, sp, #28
 8003410:	f000 fda4 	bl	8003f5c <memset>

  /* GPIO Ports Clock Enable */
  __HAL_RCC_GPIOE_CLK_ENABLE();
 8003414:	2400      	movs	r4, #0
 8003416:	4b57      	ldr	r3, [pc, #348]	; (8003574 <MX_GPIO_Init+0x170>)
 8003418:	9401      	str	r4, [sp, #4]
 800341a:	6b1a      	ldr	r2, [r3, #48]	; 0x30
  __HAL_RCC_GPIOA_CLK_ENABLE();
  __HAL_RCC_GPIOB_CLK_ENABLE();
  __HAL_RCC_GPIOD_CLK_ENABLE();

  /*Configure GPIO pin Output Level */
  HAL_GPIO_WritePin(CS_I2C_SPI_GPIO_Port, CS_I2C_SPI_Pin, GPIO_PIN_RESET);
 800341c:	4e56      	ldr	r6, [pc, #344]	; (8003578 <MX_GPIO_Init+0x174>)

  /*Configure GPIO pin Output Level */
  HAL_GPIO_WritePin(OTG_FS_PowerSwitchOn_GPIO_Port, OTG_FS_PowerSwitchOn_Pin, GPIO_PIN_SET);
 800341e:	f8df 9160 	ldr.w	r9, [pc, #352]	; 8003580 <MX_GPIO_Init+0x17c>

  /*Configure GPIO pin Output Level */
  HAL_GPIO_WritePin(GPIOD, LD4_Pin|LD3_Pin|LD5_Pin|LD6_Pin 
 8003422:	f8df 8160 	ldr.w	r8, [pc, #352]	; 8003584 <MX_GPIO_Init+0x180>

  /*Configure GPIO pin : PtPin */
  GPIO_InitStruct.Pin = BOOT1_Pin;
  GPIO_InitStruct.Mode = GPIO_MODE_INPUT;
  GPIO_InitStruct.Pull = GPIO_NOPULL;
  HAL_GPIO_Init(BOOT1_GPIO_Port, &GPIO_InitStruct);
 8003426:	f8df a160 	ldr.w	sl, [pc, #352]	; 8003588 <MX_GPIO_Init+0x184>
  __HAL_RCC_GPIOE_CLK_ENABLE();
 800342a:	f042 0210 	orr.w	r2, r2, #16
 800342e:	631a      	str	r2, [r3, #48]	; 0x30
 8003430:	6b1a      	ldr	r2, [r3, #48]	; 0x30
 8003432:	f002 0210 	and.w	r2, r2, #16
 8003436:	9201      	str	r2, [sp, #4]
 8003438:	9a01      	ldr	r2, [sp, #4]
  __HAL_RCC_GPIOC_CLK_ENABLE();
 800343a:	9402      	str	r4, [sp, #8]
 800343c:	6b1a      	ldr	r2, [r3, #48]	; 0x30
 800343e:	f042 0204 	orr.w	r2, r2, #4
 8003442:	631a      	str	r2, [r3, #48]	; 0x30
 8003444:	6b1a      	ldr	r2, [r3, #48]	; 0x30
 8003446:	f002 0204 	and.w	r2, r2, #4
 800344a:	9202      	str	r2, [sp, #8]
 800344c:	9a02      	ldr	r2, [sp, #8]
  __HAL_RCC_GPIOH_CLK_ENABLE();
 800344e:	9403      	str	r4, [sp, #12]
 8003450:	6b1a      	ldr	r2, [r3, #48]	; 0x30
 8003452:	f042 0280 	orr.w	r2, r2, #128	; 0x80
 8003456:	631a      	str	r2, [r3, #48]	; 0x30
 8003458:	6b1a      	ldr	r2, [r3, #48]	; 0x30
 800345a:	f002 0280 	and.w	r2, r2, #128	; 0x80
 800345e:	9203      	str	r2, [sp, #12]
 8003460:	9a03      	ldr	r2, [sp, #12]
  __HAL_RCC_GPIOA_CLK_ENABLE();
 8003462:	9404      	str	r4, [sp, #16]
 8003464:	6b1a      	ldr	r2, [r3, #48]	; 0x30
 8003466:	f042 0201 	orr.w	r2, r2, #1
 800346a:	631a      	str	r2, [r3, #48]	; 0x30
 800346c:	6b1a      	ldr	r2, [r3, #48]	; 0x30
 800346e:	f002 0201 	and.w	r2, r2, #1
 8003472:	9204      	str	r2, [sp, #16]
 8003474:	9a04      	ldr	r2, [sp, #16]
  __HAL_RCC_GPIOB_CLK_ENABLE();
 8003476:	9405      	str	r4, [sp, #20]
 8003478:	6b1a      	ldr	r2, [r3, #48]	; 0x30
 800347a:	f042 0202 	orr.w	r2, r2, #2
 800347e:	631a      	str	r2, [r3, #48]	; 0x30
 8003480:	6b1a      	ldr	r2, [r3, #48]	; 0x30
 8003482:	f002 0202 	and.w	r2, r2, #2
 8003486:	9205      	str	r2, [sp, #20]
 8003488:	9a05      	ldr	r2, [sp, #20]
  __HAL_RCC_GPIOD_CLK_ENABLE();
 800348a:	9406      	str	r4, [sp, #24]
 800348c:	6b1a      	ldr	r2, [r3, #48]	; 0x30
 800348e:	f042 0208 	orr.w	r2, r2, #8
 8003492:	631a      	str	r2, [r3, #48]	; 0x30
 8003494:	6b1b      	ldr	r3, [r3, #48]	; 0x30
 8003496:	f003 0308 	and.w	r3, r3, #8
 800349a:	9306      	str	r3, [sp, #24]
  HAL_GPIO_WritePin(CS_I2C_SPI_GPIO_Port, CS_I2C_SPI_Pin, GPIO_PIN_RESET);
 800349c:	4622      	mov	r2, r4
 800349e:	4630      	mov	r0, r6
 80034a0:	2108      	movs	r1, #8
  __HAL_RCC_GPIOD_CLK_ENABLE();
 80034a2:	9b06      	ldr	r3, [sp, #24]
  HAL_GPIO_WritePin(CS_I2C_SPI_GPIO_Port, CS_I2C_SPI_Pin, GPIO_PIN_RESET);
 80034a4:	f7fd fa1a 	bl	80008dc <HAL_GPIO_WritePin>
  HAL_GPIO_WritePin(OTG_FS_PowerSwitchOn_GPIO_Port, OTG_FS_PowerSwitchOn_Pin, GPIO_PIN_SET);
 80034a8:	2201      	movs	r2, #1
 80034aa:	4611      	mov	r1, r2
 80034ac:	4648      	mov	r0, r9
 80034ae:	f7fd fa15 	bl	80008dc <HAL_GPIO_WritePin>
  HAL_GPIO_WritePin(GPIOD, LD4_Pin|LD3_Pin|LD5_Pin|LD6_Pin 
 80034b2:	4622      	mov	r2, r4
 80034b4:	4640      	mov	r0, r8
 80034b6:	f24f 0110 	movw	r1, #61456	; 0xf010
 80034ba:	f7fd fa0f 	bl	80008dc <HAL_GPIO_WritePin>
  GPIO_InitStruct.Mode = GPIO_MODE_OUTPUT_PP;
 80034be:	2501      	movs	r5, #1
  GPIO_InitStruct.Pin = CS_I2C_SPI_Pin;
 80034c0:	2708      	movs	r7, #8
  HAL_GPIO_Init(CS_I2C_SPI_GPIO_Port, &GPIO_InitStruct);
 80034c2:	a907      	add	r1, sp, #28
 80034c4:	4630      	mov	r0, r6
  GPIO_InitStruct.Pin = CS_I2C_SPI_Pin;
 80034c6:	9707      	str	r7, [sp, #28]
  GPIO_InitStruct.Mode = GPIO_MODE_OUTPUT_PP;
 80034c8:	9508      	str	r5, [sp, #32]
  GPIO_InitStruct.Pull = GPIO_NOPULL;
 80034ca:	9409      	str	r4, [sp, #36]	; 0x24
  GPIO_InitStruct.Speed = GPIO_SPEED_FREQ_LOW;
 80034cc:	940a      	str	r4, [sp, #40]	; 0x28
  HAL_GPIO_Init(CS_I2C_SPI_GPIO_Port, &GPIO_InitStruct);
 80034ce:	f7fd f925 	bl	800071c <HAL_GPIO_Init>
  HAL_GPIO_Init(OTG_FS_PowerSwitchOn_GPIO_Port, &GPIO_InitStruct);
 80034d2:	a907      	add	r1, sp, #28
 80034d4:	4648      	mov	r0, r9
  GPIO_InitStruct.Alternate = GPIO_AF5_SPI2;
 80034d6:	f04f 0b05 	mov.w	fp, #5
  GPIO_InitStruct.Pin = OTG_FS_PowerSwitchOn_Pin;
 80034da:	9507      	str	r5, [sp, #28]
  GPIO_InitStruct.Mode = GPIO_MODE_OUTPUT_PP;
 80034dc:	9508      	str	r5, [sp, #32]
  GPIO_InitStruct.Pull = GPIO_NOPULL;
 80034de:	9409      	str	r4, [sp, #36]	; 0x24
  GPIO_InitStruct.Speed = GPIO_SPEED_FREQ_LOW;
 80034e0:	940a      	str	r4, [sp, #40]	; 0x28
  HAL_GPIO_Init(OTG_FS_PowerSwitchOn_GPIO_Port, &GPIO_InitStruct);
 80034e2:	f7fd f91b 	bl	800071c <HAL_GPIO_Init>
  GPIO_InitStruct.Pin = PDM_OUT_Pin;
 80034e6:	9707      	str	r7, [sp, #28]
  HAL_GPIO_Init(PDM_OUT_GPIO_Port, &GPIO_InitStruct);
 80034e8:	a907      	add	r1, sp, #28
  GPIO_InitStruct.Mode = GPIO_MODE_AF_PP;
 80034ea:	2702      	movs	r7, #2
  HAL_GPIO_Init(PDM_OUT_GPIO_Port, &GPIO_InitStruct);
 80034ec:	4648      	mov	r0, r9
  GPIO_InitStruct.Mode = GPIO_MODE_AF_PP;
 80034ee:	9708      	str	r7, [sp, #32]
  GPIO_InitStruct.Mode = GPIO_MODE_EVT_RISING;
 80034f0:	f8df 9098 	ldr.w	r9, [pc, #152]	; 800358c <MX_GPIO_Init+0x188>
  GPIO_InitStruct.Pull = GPIO_NOPULL;
 80034f4:	9409      	str	r4, [sp, #36]	; 0x24
  GPIO_InitStruct.Speed = GPIO_SPEED_FREQ_LOW;
 80034f6:	940a      	str	r4, [sp, #40]	; 0x28
  GPIO_InitStruct.Alternate = GPIO_AF5_SPI2;
 80034f8:	f8cd b02c 	str.w	fp, [sp, #44]	; 0x2c
  HAL_GPIO_Init(PDM_OUT_GPIO_Port, &GPIO_InitStruct);
 80034fc:	f7fd f90e 	bl	800071c <HAL_GPIO_Init>
  HAL_GPIO_Init(B1_GPIO_Port, &GPIO_InitStruct);
 8003500:	a907      	add	r1, sp, #28
 8003502:	481e      	ldr	r0, [pc, #120]	; (800357c <MX_GPIO_Init+0x178>)
  GPIO_InitStruct.Pin = B1_Pin;
 8003504:	9507      	str	r5, [sp, #28]
  GPIO_InitStruct.Mode = GPIO_MODE_EVT_RISING;
 8003506:	f8cd 9020 	str.w	r9, [sp, #32]
  GPIO_InitStruct.Pull = GPIO_NOPULL;
 800350a:	9409      	str	r4, [sp, #36]	; 0x24
  HAL_GPIO_Init(B1_GPIO_Port, &GPIO_InitStruct);
 800350c:	f7fd f906 	bl	800071c <HAL_GPIO_Init>
  GPIO_InitStruct.Pin = BOOT1_Pin;
 8003510:	2304      	movs	r3, #4
  HAL_GPIO_Init(BOOT1_GPIO_Port, &GPIO_InitStruct);
 8003512:	a907      	add	r1, sp, #28
 8003514:	4650      	mov	r0, sl
  GPIO_InitStruct.Pin = BOOT1_Pin;
 8003516:	9307      	str	r3, [sp, #28]
  GPIO_InitStruct.Mode = GPIO_MODE_INPUT;
 8003518:	9408      	str	r4, [sp, #32]
  GPIO_InitStruct.Pull = GPIO_NOPULL;
 800351a:	9409      	str	r4, [sp, #36]	; 0x24
  HAL_GPIO_Init(BOOT1_GPIO_Port, &GPIO_InitStruct);
 800351c:	f7fd f8fe 	bl	800071c <HAL_GPIO_Init>

  /*Configure GPIO pin : PtPin */
  GPIO_InitStruct.Pin = CLK_IN_Pin;
 8003520:	f44f 6380 	mov.w	r3, #1024	; 0x400
  GPIO_InitStruct.Mode = GPIO_MODE_AF_PP;
  GPIO_InitStruct.Pull = GPIO_NOPULL;
  GPIO_InitStruct.Speed = GPIO_SPEED_FREQ_LOW;
  GPIO_InitStruct.Alternate = GPIO_AF5_SPI2;
  HAL_GPIO_Init(CLK_IN_GPIO_Port, &GPIO_InitStruct);
 8003524:	a907      	add	r1, sp, #28
 8003526:	4650      	mov	r0, sl
  GPIO_InitStruct.Pin = CLK_IN_Pin;
 8003528:	9307      	str	r3, [sp, #28]
  GPIO_InitStruct.Mode = GPIO_MODE_AF_PP;
 800352a:	9708      	str	r7, [sp, #32]
  GPIO_InitStruct.Pull = GPIO_NOPULL;
 800352c:	9409      	str	r4, [sp, #36]	; 0x24
  GPIO_InitStruct.Speed = GPIO_SPEED_FREQ_LOW;
 800352e:	940a      	str	r4, [sp, #40]	; 0x28
  GPIO_InitStruct.Alternate = GPIO_AF5_SPI2;
 8003530:	f8cd b02c 	str.w	fp, [sp, #44]	; 0x2c
  HAL_GPIO_Init(CLK_IN_GPIO_Port, &GPIO_InitStruct);
 8003534:	f7fd f8f2 	bl	800071c <HAL_GPIO_Init>

  /*Configure GPIO pins : PDPin PDPin PDPin PDPin 
                           PDPin */
  GPIO_InitStruct.Pin = LD4_Pin|LD3_Pin|LD5_Pin|LD6_Pin 
 8003538:	f24f 0310 	movw	r3, #61456	; 0xf010
                          |Audio_RST_Pin;
  GPIO_InitStruct.Mode = GPIO_MODE_OUTPUT_PP;
  GPIO_InitStruct.Pull = GPIO_NOPULL;
  GPIO_InitStruct.Speed = GPIO_SPEED_FREQ_LOW;
  HAL_GPIO_Init(GPIOD, &GPIO_InitStruct);
 800353c:	a907      	add	r1, sp, #28
 800353e:	4640      	mov	r0, r8
  GPIO_InitStruct.Pin = LD4_Pin|LD3_Pin|LD5_Pin|LD6_Pin 
 8003540:	9307      	str	r3, [sp, #28]
  GPIO_InitStruct.Mode = GPIO_MODE_OUTPUT_PP;
 8003542:	9508      	str	r5, [sp, #32]
  GPIO_InitStruct.Pull = GPIO_NOPULL;
 8003544:	9409      	str	r4, [sp, #36]	; 0x24
  GPIO_InitStruct.Speed = GPIO_SPEED_FREQ_LOW;
 8003546:	940a      	str	r4, [sp, #40]	; 0x28
  HAL_GPIO_Init(GPIOD, &GPIO_InitStruct);
 8003548:	f7fd f8e8 	bl	800071c <HAL_GPIO_Init>

  /*Configure GPIO pin : PtPin */
  GPIO_InitStruct.Pin = OTG_FS_OverCurrent_Pin;
 800354c:	2320      	movs	r3, #32
  GPIO_InitStruct.Mode = GPIO_MODE_INPUT;
  GPIO_InitStruct.Pull = GPIO_NOPULL;
  HAL_GPIO_Init(OTG_FS_OverCurrent_GPIO_Port, &GPIO_InitStruct);
 800354e:	a907      	add	r1, sp, #28
 8003550:	4640      	mov	r0, r8
  GPIO_InitStruct.Pin = OTG_FS_OverCurrent_Pin;
 8003552:	9307      	str	r3, [sp, #28]
  GPIO_InitStruct.Mode = GPIO_MODE_INPUT;
 8003554:	9408      	str	r4, [sp, #32]
  GPIO_InitStruct.Pull = GPIO_NOPULL;
 8003556:	9409      	str	r4, [sp, #36]	; 0x24
  HAL_GPIO_Init(OTG_FS_OverCurrent_GPIO_Port, &GPIO_InitStruct);
 8003558:	f7fd f8e0 	bl	800071c <HAL_GPIO_Init>

  /*Configure GPIO pin : PtPin */
  GPIO_InitStruct.Pin = MEMS_INT2_Pin;
  GPIO_InitStruct.Mode = GPIO_MODE_EVT_RISING;
  GPIO_InitStruct.Pull = GPIO_NOPULL;
  HAL_GPIO_Init(MEMS_INT2_GPIO_Port, &GPIO_InitStruct);
 800355c:	a907      	add	r1, sp, #28
 800355e:	4630      	mov	r0, r6
  GPIO_InitStruct.Pin = MEMS_INT2_Pin;
 8003560:	9707      	str	r7, [sp, #28]
  GPIO_InitStruct.Mode = GPIO_MODE_EVT_RISING;
 8003562:	f8cd 9020 	str.w	r9, [sp, #32]
  GPIO_InitStruct.Pull = GPIO_NOPULL;
 8003566:	9409      	str	r4, [sp, #36]	; 0x24
  HAL_GPIO_Init(MEMS_INT2_GPIO_Port, &GPIO_InitStruct);
 8003568:	f7fd f8d8 	bl	800071c <HAL_GPIO_Init>

}
 800356c:	b00d      	add	sp, #52	; 0x34
 800356e:	e8bd 8ff0 	ldmia.w	sp!, {r4, r5, r6, r7, r8, r9, sl, fp, pc}
 8003572:	bf00      	nop
 8003574:	40023800 	.word	0x40023800
 8003578:	40021000 	.word	0x40021000
 800357c:	40020000 	.word	0x40020000
 8003580:	40020800 	.word	0x40020800
 8003584:	40020c00 	.word	0x40020c00
 8003588:	40020400 	.word	0x40020400
 800358c:	10120000 	.word	0x10120000

08003590 <MX_I2C1_Init>:

I2C_HandleTypeDef hi2c1;

/* I2C1 init function */
void MX_I2C1_Init(void)
{
 8003590:	b508      	push	{r3, lr}

  hi2c1.Instance = I2C1;
 8003592:	480c      	ldr	r0, [pc, #48]	; (80035c4 <MX_I2C1_Init+0x34>)
  hi2c1.Init.ClockSpeed = 100000;
 8003594:	4b0c      	ldr	r3, [pc, #48]	; (80035c8 <MX_I2C1_Init+0x38>)
 8003596:	f8df e034 	ldr.w	lr, [pc, #52]	; 80035cc <MX_I2C1_Init+0x3c>
  hi2c1.Init.DutyCycle = I2C_DUTYCYCLE_2;
  hi2c1.Init.OwnAddress1 = 0;
  hi2c1.Init.AddressingMode = I2C_ADDRESSINGMODE_7BIT;
 800359a:	f44f 4280 	mov.w	r2, #16384	; 0x4000
  hi2c1.Init.ClockSpeed = 100000;
 800359e:	e880 4008 	stmia.w	r0, {r3, lr}
  hi2c1.Init.DutyCycle = I2C_DUTYCYCLE_2;
 80035a2:	2300      	movs	r3, #0
 80035a4:	6083      	str	r3, [r0, #8]
  hi2c1.Init.OwnAddress1 = 0;
 80035a6:	60c3      	str	r3, [r0, #12]
  hi2c1.Init.AddressingMode = I2C_ADDRESSINGMODE_7BIT;
 80035a8:	6102      	str	r2, [r0, #16]
  hi2c1.Init.DualAddressMode = I2C_DUALADDRESS_DISABLE;
 80035aa:	6143      	str	r3, [r0, #20]
  hi2c1.Init.OwnAddress2 = 0;
 80035ac:	6183      	str	r3, [r0, #24]
  hi2c1.Init.GeneralCallMode = I2C_GENERALCALL_DISABLE;
 80035ae:	61c3      	str	r3, [r0, #28]
  hi2c1.Init.NoStretchMode = I2C_NOSTRETCH_DISABLE;
 80035b0:	6203      	str	r3, [r0, #32]
  if (HAL_I2C_Init(&hi2c1) != HAL_OK)
 80035b2:	f7fd fde7 	bl	8001184 <HAL_I2C_Init>
 80035b6:	b118      	cbz	r0, 80035c0 <MX_I2C1_Init+0x30>
  {
    Error_Handler();
  }

}
 80035b8:	e8bd 4008 	ldmia.w	sp!, {r3, lr}
    Error_Handler();
 80035bc:	f000 b9c0 	b.w	8003940 <Error_Handler>
 80035c0:	bd08      	pop	{r3, pc}
 80035c2:	bf00      	nop
 80035c4:	200000c4 	.word	0x200000c4
 80035c8:	40005400 	.word	0x40005400
 80035cc:	000186a0 	.word	0x000186a0

080035d0 <HAL_I2C_MspInit>:

void HAL_I2C_MspInit(I2C_HandleTypeDef* i2cHandle)
{
 80035d0:	b530      	push	{r4, r5, lr}
 80035d2:	4604      	mov	r4, r0
 80035d4:	b089      	sub	sp, #36	; 0x24

  GPIO_InitTypeDef GPIO_InitStruct = {0};
 80035d6:	2214      	movs	r2, #20
 80035d8:	2100      	movs	r1, #0
 80035da:	a803      	add	r0, sp, #12
 80035dc:	f000 fcbe 	bl	8003f5c <memset>
  if(i2cHandle->Instance==I2C1)
 80035e0:	6822      	ldr	r2, [r4, #0]
 80035e2:	4b14      	ldr	r3, [pc, #80]	; (8003634 <HAL_I2C_MspInit+0x64>)
 80035e4:	429a      	cmp	r2, r3
 80035e6:	d122      	bne.n	800362e <HAL_I2C_MspInit+0x5e>
  {
  /* USER CODE BEGIN I2C1_MspInit 0 */

  /* USER CODE END I2C1_MspInit 0 */
  
    __HAL_RCC_GPIOB_CLK_ENABLE();
 80035e8:	4c13      	ldr	r4, [pc, #76]	; (8003638 <HAL_I2C_MspInit+0x68>)
    GPIO_InitStruct.Pin = Audio_SCL_Pin|Audio_SDA_Pin;
    GPIO_InitStruct.Mode = GPIO_MODE_AF_OD;
    GPIO_InitStruct.Pull = GPIO_PULLUP;
    GPIO_InitStruct.Speed = GPIO_SPEED_FREQ_LOW;
    GPIO_InitStruct.Alternate = GPIO_AF4_I2C1;
    HAL_GPIO_Init(GPIOB, &GPIO_InitStruct);
 80035ea:	4814      	ldr	r0, [pc, #80]	; (800363c <HAL_I2C_MspInit+0x6c>)
    __HAL_RCC_GPIOB_CLK_ENABLE();
 80035ec:	2500      	movs	r5, #0
 80035ee:	9501      	str	r5, [sp, #4]
 80035f0:	6b23      	ldr	r3, [r4, #48]	; 0x30
 80035f2:	f043 0302 	orr.w	r3, r3, #2
 80035f6:	6323      	str	r3, [r4, #48]	; 0x30
 80035f8:	6b23      	ldr	r3, [r4, #48]	; 0x30
 80035fa:	f003 0302 	and.w	r3, r3, #2
 80035fe:	9301      	str	r3, [sp, #4]
 8003600:	9b01      	ldr	r3, [sp, #4]
    GPIO_InitStruct.Pin = Audio_SCL_Pin|Audio_SDA_Pin;
 8003602:	f44f 7310 	mov.w	r3, #576	; 0x240
 8003606:	9303      	str	r3, [sp, #12]
    GPIO_InitStruct.Mode = GPIO_MODE_AF_OD;
 8003608:	2312      	movs	r3, #18
 800360a:	9304      	str	r3, [sp, #16]
    GPIO_InitStruct.Pull = GPIO_PULLUP;
 800360c:	2301      	movs	r3, #1
 800360e:	9305      	str	r3, [sp, #20]
    HAL_GPIO_Init(GPIOB, &GPIO_InitStruct);
 8003610:	a903      	add	r1, sp, #12
    GPIO_InitStruct.Alternate = GPIO_AF4_I2C1;
 8003612:	2304      	movs	r3, #4
 8003614:	9307      	str	r3, [sp, #28]
    HAL_GPIO_Init(GPIOB, &GPIO_InitStruct);
 8003616:	f7fd f881 	bl	800071c <HAL_GPIO_Init>

    /* I2C1 clock enable */
    __HAL_RCC_I2C1_CLK_ENABLE();
 800361a:	9502      	str	r5, [sp, #8]
 800361c:	6c23      	ldr	r3, [r4, #64]	; 0x40
 800361e:	f443 1300 	orr.w	r3, r3, #2097152	; 0x200000
 8003622:	6423      	str	r3, [r4, #64]	; 0x40
 8003624:	6c23      	ldr	r3, [r4, #64]	; 0x40
 8003626:	f403 1300 	and.w	r3, r3, #2097152	; 0x200000
 800362a:	9302      	str	r3, [sp, #8]
 800362c:	9b02      	ldr	r3, [sp, #8]
  /* USER CODE BEGIN I2C1_MspInit 1 */

  /* USER CODE END I2C1_MspInit 1 */
  }
}
 800362e:	b009      	add	sp, #36	; 0x24
 8003630:	bd30      	pop	{r4, r5, pc}
 8003632:	bf00      	nop
 8003634:	40005400 	.word	0x40005400
 8003638:	40023800 	.word	0x40023800
 800363c:	40020400 	.word	0x40020400

08003640 <MX_I2S3_Init>:

I2S_HandleTypeDef hi2s3;

/* I2S3 init function */
void MX_I2S3_Init(void)
{
 8003640:	b508      	push	{r3, lr}

  hi2s3.Instance = SPI3;
 8003642:	480c      	ldr	r0, [pc, #48]	; (8003674 <MX_I2S3_Init+0x34>)
  hi2s3.Init.Mode = I2S_MODE_MASTER_TX;
 8003644:	4b0c      	ldr	r3, [pc, #48]	; (8003678 <MX_I2S3_Init+0x38>)
 8003646:	f44f 7e00 	mov.w	lr, #512	; 0x200
 800364a:	e880 4008 	stmia.w	r0, {r3, lr}
  hi2s3.Init.Standard = I2S_STANDARD_PHILIPS;
  hi2s3.Init.DataFormat = I2S_DATAFORMAT_16B;
  hi2s3.Init.MCLKOutput = I2S_MCLKOUTPUT_DISABLE;
  hi2s3.Init.AudioFreq = I2S_AUDIOFREQ_8K;
 800364e:	f44f 52fa 	mov.w	r2, #8000	; 0x1f40
  hi2s3.Init.Standard = I2S_STANDARD_PHILIPS;
 8003652:	2300      	movs	r3, #0
 8003654:	6083      	str	r3, [r0, #8]
  hi2s3.Init.DataFormat = I2S_DATAFORMAT_16B;
 8003656:	60c3      	str	r3, [r0, #12]
  hi2s3.Init.MCLKOutput = I2S_MCLKOUTPUT_DISABLE;
 8003658:	6103      	str	r3, [r0, #16]
  hi2s3.Init.AudioFreq = I2S_AUDIOFREQ_8K;
 800365a:	6142      	str	r2, [r0, #20]
  hi2s3.Init.CPOL = I2S_CPOL_LOW;
 800365c:	6183      	str	r3, [r0, #24]
  hi2s3.Init.ClockSource = I2S_CLOCK_PLL;
 800365e:	61c3      	str	r3, [r0, #28]
  hi2s3.Init.FullDuplexMode = I2S_FULLDUPLEXMODE_DISABLE;
 8003660:	6203      	str	r3, [r0, #32]
  if (HAL_I2S_Init(&hi2s3) != HAL_OK)
 8003662:	f7fd fe3b 	bl	80012dc <HAL_I2S_Init>
 8003666:	b118      	cbz	r0, 8003670 <MX_I2S3_Init+0x30>
  {
    Error_Handler();
  }

}
 8003668:	e8bd 4008 	ldmia.w	sp!, {r3, lr}
    Error_Handler();
 800366c:	f000 b968 	b.w	8003940 <Error_Handler>
 8003670:	bd08      	pop	{r3, pc}
 8003672:	bf00      	nop
 8003674:	20000118 	.word	0x20000118
 8003678:	40003c00 	.word	0x40003c00

0800367c <HAL_I2S_MspInit>:

void HAL_I2S_MspInit(I2S_HandleTypeDef* i2sHandle)
{
 800367c:	b570      	push	{r4, r5, r6, lr}
 800367e:	4604      	mov	r4, r0
 8003680:	b088      	sub	sp, #32

  GPIO_InitTypeDef GPIO_InitStruct = {0};
 8003682:	2214      	movs	r2, #20
 8003684:	2100      	movs	r1, #0
 8003686:	a803      	add	r0, sp, #12
 8003688:	f000 fc68 	bl	8003f5c <memset>
  if(i2sHandle->Instance==SPI3)
 800368c:	6822      	ldr	r2, [r4, #0]
 800368e:	4b1d      	ldr	r3, [pc, #116]	; (8003704 <HAL_I2S_MspInit+0x88>)
 8003690:	429a      	cmp	r2, r3
 8003692:	d135      	bne.n	8003700 <HAL_I2S_MspInit+0x84>
  {
  /* USER CODE BEGIN SPI3_MspInit 0 */

  /* USER CODE END SPI3_MspInit 0 */
    /* I2S3 clock enable */
    __HAL_RCC_SPI3_CLK_ENABLE();
 8003694:	f503 33fe 	add.w	r3, r3, #130048	; 0x1fc00
 8003698:	2400      	movs	r4, #0
 800369a:	9400      	str	r4, [sp, #0]
 800369c:	6c1a      	ldr	r2, [r3, #64]	; 0x40
    GPIO_InitStruct.Pin = I2S3_WS_Pin;
    GPIO_InitStruct.Mode = GPIO_MODE_AF_PP;
    GPIO_InitStruct.Pull = GPIO_NOPULL;
    GPIO_InitStruct.Speed = GPIO_SPEED_FREQ_LOW;
    GPIO_InitStruct.Alternate = GPIO_AF6_SPI3;
    HAL_GPIO_Init(I2S3_WS_GPIO_Port, &GPIO_InitStruct);
 800369e:	481a      	ldr	r0, [pc, #104]	; (8003708 <HAL_I2S_MspInit+0x8c>)
    __HAL_RCC_SPI3_CLK_ENABLE();
 80036a0:	f442 4200 	orr.w	r2, r2, #32768	; 0x8000
 80036a4:	641a      	str	r2, [r3, #64]	; 0x40
 80036a6:	6c1a      	ldr	r2, [r3, #64]	; 0x40
 80036a8:	f402 4200 	and.w	r2, r2, #32768	; 0x8000
 80036ac:	9200      	str	r2, [sp, #0]
 80036ae:	9a00      	ldr	r2, [sp, #0]
    __HAL_RCC_GPIOA_CLK_ENABLE();
 80036b0:	9401      	str	r4, [sp, #4]
 80036b2:	6b1a      	ldr	r2, [r3, #48]	; 0x30
 80036b4:	f042 0201 	orr.w	r2, r2, #1
 80036b8:	631a      	str	r2, [r3, #48]	; 0x30
 80036ba:	6b1a      	ldr	r2, [r3, #48]	; 0x30
 80036bc:	f002 0201 	and.w	r2, r2, #1
 80036c0:	9201      	str	r2, [sp, #4]
 80036c2:	9a01      	ldr	r2, [sp, #4]
    __HAL_RCC_GPIOC_CLK_ENABLE();
 80036c4:	9402      	str	r4, [sp, #8]
 80036c6:	6b1a      	ldr	r2, [r3, #48]	; 0x30
 80036c8:	f042 0204 	orr.w	r2, r2, #4
 80036cc:	631a      	str	r2, [r3, #48]	; 0x30
 80036ce:	6b1b      	ldr	r3, [r3, #48]	; 0x30
 80036d0:	f003 0304 	and.w	r3, r3, #4
 80036d4:	9302      	str	r3, [sp, #8]
 80036d6:	9b02      	ldr	r3, [sp, #8]
    GPIO_InitStruct.Mode = GPIO_MODE_AF_PP;
 80036d8:	2602      	movs	r6, #2
    GPIO_InitStruct.Pin = I2S3_WS_Pin;
 80036da:	2310      	movs	r3, #16
    GPIO_InitStruct.Alternate = GPIO_AF6_SPI3;
 80036dc:	2506      	movs	r5, #6
    HAL_GPIO_Init(I2S3_WS_GPIO_Port, &GPIO_InitStruct);
 80036de:	a903      	add	r1, sp, #12
    GPIO_InitStruct.Pin = I2S3_WS_Pin;
 80036e0:	9303      	str	r3, [sp, #12]
    GPIO_InitStruct.Mode = GPIO_MODE_AF_PP;
 80036e2:	9604      	str	r6, [sp, #16]
    GPIO_InitStruct.Alternate = GPIO_AF6_SPI3;
 80036e4:	9507      	str	r5, [sp, #28]
    HAL_GPIO_Init(I2S3_WS_GPIO_Port, &GPIO_InitStruct);
 80036e6:	f7fd f819 	bl	800071c <HAL_GPIO_Init>

    GPIO_InitStruct.Pin = I2S3_SCK_Pin|I2S3_SD_Pin;
 80036ea:	f44f 53a0 	mov.w	r3, #5120	; 0x1400
    GPIO_InitStruct.Mode = GPIO_MODE_AF_PP;
    GPIO_InitStruct.Pull = GPIO_NOPULL;
    GPIO_InitStruct.Speed = GPIO_SPEED_FREQ_LOW;
    GPIO_InitStruct.Alternate = GPIO_AF6_SPI3;
    HAL_GPIO_Init(GPIOC, &GPIO_InitStruct);
 80036ee:	a903      	add	r1, sp, #12
 80036f0:	4806      	ldr	r0, [pc, #24]	; (800370c <HAL_I2S_MspInit+0x90>)
    GPIO_InitStruct.Pin = I2S3_SCK_Pin|I2S3_SD_Pin;
 80036f2:	9303      	str	r3, [sp, #12]
    GPIO_InitStruct.Mode = GPIO_MODE_AF_PP;
 80036f4:	9604      	str	r6, [sp, #16]
    GPIO_InitStruct.Pull = GPIO_NOPULL;
 80036f6:	9405      	str	r4, [sp, #20]
    GPIO_InitStruct.Speed = GPIO_SPEED_FREQ_LOW;
 80036f8:	9406      	str	r4, [sp, #24]
    GPIO_InitStruct.Alternate = GPIO_AF6_SPI3;
 80036fa:	9507      	str	r5, [sp, #28]
    HAL_GPIO_Init(GPIOC, &GPIO_InitStruct);
 80036fc:	f7fd f80e 	bl	800071c <HAL_GPIO_Init>

  /* USER CODE BEGIN SPI3_MspInit 1 */

  /* USER CODE END SPI3_MspInit 1 */
  }
}
 8003700:	b008      	add	sp, #32
 8003702:	bd70      	pop	{r4, r5, r6, pc}
 8003704:	40003c00 	.word	0x40003c00
 8003708:	40020000 	.word	0x40020000
 800370c:	40020800 	.word	0x40020800

08003710 <SystemClock_Config>:
/**
  * @brief System Clock Configuration
  * @retval None
  */
void SystemClock_Config(void)
{
 8003710:	b570      	push	{r4, r5, r6, lr}
  RCC_OscInitTypeDef RCC_OscInitStruct = {0};
 8003712:	2230      	movs	r2, #48	; 0x30
{
 8003714:	b098      	sub	sp, #96	; 0x60
  RCC_OscInitTypeDef RCC_OscInitStruct = {0};
 8003716:	eb0d 0002 	add.w	r0, sp, r2
 800371a:	2100      	movs	r1, #0
 800371c:	f000 fc1e 	bl	8003f5c <memset>
  RCC_ClkInitTypeDef RCC_ClkInitStruct = {0};
 8003720:	2214      	movs	r2, #20
 8003722:	2100      	movs	r1, #0
 8003724:	a807      	add	r0, sp, #28
 8003726:	f000 fc19 	bl	8003f5c <memset>
  RCC_PeriphCLKInitTypeDef PeriphClkInitStruct = {0};
 800372a:	2100      	movs	r1, #0
 800372c:	2210      	movs	r2, #16
 800372e:	a803      	add	r0, sp, #12
 8003730:	f000 fc14 	bl	8003f5c <memset>

  /** Configure the main internal regulator output voltage 
  */
  __HAL_RCC_PWR_CLK_ENABLE();
 8003734:	2500      	movs	r5, #0
 8003736:	4b21      	ldr	r3, [pc, #132]	; (80037bc <SystemClock_Config+0xac>)
 8003738:	9501      	str	r5, [sp, #4]
 800373a:	6c1a      	ldr	r2, [r3, #64]	; 0x40
 800373c:	f042 5280 	orr.w	r2, r2, #268435456	; 0x10000000
 8003740:	641a      	str	r2, [r3, #64]	; 0x40
 8003742:	6c1b      	ldr	r3, [r3, #64]	; 0x40
 8003744:	f003 5380 	and.w	r3, r3, #268435456	; 0x10000000
 8003748:	9301      	str	r3, [sp, #4]
 800374a:	9b01      	ldr	r3, [sp, #4]
  __HAL_PWR_VOLTAGESCALING_CONFIG(PWR_REGULATOR_VOLTAGE_SCALE1);
 800374c:	4b1c      	ldr	r3, [pc, #112]	; (80037c0 <SystemClock_Config+0xb0>)
 800374e:	9502      	str	r5, [sp, #8]
 8003750:	681a      	ldr	r2, [r3, #0]
 8003752:	f442 4280 	orr.w	r2, r2, #16384	; 0x4000
 8003756:	601a      	str	r2, [r3, #0]
 8003758:	681b      	ldr	r3, [r3, #0]
 800375a:	f403 4380 	and.w	r3, r3, #16384	; 0x4000
 800375e:	9302      	str	r3, [sp, #8]
 8003760:	9b02      	ldr	r3, [sp, #8]
  /** Initializes the CPU, AHB and APB busses clocks 
  */
  RCC_OscInitStruct.OscillatorType = RCC_OSCILLATORTYPE_HSE;
  RCC_OscInitStruct.HSEState = RCC_HSE_ON;
 8003762:	f44f 3380 	mov.w	r3, #65536	; 0x10000
 8003766:	930d      	str	r3, [sp, #52]	; 0x34
  RCC_OscInitStruct.PLL.PLLState = RCC_PLL_ON;
  RCC_OscInitStruct.PLL.PLLSource = RCC_PLLSOURCE_HSE;
 8003768:	f44f 0380 	mov.w	r3, #4194304	; 0x400000
 800376c:	9313      	str	r3, [sp, #76]	; 0x4c
  RCC_OscInitStruct.PLL.PLLM = 8;
 800376e:	2308      	movs	r3, #8
 8003770:	9314      	str	r3, [sp, #80]	; 0x50
  RCC_OscInitStruct.PLL.PLLN = 336;
 8003772:	f44f 73a8 	mov.w	r3, #336	; 0x150
  RCC_OscInitStruct.PLL.PLLState = RCC_PLL_ON;
 8003776:	2402      	movs	r4, #2
  RCC_OscInitStruct.OscillatorType = RCC_OSCILLATORTYPE_HSE;
 8003778:	2601      	movs	r6, #1
  RCC_OscInitStruct.PLL.PLLN = 336;
 800377a:	9315      	str	r3, [sp, #84]	; 0x54
  RCC_OscInitStruct.PLL.PLLP = RCC_PLLP_DIV2;
  RCC_OscInitStruct.PLL.PLLQ = 7;
  if (HAL_RCC_OscConfig(&RCC_OscInitStruct) != HAL_OK)
 800377c:	a80c      	add	r0, sp, #48	; 0x30
  RCC_OscInitStruct.PLL.PLLQ = 7;
 800377e:	2307      	movs	r3, #7
 8003780:	9317      	str	r3, [sp, #92]	; 0x5c
  RCC_OscInitStruct.OscillatorType = RCC_OSCILLATORTYPE_HSE;
 8003782:	960c      	str	r6, [sp, #48]	; 0x30
  RCC_OscInitStruct.PLL.PLLState = RCC_PLL_ON;
 8003784:	9412      	str	r4, [sp, #72]	; 0x48
  RCC_OscInitStruct.PLL.PLLP = RCC_PLLP_DIV2;
 8003786:	9416      	str	r4, [sp, #88]	; 0x58
  if (HAL_RCC_OscConfig(&RCC_OscInitStruct) != HAL_OK)
 8003788:	f7fd ffe0 	bl	800174c <HAL_RCC_OscConfig>
  {
    Error_Handler();
  }
  /** Initializes the CPU, AHB and APB busses clocks 
  */
  RCC_ClkInitStruct.ClockType = RCC_CLOCKTYPE_HCLK|RCC_CLOCKTYPE_SYSCLK
 800378c:	230f      	movs	r3, #15
 800378e:	9307      	str	r3, [sp, #28]
                              |RCC_CLOCKTYPE_PCLK1|RCC_CLOCKTYPE_PCLK2;
  RCC_ClkInitStruct.SYSCLKSource = RCC_SYSCLKSOURCE_PLLCLK;
  RCC_ClkInitStruct.AHBCLKDivider = RCC_SYSCLK_DIV1;
  RCC_ClkInitStruct.APB1CLKDivider = RCC_HCLK_DIV4;
 8003790:	f44f 53a0 	mov.w	r3, #5120	; 0x1400
 8003794:	930a      	str	r3, [sp, #40]	; 0x28
  RCC_ClkInitStruct.APB2CLKDivider = RCC_HCLK_DIV2;

  if (HAL_RCC_ClockConfig(&RCC_ClkInitStruct, FLASH_LATENCY_5) != HAL_OK)
 8003796:	2105      	movs	r1, #5
  RCC_ClkInitStruct.APB2CLKDivider = RCC_HCLK_DIV2;
 8003798:	f44f 5380 	mov.w	r3, #4096	; 0x1000
  if (HAL_RCC_ClockConfig(&RCC_ClkInitStruct, FLASH_LATENCY_5) != HAL_OK)
 800379c:	a807      	add	r0, sp, #28
  RCC_ClkInitStruct.APB2CLKDivider = RCC_HCLK_DIV2;
 800379e:	930b      	str	r3, [sp, #44]	; 0x2c
  RCC_ClkInitStruct.SYSCLKSource = RCC_SYSCLKSOURCE_PLLCLK;
 80037a0:	9408      	str	r4, [sp, #32]
  RCC_ClkInitStruct.AHBCLKDivider = RCC_SYSCLK_DIV1;
 80037a2:	9509      	str	r5, [sp, #36]	; 0x24
  if (HAL_RCC_ClockConfig(&RCC_ClkInitStruct, FLASH_LATENCY_5) != HAL_OK)
 80037a4:	f7fe f9a6 	bl	8001af4 <HAL_RCC_ClockConfig>
  {
    Error_Handler();
  }
  PeriphClkInitStruct.PeriphClockSelection = RCC_PERIPHCLK_I2S;
  PeriphClkInitStruct.PLLI2S.PLLI2SN = 192;
 80037a8:	23c0      	movs	r3, #192	; 0xc0
  PeriphClkInitStruct.PLLI2S.PLLI2SR = 2;
  if (HAL_RCCEx_PeriphCLKConfig(&PeriphClkInitStruct) != HAL_OK)
 80037aa:	a803      	add	r0, sp, #12
  PeriphClkInitStruct.PeriphClockSelection = RCC_PERIPHCLK_I2S;
 80037ac:	9603      	str	r6, [sp, #12]
  PeriphClkInitStruct.PLLI2S.PLLI2SN = 192;
 80037ae:	9304      	str	r3, [sp, #16]
  PeriphClkInitStruct.PLLI2S.PLLI2SR = 2;
 80037b0:	9405      	str	r4, [sp, #20]
  if (HAL_RCCEx_PeriphCLKConfig(&PeriphClkInitStruct) != HAL_OK)
 80037b2:	f7fe fa4b 	bl	8001c4c <HAL_RCCEx_PeriphCLKConfig>
  {
    Error_Handler();
  }
}
 80037b6:	b018      	add	sp, #96	; 0x60
 80037b8:	bd70      	pop	{r4, r5, r6, pc}
 80037ba:	bf00      	nop
 80037bc:	40023800 	.word	0x40023800
 80037c0:	40007000 	.word	0x40007000

080037c4 <main>:
{
 80037c4:	e92d 4888 	stmdb	sp!, {r3, r7, fp, lr}
  cnt1 = TIM3->CNT;
 80037c8:	4e50      	ldr	r6, [pc, #320]	; (800390c <main+0x148>)
 80037ca:	4c51      	ldr	r4, [pc, #324]	; (8003910 <main+0x14c>)
  tick = HAL_GetTick();
 80037cc:	4d51      	ldr	r5, [pc, #324]	; (8003914 <main+0x150>)
         printf("%d\n ", dir);
 80037ce:	4f52      	ldr	r7, [pc, #328]	; (8003918 <main+0x154>)
  HAL_Init();
 80037d0:	f7fc fefa 	bl	80005c8 <HAL_Init>
  SystemClock_Config();
 80037d4:	f7ff ff9c 	bl	8003710 <SystemClock_Config>
  MX_GPIO_Init();
 80037d8:	f7ff fe14 	bl	8003404 <MX_GPIO_Init>
  MX_I2C1_Init();
 80037dc:	f7ff fed8 	bl	8003590 <MX_I2C1_Init>
  MX_I2S3_Init();
 80037e0:	f7ff ff2e 	bl	8003640 <MX_I2S3_Init>
  MX_SPI1_Init();
 80037e4:	f000 f8ae 	bl	8003944 <MX_SPI1_Init>
  MX_TIM3_Init();
 80037e8:	f000 f990 	bl	8003b0c <MX_TIM3_Init>
  MX_USB_HOST_Init();
 80037ec:	f000 fa00 	bl	8003bf0 <MX_USB_HOST_Init>
  HAL_TIM_Encoder_Start(&htim3, TIM_CHANNEL_ALL);
 80037f0:	213c      	movs	r1, #60	; 0x3c
 80037f2:	484a      	ldr	r0, [pc, #296]	; (800391c <main+0x158>)
 80037f4:	f7fe fb2d 	bl	8001e52 <HAL_TIM_Encoder_Start>
  cnt1 = TIM3->CNT;
 80037f8:	6a73      	ldr	r3, [r6, #36]	; 0x24
 80037fa:	8023      	strh	r3, [r4, #0]
  tick = HAL_GetTick();
 80037fc:	f7fc ff0a 	bl	8000614 <HAL_GetTick>
         cnt2 = TIM3->CNT;
 8003800:	46b0      	mov	r8, r6
         printf("\r\n");
 8003802:	4e47      	ldr	r6, [pc, #284]	; (8003920 <main+0x15c>)
  tick = HAL_GetTick();
 8003804:	6028      	str	r0, [r5, #0]
    MX_USB_HOST_Process();
 8003806:	f000 fa13 	bl	8003c30 <MX_USB_HOST_Process>
    if(HAL_GetTick() - tick > 1000L)
 800380a:	f7fc ff03 	bl	8000614 <HAL_GetTick>
 800380e:	682b      	ldr	r3, [r5, #0]
 8003810:	1ac0      	subs	r0, r0, r3
 8003812:	f5b0 7f7a 	cmp.w	r0, #1000	; 0x3e8
 8003816:	d9f6      	bls.n	8003806 <main+0x42>
         cnt2 = TIM3->CNT;
 8003818:	f8d8 2024 	ldr.w	r2, [r8, #36]	; 0x24
 800381c:	4941      	ldr	r1, [pc, #260]	; (8003924 <main+0x160>)
 800381e:	f8df a114 	ldr.w	sl, [pc, #276]	; 8003934 <main+0x170>
 8003822:	f8df 9114 	ldr.w	r9, [pc, #276]	; 8003938 <main+0x174>
 8003826:	b293      	uxth	r3, r2
 8003828:	800b      	strh	r3, [r1, #0]
         if(__HAL_TIM_IS_TIM_COUNTING_DOWN(&htim3))
 800382a:	493c      	ldr	r1, [pc, #240]	; (800391c <main+0x158>)
 800382c:	6809      	ldr	r1, [r1, #0]
 800382e:	6809      	ldr	r1, [r1, #0]
 8003830:	f011 0110 	ands.w	r1, r1, #16
 8003834:	d056      	beq.n	80038e4 <main+0x120>
           dir = 1;
 8003836:	2101      	movs	r1, #1
 8003838:	f8aa 1000 	strh.w	r1, [sl]
           if((cnt2 > cnt1) && (cnt2 - cnt1 < 100)) dir = 0;
 800383c:	8821      	ldrh	r1, [r4, #0]
 800383e:	428b      	cmp	r3, r1
 8003840:	d909      	bls.n	8003856 <main+0x92>
 8003842:	1a5a      	subs	r2, r3, r1
 8003844:	2a63      	cmp	r2, #99	; 0x63
 8003846:	dc06      	bgt.n	8003856 <main+0x92>
 8003848:	2200      	movs	r2, #0
           if((cnt1 > cnt2) && (cnt1 - cnt2 < 100)) dir = 1;
 800384a:	f8aa 2000 	strh.w	r2, [sl]
         if(dir)
 800384e:	f8ba 2000 	ldrh.w	r2, [sl]
 8003852:	2a00      	cmp	r2, #0
 8003854:	d051      	beq.n	80038fa <main+0x136>
           if(cnt1 >= cnt2) diff = cnt1 - cnt2;
 8003856:	8822      	ldrh	r2, [r4, #0]
 8003858:	4293      	cmp	r3, r2
           else diff = (TIM3->ARR + cnt1) - cnt2 ;
 800385a:	bf84      	itt	hi
 800385c:	f8d8 102c 	ldrhi.w	r1, [r8, #44]	; 0x2c
 8003860:	1852      	addhi	r2, r2, r1
 8003862:	1ad3      	subs	r3, r2, r3
           else diff = (TIM3->ARR + cnt2) - cnt1 ;
 8003864:	f8a9 3000 	strh.w	r3, [r9]
         if((TIM3->SMCR & 0x03) == 0x03)
 8003868:	f8d8 3008 	ldr.w	r3, [r8, #8]
 800386c:	f8df b0cc 	ldr.w	fp, [pc, #204]	; 800393c <main+0x178>
 8003870:	f003 0303 	and.w	r3, r3, #3
 8003874:	2b03      	cmp	r3, #3
           speed = diff * 60 / 4 / ONE_ROTATION_PULSES; //RPM   x 60
 8003876:	bf0f      	iteee	eq
 8003878:	f8b9 3000 	ldrheq.w	r3, [r9]
           speed = diff * 60 / 2 / ONE_ROTATION_PULSES; //RPM   x 60
 800387c:	f8b9 2000 	ldrhne.w	r2, [r9]
 8003880:	231e      	movne	r3, #30
 8003882:	4353      	mulne	r3, r2
           speed = diff * 60 / 4 / ONE_ROTATION_PULSES; //RPM   x 60
 8003884:	bf08      	it	eq
 8003886:	ebc3 1303 	rsbeq	r3, r3, r3, lsl #4
           speed = diff * 60 / 2 / ONE_ROTATION_PULSES; //RPM   x 60
 800388a:	2214      	movs	r2, #20
 800388c:	fb93 f3f2 	sdiv	r3, r3, r2
 8003890:	f8ab 3000 	strh.w	r3, [fp]
         tick = HAL_GetTick();
 8003894:	f7fc febe 	bl	8000614 <HAL_GetTick>
 8003898:	6028      	str	r0, [r5, #0]
         cnt1 = TIM3->CNT;
 800389a:	f8d8 3024 	ldr.w	r3, [r8, #36]	; 0x24
         printf(" dir:  ");
 800389e:	4822      	ldr	r0, [pc, #136]	; (8003928 <main+0x164>)
         cnt1 = TIM3->CNT;
 80038a0:	8023      	strh	r3, [r4, #0]
         printf(" dir:  ");
 80038a2:	f000 fc0f 	bl	80040c4 <iprintf>
         printf("%d\n ", dir);
 80038a6:	f8ba 1000 	ldrh.w	r1, [sl]
 80038aa:	4638      	mov	r0, r7
 80038ac:	f000 fc0a 	bl	80040c4 <iprintf>
         printf("\r\n");
 80038b0:	4630      	mov	r0, r6
 80038b2:	f000 fc7b 	bl	80041ac <puts>
         printf(" diff:  ");
 80038b6:	481d      	ldr	r0, [pc, #116]	; (800392c <main+0x168>)
 80038b8:	f000 fc04 	bl	80040c4 <iprintf>
         printf("%d\n ", diff);
 80038bc:	f8b9 1000 	ldrh.w	r1, [r9]
 80038c0:	4638      	mov	r0, r7
 80038c2:	f000 fbff 	bl	80040c4 <iprintf>
         printf("\r\n");
 80038c6:	4630      	mov	r0, r6
 80038c8:	f000 fc70 	bl	80041ac <puts>
         printf(" speed:  ");
 80038cc:	4818      	ldr	r0, [pc, #96]	; (8003930 <main+0x16c>)
 80038ce:	f000 fbf9 	bl	80040c4 <iprintf>
         printf("%d\n ", speed);
 80038d2:	f8bb 1000 	ldrh.w	r1, [fp]
 80038d6:	4638      	mov	r0, r7
 80038d8:	f000 fbf4 	bl	80040c4 <iprintf>
         printf("\r\n");
 80038dc:	4630      	mov	r0, r6
 80038de:	f000 fc65 	bl	80041ac <puts>
 80038e2:	e790      	b.n	8003806 <main+0x42>
           dir = 0;
 80038e4:	f8aa 1000 	strh.w	r1, [sl]
           if((cnt1 > cnt2) && (cnt1 - cnt2 < 100)) dir = 1;
 80038e8:	8821      	ldrh	r1, [r4, #0]
 80038ea:	428b      	cmp	r3, r1
 80038ec:	d205      	bcs.n	80038fa <main+0x136>
 80038ee:	b292      	uxth	r2, r2
 80038f0:	1a8a      	subs	r2, r1, r2
 80038f2:	2a63      	cmp	r2, #99	; 0x63
 80038f4:	dc01      	bgt.n	80038fa <main+0x136>
 80038f6:	2201      	movs	r2, #1
 80038f8:	e7a7      	b.n	800384a <main+0x86>
           if(cnt2 >= cnt1) diff = cnt2 - cnt1;
 80038fa:	8822      	ldrh	r2, [r4, #0]
 80038fc:	4293      	cmp	r3, r2
           else diff = (TIM3->ARR + cnt2) - cnt1 ;
 80038fe:	bf3c      	itt	cc
 8003900:	f8d8 102c 	ldrcc.w	r1, [r8, #44]	; 0x2c
 8003904:	185b      	addcc	r3, r3, r1
 8003906:	1a9b      	subs	r3, r3, r2
 8003908:	e7ac      	b.n	8003864 <main+0xa0>
 800390a:	bf00      	nop
 800390c:	40000400 	.word	0x40000400
 8003910:	2000016e 	.word	0x2000016e
 8003914:	20000164 	.word	0x20000164
 8003918:	08004e48 	.word	0x08004e48
 800391c:	200001c8 	.word	0x200001c8
 8003920:	08004e4d 	.word	0x08004e4d
 8003924:	20000160 	.word	0x20000160
 8003928:	08004e40 	.word	0x08004e40
 800392c:	08004e4f 	.word	0x08004e4f
 8003930:	08004e58 	.word	0x08004e58
 8003934:	20000168 	.word	0x20000168
 8003938:	2000016c 	.word	0x2000016c
 800393c:	2000016a 	.word	0x2000016a

08003940 <Error_Handler>:
/**
  * @brief  This function is executed in case of error occurrence.
  * @retval None
  */
void Error_Handler(void)
{
 8003940:	4770      	bx	lr
	...

08003944 <MX_SPI1_Init>:

SPI_HandleTypeDef hspi1;

/* SPI1 init function */
void MX_SPI1_Init(void)
{
 8003944:	b508      	push	{r3, lr}

  hspi1.Instance = SPI1;
 8003946:	480e      	ldr	r0, [pc, #56]	; (8003980 <MX_SPI1_Init+0x3c>)
  hspi1.Init.Mode = SPI_MODE_MASTER;
 8003948:	4b0e      	ldr	r3, [pc, #56]	; (8003984 <MX_SPI1_Init+0x40>)
 800394a:	f44f 7e82 	mov.w	lr, #260	; 0x104
 800394e:	e880 4008 	stmia.w	r0, {r3, lr}
  hspi1.Init.Direction = SPI_DIRECTION_2LINES;
 8003952:	2300      	movs	r3, #0
 8003954:	6083      	str	r3, [r0, #8]
  hspi1.Init.DataSize = SPI_DATASIZE_8BIT;
 8003956:	60c3      	str	r3, [r0, #12]
  hspi1.Init.CLKPolarity = SPI_POLARITY_LOW;
 8003958:	6103      	str	r3, [r0, #16]
  hspi1.Init.CLKPhase = SPI_PHASE_1EDGE;
 800395a:	6143      	str	r3, [r0, #20]
  hspi1.Init.NSS = SPI_NSS_SOFT;
 800395c:	f44f 7200 	mov.w	r2, #512	; 0x200
  hspi1.Init.BaudRatePrescaler = SPI_BAUDRATEPRESCALER_2;
 8003960:	61c3      	str	r3, [r0, #28]
  hspi1.Init.FirstBit = SPI_FIRSTBIT_MSB;
 8003962:	6203      	str	r3, [r0, #32]
  hspi1.Init.TIMode = SPI_TIMODE_DISABLE;
 8003964:	6243      	str	r3, [r0, #36]	; 0x24
  hspi1.Init.CRCCalculation = SPI_CRCCALCULATION_DISABLE;
 8003966:	6283      	str	r3, [r0, #40]	; 0x28
  hspi1.Init.CRCPolynomial = 10;
 8003968:	230a      	movs	r3, #10
  hspi1.Init.NSS = SPI_NSS_SOFT;
 800396a:	6182      	str	r2, [r0, #24]
  hspi1.Init.CRCPolynomial = 10;
 800396c:	62c3      	str	r3, [r0, #44]	; 0x2c
  if (HAL_SPI_Init(&hspi1) != HAL_OK)
 800396e:	f7fe fa33 	bl	8001dd8 <HAL_SPI_Init>
 8003972:	b118      	cbz	r0, 800397c <MX_SPI1_Init+0x38>
  {
    Error_Handler();
  }

}
 8003974:	e8bd 4008 	ldmia.w	sp!, {r3, lr}
    Error_Handler();
 8003978:	f7ff bfe2 	b.w	8003940 <Error_Handler>
 800397c:	bd08      	pop	{r3, pc}
 800397e:	bf00      	nop
 8003980:	20000170 	.word	0x20000170
 8003984:	40013000 	.word	0x40013000

08003988 <HAL_SPI_MspInit>:

void HAL_SPI_MspInit(SPI_HandleTypeDef* spiHandle)
{
 8003988:	b510      	push	{r4, lr}
 800398a:	4604      	mov	r4, r0
 800398c:	b088      	sub	sp, #32

  GPIO_InitTypeDef GPIO_InitStruct = {0};
 800398e:	2214      	movs	r2, #20
 8003990:	2100      	movs	r1, #0
 8003992:	a803      	add	r0, sp, #12
 8003994:	f000 fae2 	bl	8003f5c <memset>
  if(spiHandle->Instance==SPI1)
 8003998:	6822      	ldr	r2, [r4, #0]
 800399a:	4b13      	ldr	r3, [pc, #76]	; (80039e8 <HAL_SPI_MspInit+0x60>)
 800399c:	429a      	cmp	r2, r3
 800399e:	d120      	bne.n	80039e2 <HAL_SPI_MspInit+0x5a>
  {
  /* USER CODE BEGIN SPI1_MspInit 0 */

  /* USER CODE END SPI1_MspInit 0 */
    /* SPI1 clock enable */
    __HAL_RCC_SPI1_CLK_ENABLE();
 80039a0:	f503 3384 	add.w	r3, r3, #67584	; 0x10800
 80039a4:	2100      	movs	r1, #0
 80039a6:	9101      	str	r1, [sp, #4]
 80039a8:	6c5a      	ldr	r2, [r3, #68]	; 0x44
    GPIO_InitStruct.Pin = SPI1_SCK_Pin|SPI1_MISO_Pin|SPI1_MOSI_Pin;
    GPIO_InitStruct.Mode = GPIO_MODE_AF_PP;
    GPIO_InitStruct.Pull = GPIO_NOPULL;
    GPIO_InitStruct.Speed = GPIO_SPEED_FREQ_LOW;
    GPIO_InitStruct.Alternate = GPIO_AF5_SPI1;
    HAL_GPIO_Init(GPIOA, &GPIO_InitStruct);
 80039aa:	4810      	ldr	r0, [pc, #64]	; (80039ec <HAL_SPI_MspInit+0x64>)
    __HAL_RCC_SPI1_CLK_ENABLE();
 80039ac:	f442 5280 	orr.w	r2, r2, #4096	; 0x1000
 80039b0:	645a      	str	r2, [r3, #68]	; 0x44
 80039b2:	6c5a      	ldr	r2, [r3, #68]	; 0x44
 80039b4:	f402 5280 	and.w	r2, r2, #4096	; 0x1000
 80039b8:	9201      	str	r2, [sp, #4]
 80039ba:	9a01      	ldr	r2, [sp, #4]
    __HAL_RCC_GPIOA_CLK_ENABLE();
 80039bc:	9102      	str	r1, [sp, #8]
 80039be:	6b1a      	ldr	r2, [r3, #48]	; 0x30
 80039c0:	f042 0201 	orr.w	r2, r2, #1
 80039c4:	631a      	str	r2, [r3, #48]	; 0x30
 80039c6:	6b1b      	ldr	r3, [r3, #48]	; 0x30
 80039c8:	f003 0301 	and.w	r3, r3, #1
 80039cc:	9302      	str	r3, [sp, #8]
 80039ce:	9b02      	ldr	r3, [sp, #8]
    GPIO_InitStruct.Pin = SPI1_SCK_Pin|SPI1_MISO_Pin|SPI1_MOSI_Pin;
 80039d0:	23e0      	movs	r3, #224	; 0xe0
 80039d2:	9303      	str	r3, [sp, #12]
    GPIO_InitStruct.Mode = GPIO_MODE_AF_PP;
 80039d4:	2302      	movs	r3, #2
 80039d6:	9304      	str	r3, [sp, #16]
    HAL_GPIO_Init(GPIOA, &GPIO_InitStruct);
 80039d8:	a903      	add	r1, sp, #12
    GPIO_InitStruct.Alternate = GPIO_AF5_SPI1;
 80039da:	2305      	movs	r3, #5
 80039dc:	9307      	str	r3, [sp, #28]
    HAL_GPIO_Init(GPIOA, &GPIO_InitStruct);
 80039de:	f7fc fe9d 	bl	800071c <HAL_GPIO_Init>

  /* USER CODE BEGIN SPI1_MspInit 1 */

  /* USER CODE END SPI1_MspInit 1 */
  }
}
 80039e2:	b008      	add	sp, #32
 80039e4:	bd10      	pop	{r4, pc}
 80039e6:	bf00      	nop
 80039e8:	40013000 	.word	0x40013000
 80039ec:	40020000 	.word	0x40020000

080039f0 <HAL_MspInit>:
/* USER CODE END 0 */
/**
  * Initializes the Global MSP.
  */
void HAL_MspInit(void)
{
 80039f0:	b082      	sub	sp, #8
  /* USER CODE BEGIN MspInit 0 */

  /* USER CODE END MspInit 0 */

  __HAL_RCC_SYSCFG_CLK_ENABLE();
 80039f2:	4b0c      	ldr	r3, [pc, #48]	; (8003a24 <HAL_MspInit+0x34>)
 80039f4:	2100      	movs	r1, #0
 80039f6:	9100      	str	r1, [sp, #0]
 80039f8:	6c5a      	ldr	r2, [r3, #68]	; 0x44
 80039fa:	f442 4280 	orr.w	r2, r2, #16384	; 0x4000
 80039fe:	645a      	str	r2, [r3, #68]	; 0x44
 8003a00:	6c5a      	ldr	r2, [r3, #68]	; 0x44
 8003a02:	f402 4280 	and.w	r2, r2, #16384	; 0x4000
 8003a06:	9200      	str	r2, [sp, #0]
 8003a08:	9a00      	ldr	r2, [sp, #0]
  __HAL_RCC_PWR_CLK_ENABLE();
 8003a0a:	9101      	str	r1, [sp, #4]
 8003a0c:	6c1a      	ldr	r2, [r3, #64]	; 0x40
 8003a0e:	f042 5280 	orr.w	r2, r2, #268435456	; 0x10000000
 8003a12:	641a      	str	r2, [r3, #64]	; 0x40
 8003a14:	6c1b      	ldr	r3, [r3, #64]	; 0x40
 8003a16:	f003 5380 	and.w	r3, r3, #268435456	; 0x10000000
 8003a1a:	9301      	str	r3, [sp, #4]
 8003a1c:	9b01      	ldr	r3, [sp, #4]
  /* System interrupt init*/

  /* USER CODE BEGIN MspInit 1 */

  /* USER CODE END MspInit 1 */
}
 8003a1e:	b002      	add	sp, #8
 8003a20:	4770      	bx	lr
 8003a22:	bf00      	nop
 8003a24:	40023800 	.word	0x40023800

08003a28 <NMI_Handler>:
 8003a28:	4770      	bx	lr

08003a2a <HardFault_Handler>:

/**
  * @brief This function handles Hard fault interrupt.
  */
void HardFault_Handler(void)
{
 8003a2a:	e7fe      	b.n	8003a2a <HardFault_Handler>

08003a2c <MemManage_Handler>:

/**
  * @brief This function handles Memory management fault.
  */
void MemManage_Handler(void)
{
 8003a2c:	e7fe      	b.n	8003a2c <MemManage_Handler>

08003a2e <BusFault_Handler>:

/**
  * @brief This function handles Pre-fetch fault, memory access fault.
  */
void BusFault_Handler(void)
{
 8003a2e:	e7fe      	b.n	8003a2e <BusFault_Handler>

08003a30 <UsageFault_Handler>:

/**
  * @brief This function handles Undefined instruction or illegal state.
  */
void UsageFault_Handler(void)
{
 8003a30:	e7fe      	b.n	8003a30 <UsageFault_Handler>

08003a32 <SVC_Handler>:
 8003a32:	4770      	bx	lr

08003a34 <DebugMon_Handler>:
 8003a34:	4770      	bx	lr

08003a36 <PendSV_Handler>:

/**
  * @brief This function handles Pendable request for system service.
  */
void PendSV_Handler(void)
{
 8003a36:	4770      	bx	lr

08003a38 <SysTick_Handler>:
void SysTick_Handler(void)
{
  /* USER CODE BEGIN SysTick_IRQn 0 */

  /* USER CODE END SysTick_IRQn 0 */
  HAL_IncTick();
 8003a38:	f7fc bde0 	b.w	80005fc <HAL_IncTick>

08003a3c <OTG_FS_IRQHandler>:
void OTG_FS_IRQHandler(void)
{
  /* USER CODE BEGIN OTG_FS_IRQn 0 */

  /* USER CODE END OTG_FS_IRQn 0 */
  HAL_HCD_IRQHandler(&hhcd_USB_OTG_FS);
 8003a3c:	4801      	ldr	r0, [pc, #4]	; (8003a44 <OTG_FS_IRQHandler+0x8>)
 8003a3e:	f7fd b849 	b.w	8000ad4 <HAL_HCD_IRQHandler>
 8003a42:	bf00      	nop
 8003a44:	200005d4 	.word	0x200005d4

08003a48 <_read>:
	_kill(status, -1);
	while (1) {}		/* Make sure we hang here */
}

__attribute__((weak)) int _read(int file, char *ptr, int len)
{
 8003a48:	b570      	push	{r4, r5, r6, lr}
 8003a4a:	460e      	mov	r6, r1
 8003a4c:	4615      	mov	r5, r2
	int DataIdx;

	for (DataIdx = 0; DataIdx < len; DataIdx++)
 8003a4e:	460c      	mov	r4, r1
 8003a50:	1ba3      	subs	r3, r4, r6
 8003a52:	429d      	cmp	r5, r3
 8003a54:	dc01      	bgt.n	8003a5a <_read+0x12>
	{
		*ptr++ = __io_getchar();
	}

return len;
}
 8003a56:	4628      	mov	r0, r5
 8003a58:	bd70      	pop	{r4, r5, r6, pc}
		*ptr++ = __io_getchar();
 8003a5a:	f3af 8000 	nop.w
 8003a5e:	f804 0b01 	strb.w	r0, [r4], #1
 8003a62:	e7f5      	b.n	8003a50 <_read+0x8>

08003a64 <_write>:
//		__io_putchar(*ptr++);
//	}
//	return len;
//}
int _write(int32_t file, uint8_t *ptr, int32_t len)
{
 8003a64:	b538      	push	{r3, r4, r5, lr}
 8003a66:	460d      	mov	r5, r1
 8003a68:	4614      	mov	r4, r2
   /* Implement your write code here, this is used by puts and printf for example */
   /* return len; */

   errno = ENOSYS;
 8003a6a:	f000 fa3d 	bl	8003ee8 <__errno>
 8003a6e:	2358      	movs	r3, #88	; 0x58
 8003a70:	6003      	str	r3, [r0, #0]
   int i;
   for(i=0;i<len;i++)
 8003a72:	2300      	movs	r3, #0
  \param [in]     ch  Character to transmit.
  \returns            Character to transmit.
 */
__STATIC_INLINE uint32_t ITM_SendChar (uint32_t ch)
{
  if (((ITM->TCR & ITM_TCR_ITMENA_Msk) != 0UL) &&      /* ITM enabled */
 8003a74:	f04f 4060 	mov.w	r0, #3758096384	; 0xe0000000
 8003a78:	42a3      	cmp	r3, r4
 8003a7a:	db01      	blt.n	8003a80 <_write+0x1c>
      ITM_SendChar(*ptr++);
   return len;
}
 8003a7c:	4620      	mov	r0, r4
 8003a7e:	bd38      	pop	{r3, r4, r5, pc}
 8003a80:	f8d0 2e80 	ldr.w	r2, [r0, #3712]	; 0xe80
 8003a84:	07d1      	lsls	r1, r2, #31
 8003a86:	d503      	bpl.n	8003a90 <_write+0x2c>
      ((ITM->TER & 1UL               ) != 0UL)   )     /* ITM Port #0 enabled */
 8003a88:	f8d0 2e00 	ldr.w	r2, [r0, #3584]	; 0xe00
  if (((ITM->TCR & ITM_TCR_ITMENA_Msk) != 0UL) &&      /* ITM enabled */
 8003a8c:	07d2      	lsls	r2, r2, #31
 8003a8e:	d402      	bmi.n	8003a96 <_write+0x32>
   for(i=0;i<len;i++)
 8003a90:	3301      	adds	r3, #1
 8003a92:	e7f1      	b.n	8003a78 <_write+0x14>
  {
    while (ITM->PORT[0U].u32 == 0UL)
    {
      __NOP();
 8003a94:	bf00      	nop
    while (ITM->PORT[0U].u32 == 0UL)
 8003a96:	6802      	ldr	r2, [r0, #0]
 8003a98:	2a00      	cmp	r2, #0
 8003a9a:	d0fb      	beq.n	8003a94 <_write+0x30>
      ITM_SendChar(*ptr++);
 8003a9c:	5cea      	ldrb	r2, [r5, r3]
    }
    ITM->PORT[0U].u8 = (uint8_t)ch;
 8003a9e:	7002      	strb	r2, [r0, #0]
 8003aa0:	e7f6      	b.n	8003a90 <_write+0x2c>
	...

08003aa4 <_sbrk>:

caddr_t _sbrk(int incr)
{
 8003aa4:	b508      	push	{r3, lr}
	extern char end asm("end");
	static char *heap_end;
	char *prev_heap_end;

	if (heap_end == 0)
 8003aa6:	4b0a      	ldr	r3, [pc, #40]	; (8003ad0 <_sbrk+0x2c>)
 8003aa8:	6819      	ldr	r1, [r3, #0]
{
 8003aaa:	4602      	mov	r2, r0
	if (heap_end == 0)
 8003aac:	b909      	cbnz	r1, 8003ab2 <_sbrk+0xe>
		heap_end = &end;
 8003aae:	4909      	ldr	r1, [pc, #36]	; (8003ad4 <_sbrk+0x30>)
 8003ab0:	6019      	str	r1, [r3, #0]

	prev_heap_end = heap_end;
 8003ab2:	6818      	ldr	r0, [r3, #0]
	if (heap_end + incr > stack_ptr)
 8003ab4:	4669      	mov	r1, sp
 8003ab6:	4402      	add	r2, r0
 8003ab8:	428a      	cmp	r2, r1
 8003aba:	d906      	bls.n	8003aca <_sbrk+0x26>
	{
//		write(1, "Heap and stack collision\n", 25);
//		abort();
		errno = ENOMEM;
 8003abc:	f000 fa14 	bl	8003ee8 <__errno>
 8003ac0:	230c      	movs	r3, #12
 8003ac2:	6003      	str	r3, [r0, #0]
		return (caddr_t) -1;
 8003ac4:	f04f 30ff 	mov.w	r0, #4294967295
 8003ac8:	bd08      	pop	{r3, pc}
	}

	heap_end += incr;
 8003aca:	601a      	str	r2, [r3, #0]

	return (caddr_t) prev_heap_end;
}
 8003acc:	bd08      	pop	{r3, pc}
 8003ace:	bf00      	nop
 8003ad0:	200000b0 	.word	0x200000b0
 8003ad4:	2000089c 	.word	0x2000089c

08003ad8 <_close>:

int _close(int file)
{
	return -1;
}
 8003ad8:	f04f 30ff 	mov.w	r0, #4294967295
 8003adc:	4770      	bx	lr

08003ade <_fstat>:


int _fstat(int file, struct stat *st)
{
	st->st_mode = S_IFCHR;
 8003ade:	f44f 5300 	mov.w	r3, #8192	; 0x2000
 8003ae2:	604b      	str	r3, [r1, #4]
	return 0;
}
 8003ae4:	2000      	movs	r0, #0
 8003ae6:	4770      	bx	lr

08003ae8 <_isatty>:

int _isatty(int file)
{
	return 1;
}
 8003ae8:	2001      	movs	r0, #1
 8003aea:	4770      	bx	lr

08003aec <_lseek>:

int _lseek(int file, int ptr, int dir)
{
	return 0;
}
 8003aec:	2000      	movs	r0, #0
 8003aee:	4770      	bx	lr

08003af0 <SystemInit>:
  */
void SystemInit(void)
{
  /* FPU settings ------------------------------------------------------------*/
  #if (__FPU_PRESENT == 1) && (__FPU_USED == 1)
    SCB->CPACR |= ((3UL << 10*2)|(3UL << 11*2));  /* set CP10 and CP11 Full Access */
 8003af0:	4b05      	ldr	r3, [pc, #20]	; (8003b08 <SystemInit+0x18>)
 8003af2:	f8d3 2088 	ldr.w	r2, [r3, #136]	; 0x88
 8003af6:	f442 0270 	orr.w	r2, r2, #15728640	; 0xf00000
 8003afa:	f8c3 2088 	str.w	r2, [r3, #136]	; 0x88

  /* Configure the Vector Table location add offset address ------------------*/
#ifdef VECT_TAB_SRAM
  SCB->VTOR = SRAM_BASE | VECT_TAB_OFFSET; /* Vector Table Relocation in Internal SRAM */
#else
  SCB->VTOR = FLASH_BASE | VECT_TAB_OFFSET; /* Vector Table Relocation in Internal FLASH */
 8003afe:	f04f 6200 	mov.w	r2, #134217728	; 0x8000000
 8003b02:	609a      	str	r2, [r3, #8]
 8003b04:	4770      	bx	lr
 8003b06:	bf00      	nop
 8003b08:	e000ed00 	.word	0xe000ed00

08003b0c <MX_TIM3_Init>:

TIM_HandleTypeDef htim3;

/* TIM3 init function */
void MX_TIM3_Init(void)
{
 8003b0c:	b510      	push	{r4, lr}
 8003b0e:	b08c      	sub	sp, #48	; 0x30
  TIM_Encoder_InitTypeDef sConfig = {0};
 8003b10:	2100      	movs	r1, #0
 8003b12:	2224      	movs	r2, #36	; 0x24
 8003b14:	a803      	add	r0, sp, #12
 8003b16:	f000 fa21 	bl	8003f5c <memset>
  TIM_MasterConfigTypeDef sMasterConfig = {0};

  htim3.Instance = TIM3;
 8003b1a:	4811      	ldr	r0, [pc, #68]	; (8003b60 <MX_TIM3_Init+0x54>)
 8003b1c:	4b11      	ldr	r3, [pc, #68]	; (8003b64 <MX_TIM3_Init+0x58>)
  TIM_MasterConfigTypeDef sMasterConfig = {0};
 8003b1e:	2400      	movs	r4, #0
  htim3.Init.Prescaler = 0;
 8003b20:	e880 0018 	stmia.w	r0, {r3, r4}
  htim3.Init.CounterMode = TIM_COUNTERMODE_UP;
  htim3.Init.Period = 65535;
 8003b24:	f64f 73ff 	movw	r3, #65535	; 0xffff
 8003b28:	60c3      	str	r3, [r0, #12]
  htim3.Init.ClockDivision = TIM_CLOCKDIVISION_DIV1;
  htim3.Init.AutoReloadPreload = TIM_AUTORELOAD_PRELOAD_DISABLE;
  sConfig.EncoderMode = TIM_ENCODERMODE_TI12;
 8003b2a:	2303      	movs	r3, #3
 8003b2c:	9303      	str	r3, [sp, #12]
  sConfig.IC1Filter = 0;
  sConfig.IC2Polarity = TIM_ICPOLARITY_RISING;
  sConfig.IC2Selection = TIM_ICSELECTION_DIRECTTI;
  sConfig.IC2Prescaler = TIM_ICPSC_DIV1;
  sConfig.IC2Filter = 0;
  if (HAL_TIM_Encoder_Init(&htim3, &sConfig) != HAL_OK)
 8003b2e:	a903      	add	r1, sp, #12
  sConfig.IC1Selection = TIM_ICSELECTION_DIRECTTI;
 8003b30:	2301      	movs	r3, #1
  TIM_MasterConfigTypeDef sMasterConfig = {0};
 8003b32:	9401      	str	r4, [sp, #4]
 8003b34:	9402      	str	r4, [sp, #8]
  htim3.Init.CounterMode = TIM_COUNTERMODE_UP;
 8003b36:	6084      	str	r4, [r0, #8]
  htim3.Init.ClockDivision = TIM_CLOCKDIVISION_DIV1;
 8003b38:	6104      	str	r4, [r0, #16]
  htim3.Init.AutoReloadPreload = TIM_AUTORELOAD_PRELOAD_DISABLE;
 8003b3a:	6184      	str	r4, [r0, #24]
  sConfig.IC1Selection = TIM_ICSELECTION_DIRECTTI;
 8003b3c:	9305      	str	r3, [sp, #20]
  sConfig.IC2Selection = TIM_ICSELECTION_DIRECTTI;
 8003b3e:	9309      	str	r3, [sp, #36]	; 0x24
  if (HAL_TIM_Encoder_Init(&htim3, &sConfig) != HAL_OK)
 8003b40:	f7fe fa10 	bl	8001f64 <HAL_TIM_Encoder_Init>
 8003b44:	b108      	cbz	r0, 8003b4a <MX_TIM3_Init+0x3e>
  {
    Error_Handler();
 8003b46:	f7ff fefb 	bl	8003940 <Error_Handler>
  }
  sMasterConfig.MasterOutputTrigger = TIM_TRGO_RESET;
  sMasterConfig.MasterSlaveMode = TIM_MASTERSLAVEMODE_DISABLE;
  if (HAL_TIMEx_MasterConfigSynchronization(&htim3, &sMasterConfig) != HAL_OK)
 8003b4a:	a901      	add	r1, sp, #4
 8003b4c:	4804      	ldr	r0, [pc, #16]	; (8003b60 <MX_TIM3_Init+0x54>)
  sMasterConfig.MasterOutputTrigger = TIM_TRGO_RESET;
 8003b4e:	9401      	str	r4, [sp, #4]
  sMasterConfig.MasterSlaveMode = TIM_MASTERSLAVEMODE_DISABLE;
 8003b50:	9402      	str	r4, [sp, #8]
  if (HAL_TIMEx_MasterConfigSynchronization(&htim3, &sMasterConfig) != HAL_OK)
 8003b52:	f7fe fa53 	bl	8001ffc <HAL_TIMEx_MasterConfigSynchronization>
 8003b56:	b108      	cbz	r0, 8003b5c <MX_TIM3_Init+0x50>
  {
    Error_Handler();
 8003b58:	f7ff fef2 	bl	8003940 <Error_Handler>
  }

}
 8003b5c:	b00c      	add	sp, #48	; 0x30
 8003b5e:	bd10      	pop	{r4, pc}
 8003b60:	200001c8 	.word	0x200001c8
 8003b64:	40000400 	.word	0x40000400

08003b68 <HAL_TIM_Encoder_MspInit>:

void HAL_TIM_Encoder_MspInit(TIM_HandleTypeDef* tim_encoderHandle)
{
 8003b68:	b510      	push	{r4, lr}
 8003b6a:	4604      	mov	r4, r0
 8003b6c:	b088      	sub	sp, #32

  GPIO_InitTypeDef GPIO_InitStruct = {0};
 8003b6e:	2214      	movs	r2, #20
 8003b70:	2100      	movs	r1, #0
 8003b72:	a803      	add	r0, sp, #12
 8003b74:	f000 f9f2 	bl	8003f5c <memset>
  if(tim_encoderHandle->Instance==TIM3)
 8003b78:	6822      	ldr	r2, [r4, #0]
 8003b7a:	4b12      	ldr	r3, [pc, #72]	; (8003bc4 <HAL_TIM_Encoder_MspInit+0x5c>)
 8003b7c:	429a      	cmp	r2, r3
 8003b7e:	d11f      	bne.n	8003bc0 <HAL_TIM_Encoder_MspInit+0x58>
  {
  /* USER CODE BEGIN TIM3_MspInit 0 */

  /* USER CODE END TIM3_MspInit 0 */
    /* TIM3 clock enable */
    __HAL_RCC_TIM3_CLK_ENABLE();
 8003b80:	f503 330d 	add.w	r3, r3, #144384	; 0x23400
 8003b84:	2100      	movs	r1, #0
 8003b86:	9101      	str	r1, [sp, #4]
 8003b88:	6c1a      	ldr	r2, [r3, #64]	; 0x40
    GPIO_InitStruct.Pin = GPIO_PIN_6|GPIO_PIN_7;
    GPIO_InitStruct.Mode = GPIO_MODE_AF_PP;
    GPIO_InitStruct.Pull = GPIO_NOPULL;
    GPIO_InitStruct.Speed = GPIO_SPEED_FREQ_LOW;
    GPIO_InitStruct.Alternate = GPIO_AF2_TIM3;
    HAL_GPIO_Init(GPIOC, &GPIO_InitStruct);
 8003b8a:	480f      	ldr	r0, [pc, #60]	; (8003bc8 <HAL_TIM_Encoder_MspInit+0x60>)
    __HAL_RCC_TIM3_CLK_ENABLE();
 8003b8c:	f042 0202 	orr.w	r2, r2, #2
 8003b90:	641a      	str	r2, [r3, #64]	; 0x40
 8003b92:	6c1a      	ldr	r2, [r3, #64]	; 0x40
 8003b94:	f002 0202 	and.w	r2, r2, #2
 8003b98:	9201      	str	r2, [sp, #4]
 8003b9a:	9a01      	ldr	r2, [sp, #4]
    __HAL_RCC_GPIOC_CLK_ENABLE();
 8003b9c:	9102      	str	r1, [sp, #8]
 8003b9e:	6b1a      	ldr	r2, [r3, #48]	; 0x30
 8003ba0:	f042 0204 	orr.w	r2, r2, #4
 8003ba4:	631a      	str	r2, [r3, #48]	; 0x30
 8003ba6:	6b1b      	ldr	r3, [r3, #48]	; 0x30
 8003ba8:	f003 0304 	and.w	r3, r3, #4
 8003bac:	9302      	str	r3, [sp, #8]
 8003bae:	9b02      	ldr	r3, [sp, #8]
    GPIO_InitStruct.Pin = GPIO_PIN_6|GPIO_PIN_7;
 8003bb0:	23c0      	movs	r3, #192	; 0xc0
 8003bb2:	9303      	str	r3, [sp, #12]
    HAL_GPIO_Init(GPIOC, &GPIO_InitStruct);
 8003bb4:	a903      	add	r1, sp, #12
    GPIO_InitStruct.Mode = GPIO_MODE_AF_PP;
 8003bb6:	2302      	movs	r3, #2
 8003bb8:	9304      	str	r3, [sp, #16]
    GPIO_InitStruct.Alternate = GPIO_AF2_TIM3;
 8003bba:	9307      	str	r3, [sp, #28]
    HAL_GPIO_Init(GPIOC, &GPIO_InitStruct);
 8003bbc:	f7fc fdae 	bl	800071c <HAL_GPIO_Init>

  /* USER CODE BEGIN TIM3_MspInit 1 */

  /* USER CODE END TIM3_MspInit 1 */
  }
}
 8003bc0:	b008      	add	sp, #32
 8003bc2:	bd10      	pop	{r4, pc}
 8003bc4:	40000400 	.word	0x40000400
 8003bc8:	40020800 	.word	0x40020800

08003bcc <USBH_UserProcess>:
 * user callback definition
 */
static void USBH_UserProcess  (USBH_HandleTypeDef *phost, uint8_t id)
{
  /* USER CODE BEGIN CALL_BACK_1 */
  switch(id)
 8003bcc:	2904      	cmp	r1, #4
 8003bce:	d00a      	beq.n	8003be6 <USBH_UserProcess+0x1a>
 8003bd0:	2905      	cmp	r1, #5
 8003bd2:	d004      	beq.n	8003bde <USBH_UserProcess+0x12>
 8003bd4:	2902      	cmp	r1, #2
 8003bd6:	d105      	bne.n	8003be4 <USBH_UserProcess+0x18>
  case HOST_USER_DISCONNECTION:
  Appli_state = APPLICATION_DISCONNECT;
  break;

  case HOST_USER_CLASS_ACTIVE:
  Appli_state = APPLICATION_READY;
 8003bd8:	4b04      	ldr	r3, [pc, #16]	; (8003bec <USBH_UserProcess+0x20>)
 8003bda:	7019      	strb	r1, [r3, #0]
  break;
 8003bdc:	4770      	bx	lr
  Appli_state = APPLICATION_DISCONNECT;
 8003bde:	2203      	movs	r2, #3

  case HOST_USER_CONNECTION:
  Appli_state = APPLICATION_START;
 8003be0:	4b02      	ldr	r3, [pc, #8]	; (8003bec <USBH_UserProcess+0x20>)
 8003be2:	701a      	strb	r2, [r3, #0]
 8003be4:	4770      	bx	lr
 8003be6:	2201      	movs	r2, #1
 8003be8:	e7fa      	b.n	8003be0 <USBH_UserProcess+0x14>
 8003bea:	bf00      	nop
 8003bec:	200000b4 	.word	0x200000b4

08003bf0 <MX_USB_HOST_Init>:
{
 8003bf0:	b508      	push	{r3, lr}
  if (USBH_Init(&hUsbHostFS, USBH_UserProcess, HOST_FS) != USBH_OK)
 8003bf2:	2201      	movs	r2, #1
 8003bf4:	490b      	ldr	r1, [pc, #44]	; (8003c24 <MX_USB_HOST_Init+0x34>)
 8003bf6:	480c      	ldr	r0, [pc, #48]	; (8003c28 <MX_USB_HOST_Init+0x38>)
 8003bf8:	f7fe ff7a 	bl	8002af0 <USBH_Init>
 8003bfc:	b108      	cbz	r0, 8003c02 <MX_USB_HOST_Init+0x12>
    Error_Handler();
 8003bfe:	f7ff fe9f 	bl	8003940 <Error_Handler>
  if (USBH_RegisterClass(&hUsbHostFS, USBH_CDC_CLASS) != USBH_OK)
 8003c02:	490a      	ldr	r1, [pc, #40]	; (8003c2c <MX_USB_HOST_Init+0x3c>)
 8003c04:	4808      	ldr	r0, [pc, #32]	; (8003c28 <MX_USB_HOST_Init+0x38>)
 8003c06:	f7fe ff8a 	bl	8002b1e <USBH_RegisterClass>
 8003c0a:	b108      	cbz	r0, 8003c10 <MX_USB_HOST_Init+0x20>
    Error_Handler();
 8003c0c:	f7ff fe98 	bl	8003940 <Error_Handler>
  if (USBH_Start(&hUsbHostFS) != USBH_OK)
 8003c10:	4805      	ldr	r0, [pc, #20]	; (8003c28 <MX_USB_HOST_Init+0x38>)
 8003c12:	f7fe ffb7 	bl	8002b84 <USBH_Start>
 8003c16:	b118      	cbz	r0, 8003c20 <MX_USB_HOST_Init+0x30>
}
 8003c18:	e8bd 4008 	ldmia.w	sp!, {r3, lr}
    Error_Handler();
 8003c1c:	f7ff be90 	b.w	8003940 <Error_Handler>
 8003c20:	bd08      	pop	{r3, pc}
 8003c22:	bf00      	nop
 8003c24:	08003bcd 	.word	0x08003bcd
 8003c28:	20000208 	.word	0x20000208
 8003c2c:	20000008 	.word	0x20000008

08003c30 <MX_USB_HOST_Process>:
  USBH_Process(&hUsbHostFS);
 8003c30:	4801      	ldr	r0, [pc, #4]	; (8003c38 <MX_USB_HOST_Process+0x8>)
 8003c32:	f7fe bfb1 	b.w	8002b98 <USBH_Process>
 8003c36:	bf00      	nop
 8003c38:	20000208 	.word	0x20000208

08003c3c <HAL_HCD_MspInit>:
                       LL Driver Callbacks (HCD -> USB Host Library)
*******************************************************************************/
/* MSP Init */

void HAL_HCD_MspInit(HCD_HandleTypeDef* hcdHandle)
{
 8003c3c:	b530      	push	{r4, r5, lr}
 8003c3e:	4604      	mov	r4, r0
 8003c40:	b089      	sub	sp, #36	; 0x24
  GPIO_InitTypeDef GPIO_InitStruct = {0};
 8003c42:	2214      	movs	r2, #20
 8003c44:	2100      	movs	r1, #0
 8003c46:	a803      	add	r0, sp, #12
 8003c48:	f000 f988 	bl	8003f5c <memset>
  if(hcdHandle->Instance==USB_OTG_FS)
 8003c4c:	6823      	ldr	r3, [r4, #0]
 8003c4e:	f1b3 4fa0 	cmp.w	r3, #1342177280	; 0x50000000
 8003c52:	d135      	bne.n	8003cc0 <HAL_HCD_MspInit+0x84>
  {
  /* USER CODE BEGIN USB_OTG_FS_MspInit 0 */

  /* USER CODE END USB_OTG_FS_MspInit 0 */
  
    __HAL_RCC_GPIOA_CLK_ENABLE();
 8003c54:	4c1b      	ldr	r4, [pc, #108]	; (8003cc4 <HAL_HCD_MspInit+0x88>)
    PA12     ------> USB_OTG_FS_DP 
    */
    GPIO_InitStruct.Pin = VBUS_FS_Pin;
    GPIO_InitStruct.Mode = GPIO_MODE_INPUT;
    GPIO_InitStruct.Pull = GPIO_NOPULL;
    HAL_GPIO_Init(VBUS_FS_GPIO_Port, &GPIO_InitStruct);
 8003c56:	481c      	ldr	r0, [pc, #112]	; (8003cc8 <HAL_HCD_MspInit+0x8c>)
    __HAL_RCC_GPIOA_CLK_ENABLE();
 8003c58:	2500      	movs	r5, #0
 8003c5a:	9501      	str	r5, [sp, #4]
 8003c5c:	6b23      	ldr	r3, [r4, #48]	; 0x30
 8003c5e:	f043 0301 	orr.w	r3, r3, #1
 8003c62:	6323      	str	r3, [r4, #48]	; 0x30
 8003c64:	6b23      	ldr	r3, [r4, #48]	; 0x30
 8003c66:	f003 0301 	and.w	r3, r3, #1
 8003c6a:	9301      	str	r3, [sp, #4]
 8003c6c:	9b01      	ldr	r3, [sp, #4]
    HAL_GPIO_Init(VBUS_FS_GPIO_Port, &GPIO_InitStruct);
 8003c6e:	a903      	add	r1, sp, #12
    GPIO_InitStruct.Pin = VBUS_FS_Pin;
 8003c70:	f44f 7300 	mov.w	r3, #512	; 0x200
 8003c74:	9303      	str	r3, [sp, #12]
    HAL_GPIO_Init(VBUS_FS_GPIO_Port, &GPIO_InitStruct);
 8003c76:	f7fc fd51 	bl	800071c <HAL_GPIO_Init>

    GPIO_InitStruct.Pin = OTG_FS_ID_Pin|OTG_FS_DM_Pin|OTG_FS_DP_Pin;
 8003c7a:	f44f 53e0 	mov.w	r3, #7168	; 0x1c00
 8003c7e:	9303      	str	r3, [sp, #12]
    GPIO_InitStruct.Mode = GPIO_MODE_AF_PP;
 8003c80:	2302      	movs	r3, #2
 8003c82:	9304      	str	r3, [sp, #16]
    GPIO_InitStruct.Pull = GPIO_NOPULL;
    GPIO_InitStruct.Speed = GPIO_SPEED_FREQ_LOW;
    GPIO_InitStruct.Alternate = GPIO_AF10_OTG_FS;
    HAL_GPIO_Init(GPIOA, &GPIO_InitStruct);
 8003c84:	a903      	add	r1, sp, #12
    GPIO_InitStruct.Alternate = GPIO_AF10_OTG_FS;
 8003c86:	230a      	movs	r3, #10
    HAL_GPIO_Init(GPIOA, &GPIO_InitStruct);
 8003c88:	480f      	ldr	r0, [pc, #60]	; (8003cc8 <HAL_HCD_MspInit+0x8c>)
    GPIO_InitStruct.Alternate = GPIO_AF10_OTG_FS;
 8003c8a:	9307      	str	r3, [sp, #28]
    GPIO_InitStruct.Pull = GPIO_NOPULL;
 8003c8c:	9505      	str	r5, [sp, #20]
    GPIO_InitStruct.Speed = GPIO_SPEED_FREQ_LOW;
 8003c8e:	9506      	str	r5, [sp, #24]
    HAL_GPIO_Init(GPIOA, &GPIO_InitStruct);
 8003c90:	f7fc fd44 	bl	800071c <HAL_GPIO_Init>

    /* Peripheral clock enable */
    __HAL_RCC_USB_OTG_FS_CLK_ENABLE();
 8003c94:	6b63      	ldr	r3, [r4, #52]	; 0x34
 8003c96:	f043 0380 	orr.w	r3, r3, #128	; 0x80
 8003c9a:	6363      	str	r3, [r4, #52]	; 0x34
 8003c9c:	9502      	str	r5, [sp, #8]
 8003c9e:	6c63      	ldr	r3, [r4, #68]	; 0x44
 8003ca0:	f443 4380 	orr.w	r3, r3, #16384	; 0x4000
 8003ca4:	6463      	str	r3, [r4, #68]	; 0x44
 8003ca6:	6c63      	ldr	r3, [r4, #68]	; 0x44
 8003ca8:	f403 4380 	and.w	r3, r3, #16384	; 0x4000
 8003cac:	9302      	str	r3, [sp, #8]

    /* Peripheral interrupt init */
    HAL_NVIC_SetPriority(OTG_FS_IRQn, 0, 0);
 8003cae:	2043      	movs	r0, #67	; 0x43
 8003cb0:	462a      	mov	r2, r5
 8003cb2:	4629      	mov	r1, r5
    __HAL_RCC_USB_OTG_FS_CLK_ENABLE();
 8003cb4:	9b02      	ldr	r3, [sp, #8]
    HAL_NVIC_SetPriority(OTG_FS_IRQn, 0, 0);
 8003cb6:	f7fc fcd9 	bl	800066c <HAL_NVIC_SetPriority>
    HAL_NVIC_EnableIRQ(OTG_FS_IRQn);
 8003cba:	2043      	movs	r0, #67	; 0x43
 8003cbc:	f7fc fd0a 	bl	80006d4 <HAL_NVIC_EnableIRQ>
  /* USER CODE BEGIN USB_OTG_FS_MspInit 1 */

  /* USER CODE END USB_OTG_FS_MspInit 1 */
  }
}
 8003cc0:	b009      	add	sp, #36	; 0x24
 8003cc2:	bd30      	pop	{r4, r5, pc}
 8003cc4:	40023800 	.word	0x40023800
 8003cc8:	40020000 	.word	0x40020000

08003ccc <HAL_HCD_SOF_Callback>:
  * @param  hhcd: HCD handle
  * @retval None
  */
void HAL_HCD_SOF_Callback(HCD_HandleTypeDef *hhcd)
{
  USBH_LL_IncTimer(hhcd->pData);
 8003ccc:	f8d0 02c0 	ldr.w	r0, [r0, #704]	; 0x2c0
 8003cd0:	f7ff b8aa 	b.w	8002e28 <USBH_LL_IncTimer>

08003cd4 <HAL_HCD_Connect_Callback>:
  * @param  hhcd: HCD handle
  * @retval None
  */
void HAL_HCD_Connect_Callback(HCD_HandleTypeDef *hhcd)
{
  USBH_LL_Connect(hhcd->pData);
 8003cd4:	f8d0 02c0 	ldr.w	r0, [r0, #704]	; 0x2c0
 8003cd8:	f7ff b8bc 	b.w	8002e54 <USBH_LL_Connect>

08003cdc <HAL_HCD_Disconnect_Callback>:
  * @param  hhcd: HCD handle
  * @retval None
  */
void HAL_HCD_Disconnect_Callback(HCD_HandleTypeDef *hhcd)
{
  USBH_LL_Disconnect(hhcd->pData);
 8003cdc:	f8d0 02c0 	ldr.w	r0, [r0, #704]	; 0x2c0
 8003ce0:	f7ff b8cc 	b.w	8002e7c <USBH_LL_Disconnect>

08003ce4 <HAL_HCD_HC_NotifyURBChange_Callback>:
  * @param  chnum: channel number
  * @param  urb_state: state
  * @retval None
  */
void HAL_HCD_HC_NotifyURBChange_Callback(HCD_HandleTypeDef *hhcd, uint8_t chnum, HCD_URBStateTypeDef urb_state)
{
 8003ce4:	4770      	bx	lr

08003ce6 <HAL_HCD_PortEnabled_Callback>:
  * @param  hhcd: HCD handle
  * @retval None
  */
void HAL_HCD_PortEnabled_Callback(HCD_HandleTypeDef *hhcd)
{
  USBH_LL_PortEnabled(hhcd->pData);
 8003ce6:	f8d0 02c0 	ldr.w	r0, [r0, #704]	; 0x2c0
 8003cea:	f7ff b8ab 	b.w	8002e44 <USBH_LL_PortEnabled>

08003cee <HAL_HCD_PortDisabled_Callback>:
  * @param  hhcd: HCD handle
  * @retval None
  */
void HAL_HCD_PortDisabled_Callback(HCD_HandleTypeDef *hhcd)
{
  USBH_LL_PortDisabled(hhcd->pData);
 8003cee:	f8d0 02c0 	ldr.w	r0, [r0, #704]	; 0x2c0
 8003cf2:	f7ff b8ab 	b.w	8002e4c <USBH_LL_PortDisabled>
	...

08003cf8 <USBH_LL_Init>:
  * @brief  Initialize the low level portion of the host driver.
  * @param  phost: Host handle
  * @retval USBH status
  */
USBH_StatusTypeDef USBH_LL_Init(USBH_HandleTypeDef *phost)
{
 8003cf8:	b510      	push	{r4, lr}
  /* Init USB_IP */
  if (phost->id == HOST_FS) {
 8003cfa:	f890 33c0 	ldrb.w	r3, [r0, #960]	; 0x3c0
 8003cfe:	2b01      	cmp	r3, #1
{
 8003d00:	4604      	mov	r4, r0
  if (phost->id == HOST_FS) {
 8003d02:	d11b      	bne.n	8003d3c <USBH_LL_Init+0x44>
  /* Link the driver to the stack. */
  hhcd_USB_OTG_FS.pData = phost;
 8003d04:	480e      	ldr	r0, [pc, #56]	; (8003d40 <USBH_LL_Init+0x48>)
  phost->pData = &hhcd_USB_OTG_FS;
 8003d06:	f8c4 03c4 	str.w	r0, [r4, #964]	; 0x3c4

  hhcd_USB_OTG_FS.Instance = USB_OTG_FS;
 8003d0a:	f04f 42a0 	mov.w	r2, #1342177280	; 0x50000000
 8003d0e:	6002      	str	r2, [r0, #0]
  hhcd_USB_OTG_FS.Init.Host_channels = 8;
 8003d10:	2208      	movs	r2, #8
 8003d12:	6082      	str	r2, [r0, #8]
  hhcd_USB_OTG_FS.Init.speed = HCD_SPEED_FULL;
 8003d14:	60c3      	str	r3, [r0, #12]
  hhcd_USB_OTG_FS.Init.dma_enable = DISABLE;
  hhcd_USB_OTG_FS.Init.phy_itface = HCD_PHY_EMBEDDED;
 8003d16:	2202      	movs	r2, #2
  hhcd_USB_OTG_FS.Init.dma_enable = DISABLE;
 8003d18:	2300      	movs	r3, #0
  hhcd_USB_OTG_FS.pData = phost;
 8003d1a:	f8c0 42c0 	str.w	r4, [r0, #704]	; 0x2c0
  hhcd_USB_OTG_FS.Init.dma_enable = DISABLE;
 8003d1e:	6103      	str	r3, [r0, #16]
  hhcd_USB_OTG_FS.Init.phy_itface = HCD_PHY_EMBEDDED;
 8003d20:	6182      	str	r2, [r0, #24]
  hhcd_USB_OTG_FS.Init.Sof_enable = DISABLE;
 8003d22:	61c3      	str	r3, [r0, #28]
  if (HAL_HCD_Init(&hhcd_USB_OTG_FS) != HAL_OK)
 8003d24:	f7fc fe29 	bl	800097a <HAL_HCD_Init>
 8003d28:	b108      	cbz	r0, 8003d2e <USBH_LL_Init+0x36>
  {
    Error_Handler( );
 8003d2a:	f7ff fe09 	bl	8003940 <Error_Handler>
  }

  USBH_LL_SetTimer(phost, HAL_HCD_GetCurrentFrame(&hhcd_USB_OTG_FS));
 8003d2e:	4804      	ldr	r0, [pc, #16]	; (8003d40 <USBH_LL_Init+0x48>)
 8003d30:	f7fd fa22 	bl	8001178 <HAL_HCD_GetCurrentFrame>
 8003d34:	4601      	mov	r1, r0
 8003d36:	4620      	mov	r0, r4
 8003d38:	f7ff f873 	bl	8002e22 <USBH_LL_SetTimer>
  }
  return USBH_OK;
}
 8003d3c:	2000      	movs	r0, #0
 8003d3e:	bd10      	pop	{r4, pc}
 8003d40:	200005d4 	.word	0x200005d4

08003d44 <USBH_LL_Start>:
  * @brief  Start the low level portion of the host driver.
  * @param  phost: Host handle
  * @retval USBH status
  */
USBH_StatusTypeDef USBH_LL_Start(USBH_HandleTypeDef *phost)
{
 8003d44:	b508      	push	{r3, lr}
  HAL_StatusTypeDef hal_status = HAL_OK;
  USBH_StatusTypeDef usb_status = USBH_OK;

  hal_status = HAL_HCD_Start(phost->pData);
 8003d46:	f8d0 03c4 	ldr.w	r0, [r0, #964]	; 0x3c4
 8003d4a:	f7fd f9df 	bl	800110c <HAL_HCD_Start>
 8003d4e:	2803      	cmp	r0, #3
 8003d50:	bf9a      	itte	ls
 8003d52:	4b02      	ldrls	r3, [pc, #8]	; (8003d5c <USBH_LL_Start+0x18>)
 8003d54:	5c18      	ldrbls	r0, [r3, r0]
 8003d56:	2002      	movhi	r0, #2

  usb_status = USBH_Get_USB_Status(hal_status);
  
  return usb_status;
}
 8003d58:	bd08      	pop	{r3, pc}
 8003d5a:	bf00      	nop
 8003d5c:	08004e7d 	.word	0x08004e7d

08003d60 <USBH_LL_Stop>:
  * @brief  Stop the low level portion of the host driver.
  * @param  phost: Host handle
  * @retval USBH status
  */
USBH_StatusTypeDef USBH_LL_Stop(USBH_HandleTypeDef *phost)
{
 8003d60:	b508      	push	{r3, lr}
  HAL_StatusTypeDef hal_status = HAL_OK;
  USBH_StatusTypeDef usb_status = USBH_OK;

  hal_status = HAL_HCD_Stop(phost->pData);
 8003d62:	f8d0 03c4 	ldr.w	r0, [r0, #964]	; 0x3c4
 8003d66:	f7fd f9e7 	bl	8001138 <HAL_HCD_Stop>
 8003d6a:	2803      	cmp	r0, #3
 8003d6c:	bf9a      	itte	ls
 8003d6e:	4b02      	ldrls	r3, [pc, #8]	; (8003d78 <USBH_LL_Stop+0x18>)
 8003d70:	5c18      	ldrbls	r0, [r3, r0]
 8003d72:	2002      	movhi	r0, #2

  usb_status = USBH_Get_USB_Status(hal_status);
 
  return usb_status;
}
 8003d74:	bd08      	pop	{r3, pc}
 8003d76:	bf00      	nop
 8003d78:	08004e7d 	.word	0x08004e7d

08003d7c <USBH_LL_GetSpeed>:
  * @brief  Return the USB host speed from the low level driver.
  * @param  phost: Host handle
  * @retval USBH speeds
  */
USBH_SpeedTypeDef USBH_LL_GetSpeed(USBH_HandleTypeDef *phost)
{
 8003d7c:	b508      	push	{r3, lr}
  USBH_SpeedTypeDef speed = USBH_SPEED_FULL;

  switch (HAL_HCD_GetCurrentSpeed(phost->pData))
 8003d7e:	f8d0 03c4 	ldr.w	r0, [r0, #964]	; 0x3c4
 8003d82:	f7fd f9fc 	bl	800117e <HAL_HCD_GetCurrentSpeed>
 8003d86:	2802      	cmp	r0, #2
 8003d88:	bf9a      	itte	ls
 8003d8a:	4b02      	ldrls	r3, [pc, #8]	; (8003d94 <USBH_LL_GetSpeed+0x18>)
 8003d8c:	5c18      	ldrbls	r0, [r3, r0]
 8003d8e:	2001      	movhi	r0, #1
  default:
   speed = USBH_SPEED_FULL;
    break;
  }
  return  speed;
}
 8003d90:	bd08      	pop	{r3, pc}
 8003d92:	bf00      	nop
 8003d94:	08004e7a 	.word	0x08004e7a

08003d98 <USBH_LL_ResetPort>:
  * @brief  Reset the Host port of the low level driver.
  * @param  phost: Host handle
  * @retval USBH status
  */
USBH_StatusTypeDef USBH_LL_ResetPort(USBH_HandleTypeDef *phost)
{
 8003d98:	b508      	push	{r3, lr}
  HAL_StatusTypeDef hal_status = HAL_OK;
  USBH_StatusTypeDef usb_status = USBH_OK;

  hal_status = HAL_HCD_ResetPort(phost->pData);
 8003d9a:	f8d0 03c4 	ldr.w	r0, [r0, #964]	; 0x3c4
 8003d9e:	f7fd f9dd 	bl	800115c <HAL_HCD_ResetPort>
 8003da2:	2803      	cmp	r0, #3
 8003da4:	bf9a      	itte	ls
 8003da6:	4b02      	ldrls	r3, [pc, #8]	; (8003db0 <USBH_LL_ResetPort+0x18>)
 8003da8:	5c18      	ldrbls	r0, [r3, r0]
 8003daa:	2002      	movhi	r0, #2
  
  usb_status = USBH_Get_USB_Status(hal_status);
  
  return usb_status;
}
 8003dac:	bd08      	pop	{r3, pc}
 8003dae:	bf00      	nop
 8003db0:	08004e7d 	.word	0x08004e7d

08003db4 <USBH_LL_GetLastXferSize>:
  * @param  pipe: Pipe index
  * @retval Packet size
  */
uint32_t USBH_LL_GetLastXferSize(USBH_HandleTypeDef *phost, uint8_t pipe)
{
  return HAL_HCD_HC_GetXferCount(phost->pData, pipe);
 8003db4:	f8d0 03c4 	ldr.w	r0, [r0, #964]	; 0x3c4
 8003db8:	f7fd b9d9 	b.w	800116e <HAL_HCD_HC_GetXferCount>

08003dbc <USBH_LL_OpenPipe>:
  * @param  mps: Endpoint max packet size
  * @retval USBH status
  */
USBH_StatusTypeDef USBH_LL_OpenPipe(USBH_HandleTypeDef *phost, uint8_t pipe_num, uint8_t epnum,
                                    uint8_t dev_address, uint8_t speed, uint8_t ep_type, uint16_t mps)
{
 8003dbc:	b51f      	push	{r0, r1, r2, r3, r4, lr}
  HAL_StatusTypeDef hal_status = HAL_OK;
  USBH_StatusTypeDef usb_status = USBH_OK;

  hal_status = HAL_HCD_HC_Init(phost->pData, pipe_num, epnum,
 8003dbe:	f8bd 4020 	ldrh.w	r4, [sp, #32]
 8003dc2:	9402      	str	r4, [sp, #8]
 8003dc4:	f89d 401c 	ldrb.w	r4, [sp, #28]
 8003dc8:	9401      	str	r4, [sp, #4]
 8003dca:	f89d 4018 	ldrb.w	r4, [sp, #24]
 8003dce:	9400      	str	r4, [sp, #0]
 8003dd0:	f8d0 03c4 	ldr.w	r0, [r0, #964]	; 0x3c4
 8003dd4:	f7fc fd87 	bl	80008e6 <HAL_HCD_HC_Init>
 8003dd8:	2803      	cmp	r0, #3
 8003dda:	bf9a      	itte	ls
 8003ddc:	4b02      	ldrls	r3, [pc, #8]	; (8003de8 <USBH_LL_OpenPipe+0x2c>)
 8003dde:	5c18      	ldrbls	r0, [r3, r0]
 8003de0:	2002      	movhi	r0, #2
                               dev_address, speed, ep_type, mps);

  usb_status = USBH_Get_USB_Status(hal_status);
  
  return usb_status;
}
 8003de2:	b004      	add	sp, #16
 8003de4:	bd10      	pop	{r4, pc}
 8003de6:	bf00      	nop
 8003de8:	08004e7d 	.word	0x08004e7d

08003dec <USBH_LL_ClosePipe>:
  * @param  phost: Host handle
  * @param  pipe: Pipe index
  * @retval USBH status
  */
USBH_StatusTypeDef USBH_LL_ClosePipe(USBH_HandleTypeDef *phost, uint8_t pipe)
{
 8003dec:	b508      	push	{r3, lr}
  HAL_StatusTypeDef hal_status = HAL_OK;
  USBH_StatusTypeDef usb_status = USBH_OK;

  hal_status = HAL_HCD_HC_Halt(phost->pData, pipe);
 8003dee:	f8d0 03c4 	ldr.w	r0, [r0, #964]	; 0x3c4
 8003df2:	f7fc fdb0 	bl	8000956 <HAL_HCD_HC_Halt>
 8003df6:	2803      	cmp	r0, #3
 8003df8:	bf9a      	itte	ls
 8003dfa:	4b02      	ldrls	r3, [pc, #8]	; (8003e04 <USBH_LL_ClosePipe+0x18>)
 8003dfc:	5c18      	ldrbls	r0, [r3, r0]
 8003dfe:	2002      	movhi	r0, #2

  usb_status = USBH_Get_USB_Status(hal_status);
  
  return usb_status;
}
 8003e00:	bd08      	pop	{r3, pc}
 8003e02:	bf00      	nop
 8003e04:	08004e7d 	.word	0x08004e7d

08003e08 <USBH_LL_SubmitURB>:
  * @retval Status
  */
USBH_StatusTypeDef USBH_LL_SubmitURB(USBH_HandleTypeDef *phost, uint8_t pipe, uint8_t direction,
                                     uint8_t ep_type, uint8_t token, uint8_t *pbuff, uint16_t length,
                                     uint8_t do_ping)
{
 8003e08:	b51f      	push	{r0, r1, r2, r3, r4, lr}
  HAL_StatusTypeDef hal_status = HAL_OK;
  USBH_StatusTypeDef usb_status = USBH_OK;

  hal_status = HAL_HCD_HC_SubmitRequest(phost->pData, pipe, direction ,
 8003e0a:	f89d 4024 	ldrb.w	r4, [sp, #36]	; 0x24
 8003e0e:	9403      	str	r4, [sp, #12]
 8003e10:	f8bd 4020 	ldrh.w	r4, [sp, #32]
 8003e14:	9402      	str	r4, [sp, #8]
 8003e16:	9c07      	ldr	r4, [sp, #28]
 8003e18:	9401      	str	r4, [sp, #4]
 8003e1a:	f89d 4018 	ldrb.w	r4, [sp, #24]
 8003e1e:	9400      	str	r4, [sp, #0]
 8003e20:	f8d0 03c4 	ldr.w	r0, [r0, #964]	; 0x3c4
 8003e24:	f7fc fdf4 	bl	8000a10 <HAL_HCD_HC_SubmitRequest>
 8003e28:	2803      	cmp	r0, #3
 8003e2a:	bf9a      	itte	ls
 8003e2c:	4b02      	ldrls	r3, [pc, #8]	; (8003e38 <USBH_LL_SubmitURB+0x30>)
 8003e2e:	5c18      	ldrbls	r0, [r3, r0]
 8003e30:	2002      	movhi	r0, #2
                                        ep_type, token, pbuff, length,
                                        do_ping);
  usb_status =  USBH_Get_USB_Status(hal_status);
  
  return usb_status;
}
 8003e32:	b004      	add	sp, #16
 8003e34:	bd10      	pop	{r4, pc}
 8003e36:	bf00      	nop
 8003e38:	08004e7d 	.word	0x08004e7d

08003e3c <USBH_LL_GetURBState>:
  *            @arg URB_ERROR
  *            @arg URB_STALL
  */
USBH_URBStateTypeDef USBH_LL_GetURBState(USBH_HandleTypeDef *phost, uint8_t pipe)
{
  return (USBH_URBStateTypeDef)HAL_HCD_HC_GetURBState (phost->pData, pipe);
 8003e3c:	f8d0 03c4 	ldr.w	r0, [r0, #964]	; 0x3c4
 8003e40:	f7fd b98f 	b.w	8001162 <HAL_HCD_HC_GetURBState>

08003e44 <USBH_LL_DriverVBUS>:
  *           0 : VBUS Active
  *           1 : VBUS Inactive
  * @retval Status
  */
USBH_StatusTypeDef USBH_LL_DriverVBUS(USBH_HandleTypeDef *phost, uint8_t state)
{
 8003e44:	b508      	push	{r3, lr}
  if (phost->id == HOST_FS) {
 8003e46:	f890 33c0 	ldrb.w	r3, [r0, #960]	; 0x3c0
 8003e4a:	2b01      	cmp	r3, #1
 8003e4c:	d102      	bne.n	8003e54 <USBH_LL_DriverVBUS+0x10>
    MX_DriverVbusFS(state);
 8003e4e:	4608      	mov	r0, r1
 8003e50:	f000 f816 	bl	8003e80 <MX_DriverVbusFS>

  /* USER CODE BEGIN 0 */

  /* USER CODE END 0*/

  HAL_Delay(200);
 8003e54:	20c8      	movs	r0, #200	; 0xc8
 8003e56:	f7fc fbe3 	bl	8000620 <HAL_Delay>
  return USBH_OK;
}
 8003e5a:	2000      	movs	r0, #0
 8003e5c:	bd08      	pop	{r3, pc}

08003e5e <USBH_LL_SetToggle>:
  * @retval Status
  */
USBH_StatusTypeDef USBH_LL_SetToggle(USBH_HandleTypeDef *phost, uint8_t pipe, uint8_t toggle)
{
  HCD_HandleTypeDef *pHandle;
  pHandle = phost->pData;
 8003e5e:	f8d0 03c4 	ldr.w	r0, [r0, #964]	; 0x3c4

  if(pHandle->hc[pipe].ep_is_in)
 8003e62:	2328      	movs	r3, #40	; 0x28
 8003e64:	fb03 0101 	mla	r1, r3, r1, r0
 8003e68:	f891 303b 	ldrb.w	r3, [r1, #59]	; 0x3b
 8003e6c:	b11b      	cbz	r3, 8003e76 <USBH_LL_SetToggle+0x18>
  {
    pHandle->hc[pipe].toggle_in = toggle;
 8003e6e:	f881 2050 	strb.w	r2, [r1, #80]	; 0x50
  {
    pHandle->hc[pipe].toggle_out = toggle;
  }

  return USBH_OK;
}
 8003e72:	2000      	movs	r0, #0
 8003e74:	4770      	bx	lr
    pHandle->hc[pipe].toggle_out = toggle;
 8003e76:	f881 2051 	strb.w	r2, [r1, #81]	; 0x51
 8003e7a:	e7fa      	b.n	8003e72 <USBH_LL_SetToggle+0x14>

08003e7c <USBH_Delay>:
  * @param  Delay: Delay in ms
  * @retval None
  */
void USBH_Delay(uint32_t Delay)
{
  HAL_Delay(Delay);
 8003e7c:	f7fc bbd0 	b.w	8000620 <HAL_Delay>

08003e80 <MX_DriverVbusFS>:
  {
    /* Drive low Charge pump */
    data = GPIO_PIN_RESET;
  }
  /* USER CODE END PREPARE_GPIO_DATA_VBUS_FS */
  HAL_GPIO_WritePin(GPIOC,GPIO_PIN_0,(GPIO_PinState)data);
 8003e80:	fab0 f280 	clz	r2, r0
 8003e84:	0952      	lsrs	r2, r2, #5
 8003e86:	2101      	movs	r1, #1
 8003e88:	4801      	ldr	r0, [pc, #4]	; (8003e90 <MX_DriverVbusFS+0x10>)
 8003e8a:	f7fc bd27 	b.w	80008dc <HAL_GPIO_WritePin>
 8003e8e:	bf00      	nop
 8003e90:	40020800 	.word	0x40020800

08003e94 <Reset_Handler>:

    .section  .text.Reset_Handler
  .weak  Reset_Handler
  .type  Reset_Handler, %function
Reset_Handler:  
  ldr   sp, =_estack     /* set stack pointer */
 8003e94:	f8df d034 	ldr.w	sp, [pc, #52]	; 8003ecc <LoopFillZerobss+0x14>

/* Copy the data segment initializers from flash to SRAM */  
  movs  r1, #0
 8003e98:	2100      	movs	r1, #0
  b  LoopCopyDataInit
 8003e9a:	e003      	b.n	8003ea4 <LoopCopyDataInit>

08003e9c <CopyDataInit>:

CopyDataInit:
  ldr  r3, =_sidata
 8003e9c:	4b0c      	ldr	r3, [pc, #48]	; (8003ed0 <LoopFillZerobss+0x18>)
  ldr  r3, [r3, r1]
 8003e9e:	585b      	ldr	r3, [r3, r1]
  str  r3, [r0, r1]
 8003ea0:	5043      	str	r3, [r0, r1]
  adds  r1, r1, #4
 8003ea2:	3104      	adds	r1, #4

08003ea4 <LoopCopyDataInit>:
    
LoopCopyDataInit:
  ldr  r0, =_sdata
 8003ea4:	480b      	ldr	r0, [pc, #44]	; (8003ed4 <LoopFillZerobss+0x1c>)
  ldr  r3, =_edata
 8003ea6:	4b0c      	ldr	r3, [pc, #48]	; (8003ed8 <LoopFillZerobss+0x20>)
  adds  r2, r0, r1
 8003ea8:	1842      	adds	r2, r0, r1
  cmp  r2, r3
 8003eaa:	429a      	cmp	r2, r3
  bcc  CopyDataInit
 8003eac:	d3f6      	bcc.n	8003e9c <CopyDataInit>
  ldr  r2, =_sbss
 8003eae:	4a0b      	ldr	r2, [pc, #44]	; (8003edc <LoopFillZerobss+0x24>)
  b  LoopFillZerobss
 8003eb0:	e002      	b.n	8003eb8 <LoopFillZerobss>

08003eb2 <FillZerobss>:
/* Zero fill the bss segment. */  
FillZerobss:
  movs  r3, #0
 8003eb2:	2300      	movs	r3, #0
  str  r3, [r2], #4
 8003eb4:	f842 3b04 	str.w	r3, [r2], #4

08003eb8 <LoopFillZerobss>:
    
LoopFillZerobss:
  ldr  r3, = _ebss
 8003eb8:	4b09      	ldr	r3, [pc, #36]	; (8003ee0 <LoopFillZerobss+0x28>)
  cmp  r2, r3
 8003eba:	429a      	cmp	r2, r3
  bcc  FillZerobss
 8003ebc:	d3f9      	bcc.n	8003eb2 <FillZerobss>

/* Call the clock system intitialization function.*/
  bl  SystemInit   
 8003ebe:	f7ff fe17 	bl	8003af0 <SystemInit>
/* Call static constructors */
    bl __libc_init_array
 8003ec2:	f000 f817 	bl	8003ef4 <__libc_init_array>
/* Call the application's entry point.*/
  bl  main
 8003ec6:	f7ff fc7d 	bl	80037c4 <main>
  bx  lr    
 8003eca:	4770      	bx	lr
  ldr   sp, =_estack     /* set stack pointer */
 8003ecc:	20020000 	.word	0x20020000
  ldr  r3, =_sidata
 8003ed0:	08004f2c 	.word	0x08004f2c
  ldr  r0, =_sdata
 8003ed4:	20000000 	.word	0x20000000
  ldr  r3, =_edata
 8003ed8:	20000090 	.word	0x20000090
  ldr  r2, =_sbss
 8003edc:	20000090 	.word	0x20000090
  ldr  r3, = _ebss
 8003ee0:	2000089c 	.word	0x2000089c

08003ee4 <ADC_IRQHandler>:
 * @retval None       
*/
    .section  .text.Default_Handler,"ax",%progbits
Default_Handler:
Infinite_Loop:
  b  Infinite_Loop
 8003ee4:	e7fe      	b.n	8003ee4 <ADC_IRQHandler>
	...

08003ee8 <__errno>:
 8003ee8:	4b01      	ldr	r3, [pc, #4]	; (8003ef0 <__errno+0x8>)
 8003eea:	6818      	ldr	r0, [r3, #0]
 8003eec:	4770      	bx	lr
 8003eee:	bf00      	nop
 8003ef0:	2000002c 	.word	0x2000002c

08003ef4 <__libc_init_array>:
 8003ef4:	b570      	push	{r4, r5, r6, lr}
 8003ef6:	4e0d      	ldr	r6, [pc, #52]	; (8003f2c <__libc_init_array+0x38>)
 8003ef8:	4c0d      	ldr	r4, [pc, #52]	; (8003f30 <__libc_init_array+0x3c>)
 8003efa:	1ba4      	subs	r4, r4, r6
 8003efc:	10a4      	asrs	r4, r4, #2
 8003efe:	2500      	movs	r5, #0
 8003f00:	42a5      	cmp	r5, r4
 8003f02:	d109      	bne.n	8003f18 <__libc_init_array+0x24>
 8003f04:	4e0b      	ldr	r6, [pc, #44]	; (8003f34 <__libc_init_array+0x40>)
 8003f06:	4c0c      	ldr	r4, [pc, #48]	; (8003f38 <__libc_init_array+0x44>)
 8003f08:	f000 ff8c 	bl	8004e24 <_init>
 8003f0c:	1ba4      	subs	r4, r4, r6
 8003f0e:	10a4      	asrs	r4, r4, #2
 8003f10:	2500      	movs	r5, #0
 8003f12:	42a5      	cmp	r5, r4
 8003f14:	d105      	bne.n	8003f22 <__libc_init_array+0x2e>
 8003f16:	bd70      	pop	{r4, r5, r6, pc}
 8003f18:	f856 3025 	ldr.w	r3, [r6, r5, lsl #2]
 8003f1c:	4798      	blx	r3
 8003f1e:	3501      	adds	r5, #1
 8003f20:	e7ee      	b.n	8003f00 <__libc_init_array+0xc>
 8003f22:	f856 3025 	ldr.w	r3, [r6, r5, lsl #2]
 8003f26:	4798      	blx	r3
 8003f28:	3501      	adds	r5, #1
 8003f2a:	e7f2      	b.n	8003f12 <__libc_init_array+0x1e>
 8003f2c:	08004f24 	.word	0x08004f24
 8003f30:	08004f24 	.word	0x08004f24
 8003f34:	08004f24 	.word	0x08004f24
 8003f38:	08004f28 	.word	0x08004f28

08003f3c <malloc>:
 8003f3c:	4b02      	ldr	r3, [pc, #8]	; (8003f48 <malloc+0xc>)
 8003f3e:	4601      	mov	r1, r0
 8003f40:	6818      	ldr	r0, [r3, #0]
 8003f42:	f000 b861 	b.w	8004008 <_malloc_r>
 8003f46:	bf00      	nop
 8003f48:	2000002c 	.word	0x2000002c

08003f4c <free>:
 8003f4c:	4b02      	ldr	r3, [pc, #8]	; (8003f58 <free+0xc>)
 8003f4e:	4601      	mov	r1, r0
 8003f50:	6818      	ldr	r0, [r3, #0]
 8003f52:	f000 b80b 	b.w	8003f6c <_free_r>
 8003f56:	bf00      	nop
 8003f58:	2000002c 	.word	0x2000002c

08003f5c <memset>:
 8003f5c:	4402      	add	r2, r0
 8003f5e:	4603      	mov	r3, r0
 8003f60:	4293      	cmp	r3, r2
 8003f62:	d100      	bne.n	8003f66 <memset+0xa>
 8003f64:	4770      	bx	lr
 8003f66:	f803 1b01 	strb.w	r1, [r3], #1
 8003f6a:	e7f9      	b.n	8003f60 <memset+0x4>

08003f6c <_free_r>:
 8003f6c:	b538      	push	{r3, r4, r5, lr}
 8003f6e:	4605      	mov	r5, r0
 8003f70:	2900      	cmp	r1, #0
 8003f72:	d045      	beq.n	8004000 <_free_r+0x94>
 8003f74:	f851 3c04 	ldr.w	r3, [r1, #-4]
 8003f78:	1f0c      	subs	r4, r1, #4
 8003f7a:	2b00      	cmp	r3, #0
 8003f7c:	bfb8      	it	lt
 8003f7e:	18e4      	addlt	r4, r4, r3
 8003f80:	f000 fbcc 	bl	800471c <__malloc_lock>
 8003f84:	4a1f      	ldr	r2, [pc, #124]	; (8004004 <_free_r+0x98>)
 8003f86:	6813      	ldr	r3, [r2, #0]
 8003f88:	4610      	mov	r0, r2
 8003f8a:	b933      	cbnz	r3, 8003f9a <_free_r+0x2e>
 8003f8c:	6063      	str	r3, [r4, #4]
 8003f8e:	6014      	str	r4, [r2, #0]
 8003f90:	4628      	mov	r0, r5
 8003f92:	e8bd 4038 	ldmia.w	sp!, {r3, r4, r5, lr}
 8003f96:	f000 bbc2 	b.w	800471e <__malloc_unlock>
 8003f9a:	42a3      	cmp	r3, r4
 8003f9c:	d90c      	bls.n	8003fb8 <_free_r+0x4c>
 8003f9e:	6821      	ldr	r1, [r4, #0]
 8003fa0:	1862      	adds	r2, r4, r1
 8003fa2:	4293      	cmp	r3, r2
 8003fa4:	bf04      	itt	eq
 8003fa6:	681a      	ldreq	r2, [r3, #0]
 8003fa8:	685b      	ldreq	r3, [r3, #4]
 8003faa:	6063      	str	r3, [r4, #4]
 8003fac:	bf04      	itt	eq
 8003fae:	1852      	addeq	r2, r2, r1
 8003fb0:	6022      	streq	r2, [r4, #0]
 8003fb2:	6004      	str	r4, [r0, #0]
 8003fb4:	e7ec      	b.n	8003f90 <_free_r+0x24>
 8003fb6:	4613      	mov	r3, r2
 8003fb8:	685a      	ldr	r2, [r3, #4]
 8003fba:	b10a      	cbz	r2, 8003fc0 <_free_r+0x54>
 8003fbc:	42a2      	cmp	r2, r4
 8003fbe:	d9fa      	bls.n	8003fb6 <_free_r+0x4a>
 8003fc0:	6819      	ldr	r1, [r3, #0]
 8003fc2:	1858      	adds	r0, r3, r1
 8003fc4:	42a0      	cmp	r0, r4
 8003fc6:	d10b      	bne.n	8003fe0 <_free_r+0x74>
 8003fc8:	6820      	ldr	r0, [r4, #0]
 8003fca:	4401      	add	r1, r0
 8003fcc:	1858      	adds	r0, r3, r1
 8003fce:	4282      	cmp	r2, r0
 8003fd0:	6019      	str	r1, [r3, #0]
 8003fd2:	d1dd      	bne.n	8003f90 <_free_r+0x24>
 8003fd4:	6810      	ldr	r0, [r2, #0]
 8003fd6:	6852      	ldr	r2, [r2, #4]
 8003fd8:	605a      	str	r2, [r3, #4]
 8003fda:	4401      	add	r1, r0
 8003fdc:	6019      	str	r1, [r3, #0]
 8003fde:	e7d7      	b.n	8003f90 <_free_r+0x24>
 8003fe0:	d902      	bls.n	8003fe8 <_free_r+0x7c>
 8003fe2:	230c      	movs	r3, #12
 8003fe4:	602b      	str	r3, [r5, #0]
 8003fe6:	e7d3      	b.n	8003f90 <_free_r+0x24>
 8003fe8:	6820      	ldr	r0, [r4, #0]
 8003fea:	1821      	adds	r1, r4, r0
 8003fec:	428a      	cmp	r2, r1
 8003fee:	bf04      	itt	eq
 8003ff0:	6811      	ldreq	r1, [r2, #0]
 8003ff2:	6852      	ldreq	r2, [r2, #4]
 8003ff4:	6062      	str	r2, [r4, #4]
 8003ff6:	bf04      	itt	eq
 8003ff8:	1809      	addeq	r1, r1, r0
 8003ffa:	6021      	streq	r1, [r4, #0]
 8003ffc:	605c      	str	r4, [r3, #4]
 8003ffe:	e7c7      	b.n	8003f90 <_free_r+0x24>
 8004000:	bd38      	pop	{r3, r4, r5, pc}
 8004002:	bf00      	nop
 8004004:	200000b8 	.word	0x200000b8

08004008 <_malloc_r>:
 8004008:	b570      	push	{r4, r5, r6, lr}
 800400a:	1ccd      	adds	r5, r1, #3
 800400c:	f025 0503 	bic.w	r5, r5, #3
 8004010:	3508      	adds	r5, #8
 8004012:	2d0c      	cmp	r5, #12
 8004014:	bf38      	it	cc
 8004016:	250c      	movcc	r5, #12
 8004018:	2d00      	cmp	r5, #0
 800401a:	4606      	mov	r6, r0
 800401c:	db01      	blt.n	8004022 <_malloc_r+0x1a>
 800401e:	42a9      	cmp	r1, r5
 8004020:	d903      	bls.n	800402a <_malloc_r+0x22>
 8004022:	230c      	movs	r3, #12
 8004024:	6033      	str	r3, [r6, #0]
 8004026:	2000      	movs	r0, #0
 8004028:	bd70      	pop	{r4, r5, r6, pc}
 800402a:	f000 fb77 	bl	800471c <__malloc_lock>
 800402e:	4a23      	ldr	r2, [pc, #140]	; (80040bc <_malloc_r+0xb4>)
 8004030:	6814      	ldr	r4, [r2, #0]
 8004032:	4621      	mov	r1, r4
 8004034:	b991      	cbnz	r1, 800405c <_malloc_r+0x54>
 8004036:	4c22      	ldr	r4, [pc, #136]	; (80040c0 <_malloc_r+0xb8>)
 8004038:	6823      	ldr	r3, [r4, #0]
 800403a:	b91b      	cbnz	r3, 8004044 <_malloc_r+0x3c>
 800403c:	4630      	mov	r0, r6
 800403e:	f000 f8bd 	bl	80041bc <_sbrk_r>
 8004042:	6020      	str	r0, [r4, #0]
 8004044:	4629      	mov	r1, r5
 8004046:	4630      	mov	r0, r6
 8004048:	f000 f8b8 	bl	80041bc <_sbrk_r>
 800404c:	1c43      	adds	r3, r0, #1
 800404e:	d126      	bne.n	800409e <_malloc_r+0x96>
 8004050:	230c      	movs	r3, #12
 8004052:	6033      	str	r3, [r6, #0]
 8004054:	4630      	mov	r0, r6
 8004056:	f000 fb62 	bl	800471e <__malloc_unlock>
 800405a:	e7e4      	b.n	8004026 <_malloc_r+0x1e>
 800405c:	680b      	ldr	r3, [r1, #0]
 800405e:	1b5b      	subs	r3, r3, r5
 8004060:	d41a      	bmi.n	8004098 <_malloc_r+0x90>
 8004062:	2b0b      	cmp	r3, #11
 8004064:	d90f      	bls.n	8004086 <_malloc_r+0x7e>
 8004066:	600b      	str	r3, [r1, #0]
 8004068:	50cd      	str	r5, [r1, r3]
 800406a:	18cc      	adds	r4, r1, r3
 800406c:	4630      	mov	r0, r6
 800406e:	f000 fb56 	bl	800471e <__malloc_unlock>
 8004072:	f104 000b 	add.w	r0, r4, #11
 8004076:	1d23      	adds	r3, r4, #4
 8004078:	f020 0007 	bic.w	r0, r0, #7
 800407c:	1ac3      	subs	r3, r0, r3
 800407e:	d01b      	beq.n	80040b8 <_malloc_r+0xb0>
 8004080:	425a      	negs	r2, r3
 8004082:	50e2      	str	r2, [r4, r3]
 8004084:	bd70      	pop	{r4, r5, r6, pc}
 8004086:	428c      	cmp	r4, r1
 8004088:	bf0d      	iteet	eq
 800408a:	6863      	ldreq	r3, [r4, #4]
 800408c:	684b      	ldrne	r3, [r1, #4]
 800408e:	6063      	strne	r3, [r4, #4]
 8004090:	6013      	streq	r3, [r2, #0]
 8004092:	bf18      	it	ne
 8004094:	460c      	movne	r4, r1
 8004096:	e7e9      	b.n	800406c <_malloc_r+0x64>
 8004098:	460c      	mov	r4, r1
 800409a:	6849      	ldr	r1, [r1, #4]
 800409c:	e7ca      	b.n	8004034 <_malloc_r+0x2c>
 800409e:	1cc4      	adds	r4, r0, #3
 80040a0:	f024 0403 	bic.w	r4, r4, #3
 80040a4:	42a0      	cmp	r0, r4
 80040a6:	d005      	beq.n	80040b4 <_malloc_r+0xac>
 80040a8:	1a21      	subs	r1, r4, r0
 80040aa:	4630      	mov	r0, r6
 80040ac:	f000 f886 	bl	80041bc <_sbrk_r>
 80040b0:	3001      	adds	r0, #1
 80040b2:	d0cd      	beq.n	8004050 <_malloc_r+0x48>
 80040b4:	6025      	str	r5, [r4, #0]
 80040b6:	e7d9      	b.n	800406c <_malloc_r+0x64>
 80040b8:	bd70      	pop	{r4, r5, r6, pc}
 80040ba:	bf00      	nop
 80040bc:	200000b8 	.word	0x200000b8
 80040c0:	200000bc 	.word	0x200000bc

080040c4 <iprintf>:
 80040c4:	b40f      	push	{r0, r1, r2, r3}
 80040c6:	4b0a      	ldr	r3, [pc, #40]	; (80040f0 <iprintf+0x2c>)
 80040c8:	b513      	push	{r0, r1, r4, lr}
 80040ca:	681c      	ldr	r4, [r3, #0]
 80040cc:	b124      	cbz	r4, 80040d8 <iprintf+0x14>
 80040ce:	69a3      	ldr	r3, [r4, #24]
 80040d0:	b913      	cbnz	r3, 80040d8 <iprintf+0x14>
 80040d2:	4620      	mov	r0, r4
 80040d4:	f000 fa34 	bl	8004540 <__sinit>
 80040d8:	ab05      	add	r3, sp, #20
 80040da:	9a04      	ldr	r2, [sp, #16]
 80040dc:	68a1      	ldr	r1, [r4, #8]
 80040de:	9301      	str	r3, [sp, #4]
 80040e0:	4620      	mov	r0, r4
 80040e2:	f000 fb47 	bl	8004774 <_vfiprintf_r>
 80040e6:	b002      	add	sp, #8
 80040e8:	e8bd 4010 	ldmia.w	sp!, {r4, lr}
 80040ec:	b004      	add	sp, #16
 80040ee:	4770      	bx	lr
 80040f0:	2000002c 	.word	0x2000002c

080040f4 <_puts_r>:
 80040f4:	b570      	push	{r4, r5, r6, lr}
 80040f6:	460e      	mov	r6, r1
 80040f8:	4605      	mov	r5, r0
 80040fa:	b118      	cbz	r0, 8004104 <_puts_r+0x10>
 80040fc:	6983      	ldr	r3, [r0, #24]
 80040fe:	b90b      	cbnz	r3, 8004104 <_puts_r+0x10>
 8004100:	f000 fa1e 	bl	8004540 <__sinit>
 8004104:	69ab      	ldr	r3, [r5, #24]
 8004106:	68ac      	ldr	r4, [r5, #8]
 8004108:	b913      	cbnz	r3, 8004110 <_puts_r+0x1c>
 800410a:	4628      	mov	r0, r5
 800410c:	f000 fa18 	bl	8004540 <__sinit>
 8004110:	4b23      	ldr	r3, [pc, #140]	; (80041a0 <_puts_r+0xac>)
 8004112:	429c      	cmp	r4, r3
 8004114:	d117      	bne.n	8004146 <_puts_r+0x52>
 8004116:	686c      	ldr	r4, [r5, #4]
 8004118:	89a3      	ldrh	r3, [r4, #12]
 800411a:	071b      	lsls	r3, r3, #28
 800411c:	d51d      	bpl.n	800415a <_puts_r+0x66>
 800411e:	6923      	ldr	r3, [r4, #16]
 8004120:	b1db      	cbz	r3, 800415a <_puts_r+0x66>
 8004122:	3e01      	subs	r6, #1
 8004124:	68a3      	ldr	r3, [r4, #8]
 8004126:	f816 1f01 	ldrb.w	r1, [r6, #1]!
 800412a:	3b01      	subs	r3, #1
 800412c:	60a3      	str	r3, [r4, #8]
 800412e:	b9e9      	cbnz	r1, 800416c <_puts_r+0x78>
 8004130:	2b00      	cmp	r3, #0
 8004132:	da2e      	bge.n	8004192 <_puts_r+0x9e>
 8004134:	4622      	mov	r2, r4
 8004136:	210a      	movs	r1, #10
 8004138:	4628      	mov	r0, r5
 800413a:	f000 f84f 	bl	80041dc <__swbuf_r>
 800413e:	3001      	adds	r0, #1
 8004140:	d011      	beq.n	8004166 <_puts_r+0x72>
 8004142:	200a      	movs	r0, #10
 8004144:	bd70      	pop	{r4, r5, r6, pc}
 8004146:	4b17      	ldr	r3, [pc, #92]	; (80041a4 <_puts_r+0xb0>)
 8004148:	429c      	cmp	r4, r3
 800414a:	d101      	bne.n	8004150 <_puts_r+0x5c>
 800414c:	68ac      	ldr	r4, [r5, #8]
 800414e:	e7e3      	b.n	8004118 <_puts_r+0x24>
 8004150:	4b15      	ldr	r3, [pc, #84]	; (80041a8 <_puts_r+0xb4>)
 8004152:	429c      	cmp	r4, r3
 8004154:	bf08      	it	eq
 8004156:	68ec      	ldreq	r4, [r5, #12]
 8004158:	e7de      	b.n	8004118 <_puts_r+0x24>
 800415a:	4621      	mov	r1, r4
 800415c:	4628      	mov	r0, r5
 800415e:	f000 f88f 	bl	8004280 <__swsetup_r>
 8004162:	2800      	cmp	r0, #0
 8004164:	d0dd      	beq.n	8004122 <_puts_r+0x2e>
 8004166:	f04f 30ff 	mov.w	r0, #4294967295
 800416a:	bd70      	pop	{r4, r5, r6, pc}
 800416c:	2b00      	cmp	r3, #0
 800416e:	da04      	bge.n	800417a <_puts_r+0x86>
 8004170:	69a2      	ldr	r2, [r4, #24]
 8004172:	4293      	cmp	r3, r2
 8004174:	db06      	blt.n	8004184 <_puts_r+0x90>
 8004176:	290a      	cmp	r1, #10
 8004178:	d004      	beq.n	8004184 <_puts_r+0x90>
 800417a:	6823      	ldr	r3, [r4, #0]
 800417c:	1c5a      	adds	r2, r3, #1
 800417e:	6022      	str	r2, [r4, #0]
 8004180:	7019      	strb	r1, [r3, #0]
 8004182:	e7cf      	b.n	8004124 <_puts_r+0x30>
 8004184:	4622      	mov	r2, r4
 8004186:	4628      	mov	r0, r5
 8004188:	f000 f828 	bl	80041dc <__swbuf_r>
 800418c:	3001      	adds	r0, #1
 800418e:	d1c9      	bne.n	8004124 <_puts_r+0x30>
 8004190:	e7e9      	b.n	8004166 <_puts_r+0x72>
 8004192:	6823      	ldr	r3, [r4, #0]
 8004194:	200a      	movs	r0, #10
 8004196:	1c5a      	adds	r2, r3, #1
 8004198:	6022      	str	r2, [r4, #0]
 800419a:	7018      	strb	r0, [r3, #0]
 800419c:	bd70      	pop	{r4, r5, r6, pc}
 800419e:	bf00      	nop
 80041a0:	08004ea8 	.word	0x08004ea8
 80041a4:	08004ec8 	.word	0x08004ec8
 80041a8:	08004e88 	.word	0x08004e88

080041ac <puts>:
 80041ac:	4b02      	ldr	r3, [pc, #8]	; (80041b8 <puts+0xc>)
 80041ae:	4601      	mov	r1, r0
 80041b0:	6818      	ldr	r0, [r3, #0]
 80041b2:	f7ff bf9f 	b.w	80040f4 <_puts_r>
 80041b6:	bf00      	nop
 80041b8:	2000002c 	.word	0x2000002c

080041bc <_sbrk_r>:
 80041bc:	b538      	push	{r3, r4, r5, lr}
 80041be:	4c06      	ldr	r4, [pc, #24]	; (80041d8 <_sbrk_r+0x1c>)
 80041c0:	2300      	movs	r3, #0
 80041c2:	4605      	mov	r5, r0
 80041c4:	4608      	mov	r0, r1
 80041c6:	6023      	str	r3, [r4, #0]
 80041c8:	f7ff fc6c 	bl	8003aa4 <_sbrk>
 80041cc:	1c43      	adds	r3, r0, #1
 80041ce:	d102      	bne.n	80041d6 <_sbrk_r+0x1a>
 80041d0:	6823      	ldr	r3, [r4, #0]
 80041d2:	b103      	cbz	r3, 80041d6 <_sbrk_r+0x1a>
 80041d4:	602b      	str	r3, [r5, #0]
 80041d6:	bd38      	pop	{r3, r4, r5, pc}
 80041d8:	20000898 	.word	0x20000898

080041dc <__swbuf_r>:
 80041dc:	b5f8      	push	{r3, r4, r5, r6, r7, lr}
 80041de:	460e      	mov	r6, r1
 80041e0:	4614      	mov	r4, r2
 80041e2:	4605      	mov	r5, r0
 80041e4:	b118      	cbz	r0, 80041ee <__swbuf_r+0x12>
 80041e6:	6983      	ldr	r3, [r0, #24]
 80041e8:	b90b      	cbnz	r3, 80041ee <__swbuf_r+0x12>
 80041ea:	f000 f9a9 	bl	8004540 <__sinit>
 80041ee:	4b21      	ldr	r3, [pc, #132]	; (8004274 <__swbuf_r+0x98>)
 80041f0:	429c      	cmp	r4, r3
 80041f2:	d12a      	bne.n	800424a <__swbuf_r+0x6e>
 80041f4:	686c      	ldr	r4, [r5, #4]
 80041f6:	69a3      	ldr	r3, [r4, #24]
 80041f8:	60a3      	str	r3, [r4, #8]
 80041fa:	89a3      	ldrh	r3, [r4, #12]
 80041fc:	071a      	lsls	r2, r3, #28
 80041fe:	d52e      	bpl.n	800425e <__swbuf_r+0x82>
 8004200:	6923      	ldr	r3, [r4, #16]
 8004202:	b363      	cbz	r3, 800425e <__swbuf_r+0x82>
 8004204:	6923      	ldr	r3, [r4, #16]
 8004206:	6820      	ldr	r0, [r4, #0]
 8004208:	1ac0      	subs	r0, r0, r3
 800420a:	6963      	ldr	r3, [r4, #20]
 800420c:	b2f6      	uxtb	r6, r6
 800420e:	4298      	cmp	r0, r3
 8004210:	4637      	mov	r7, r6
 8004212:	db04      	blt.n	800421e <__swbuf_r+0x42>
 8004214:	4621      	mov	r1, r4
 8004216:	4628      	mov	r0, r5
 8004218:	f000 f928 	bl	800446c <_fflush_r>
 800421c:	bb28      	cbnz	r0, 800426a <__swbuf_r+0x8e>
 800421e:	68a3      	ldr	r3, [r4, #8]
 8004220:	3b01      	subs	r3, #1
 8004222:	60a3      	str	r3, [r4, #8]
 8004224:	6823      	ldr	r3, [r4, #0]
 8004226:	1c5a      	adds	r2, r3, #1
 8004228:	6022      	str	r2, [r4, #0]
 800422a:	701e      	strb	r6, [r3, #0]
 800422c:	6963      	ldr	r3, [r4, #20]
 800422e:	3001      	adds	r0, #1
 8004230:	4298      	cmp	r0, r3
 8004232:	d004      	beq.n	800423e <__swbuf_r+0x62>
 8004234:	89a3      	ldrh	r3, [r4, #12]
 8004236:	07db      	lsls	r3, r3, #31
 8004238:	d519      	bpl.n	800426e <__swbuf_r+0x92>
 800423a:	2e0a      	cmp	r6, #10
 800423c:	d117      	bne.n	800426e <__swbuf_r+0x92>
 800423e:	4621      	mov	r1, r4
 8004240:	4628      	mov	r0, r5
 8004242:	f000 f913 	bl	800446c <_fflush_r>
 8004246:	b190      	cbz	r0, 800426e <__swbuf_r+0x92>
 8004248:	e00f      	b.n	800426a <__swbuf_r+0x8e>
 800424a:	4b0b      	ldr	r3, [pc, #44]	; (8004278 <__swbuf_r+0x9c>)
 800424c:	429c      	cmp	r4, r3
 800424e:	d101      	bne.n	8004254 <__swbuf_r+0x78>
 8004250:	68ac      	ldr	r4, [r5, #8]
 8004252:	e7d0      	b.n	80041f6 <__swbuf_r+0x1a>
 8004254:	4b09      	ldr	r3, [pc, #36]	; (800427c <__swbuf_r+0xa0>)
 8004256:	429c      	cmp	r4, r3
 8004258:	bf08      	it	eq
 800425a:	68ec      	ldreq	r4, [r5, #12]
 800425c:	e7cb      	b.n	80041f6 <__swbuf_r+0x1a>
 800425e:	4621      	mov	r1, r4
 8004260:	4628      	mov	r0, r5
 8004262:	f000 f80d 	bl	8004280 <__swsetup_r>
 8004266:	2800      	cmp	r0, #0
 8004268:	d0cc      	beq.n	8004204 <__swbuf_r+0x28>
 800426a:	f04f 37ff 	mov.w	r7, #4294967295
 800426e:	4638      	mov	r0, r7
 8004270:	bdf8      	pop	{r3, r4, r5, r6, r7, pc}
 8004272:	bf00      	nop
 8004274:	08004ea8 	.word	0x08004ea8
 8004278:	08004ec8 	.word	0x08004ec8
 800427c:	08004e88 	.word	0x08004e88

08004280 <__swsetup_r>:
 8004280:	4b32      	ldr	r3, [pc, #200]	; (800434c <__swsetup_r+0xcc>)
 8004282:	b570      	push	{r4, r5, r6, lr}
 8004284:	681d      	ldr	r5, [r3, #0]
 8004286:	4606      	mov	r6, r0
 8004288:	460c      	mov	r4, r1
 800428a:	b125      	cbz	r5, 8004296 <__swsetup_r+0x16>
 800428c:	69ab      	ldr	r3, [r5, #24]
 800428e:	b913      	cbnz	r3, 8004296 <__swsetup_r+0x16>
 8004290:	4628      	mov	r0, r5
 8004292:	f000 f955 	bl	8004540 <__sinit>
 8004296:	4b2e      	ldr	r3, [pc, #184]	; (8004350 <__swsetup_r+0xd0>)
 8004298:	429c      	cmp	r4, r3
 800429a:	d10f      	bne.n	80042bc <__swsetup_r+0x3c>
 800429c:	686c      	ldr	r4, [r5, #4]
 800429e:	f9b4 300c 	ldrsh.w	r3, [r4, #12]
 80042a2:	b29a      	uxth	r2, r3
 80042a4:	0715      	lsls	r5, r2, #28
 80042a6:	d42c      	bmi.n	8004302 <__swsetup_r+0x82>
 80042a8:	06d0      	lsls	r0, r2, #27
 80042aa:	d411      	bmi.n	80042d0 <__swsetup_r+0x50>
 80042ac:	2209      	movs	r2, #9
 80042ae:	6032      	str	r2, [r6, #0]
 80042b0:	f043 0340 	orr.w	r3, r3, #64	; 0x40
 80042b4:	81a3      	strh	r3, [r4, #12]
 80042b6:	f04f 30ff 	mov.w	r0, #4294967295
 80042ba:	bd70      	pop	{r4, r5, r6, pc}
 80042bc:	4b25      	ldr	r3, [pc, #148]	; (8004354 <__swsetup_r+0xd4>)
 80042be:	429c      	cmp	r4, r3
 80042c0:	d101      	bne.n	80042c6 <__swsetup_r+0x46>
 80042c2:	68ac      	ldr	r4, [r5, #8]
 80042c4:	e7eb      	b.n	800429e <__swsetup_r+0x1e>
 80042c6:	4b24      	ldr	r3, [pc, #144]	; (8004358 <__swsetup_r+0xd8>)
 80042c8:	429c      	cmp	r4, r3
 80042ca:	bf08      	it	eq
 80042cc:	68ec      	ldreq	r4, [r5, #12]
 80042ce:	e7e6      	b.n	800429e <__swsetup_r+0x1e>
 80042d0:	0751      	lsls	r1, r2, #29
 80042d2:	d512      	bpl.n	80042fa <__swsetup_r+0x7a>
 80042d4:	6b61      	ldr	r1, [r4, #52]	; 0x34
 80042d6:	b141      	cbz	r1, 80042ea <__swsetup_r+0x6a>
 80042d8:	f104 0344 	add.w	r3, r4, #68	; 0x44
 80042dc:	4299      	cmp	r1, r3
 80042de:	d002      	beq.n	80042e6 <__swsetup_r+0x66>
 80042e0:	4630      	mov	r0, r6
 80042e2:	f7ff fe43 	bl	8003f6c <_free_r>
 80042e6:	2300      	movs	r3, #0
 80042e8:	6363      	str	r3, [r4, #52]	; 0x34
 80042ea:	89a3      	ldrh	r3, [r4, #12]
 80042ec:	f023 0324 	bic.w	r3, r3, #36	; 0x24
 80042f0:	81a3      	strh	r3, [r4, #12]
 80042f2:	2300      	movs	r3, #0
 80042f4:	6063      	str	r3, [r4, #4]
 80042f6:	6923      	ldr	r3, [r4, #16]
 80042f8:	6023      	str	r3, [r4, #0]
 80042fa:	89a3      	ldrh	r3, [r4, #12]
 80042fc:	f043 0308 	orr.w	r3, r3, #8
 8004300:	81a3      	strh	r3, [r4, #12]
 8004302:	6923      	ldr	r3, [r4, #16]
 8004304:	b94b      	cbnz	r3, 800431a <__swsetup_r+0x9a>
 8004306:	89a3      	ldrh	r3, [r4, #12]
 8004308:	f403 7320 	and.w	r3, r3, #640	; 0x280
 800430c:	f5b3 7f00 	cmp.w	r3, #512	; 0x200
 8004310:	d003      	beq.n	800431a <__swsetup_r+0x9a>
 8004312:	4621      	mov	r1, r4
 8004314:	4630      	mov	r0, r6
 8004316:	f000 f9c1 	bl	800469c <__smakebuf_r>
 800431a:	89a2      	ldrh	r2, [r4, #12]
 800431c:	f012 0301 	ands.w	r3, r2, #1
 8004320:	d00c      	beq.n	800433c <__swsetup_r+0xbc>
 8004322:	2300      	movs	r3, #0
 8004324:	60a3      	str	r3, [r4, #8]
 8004326:	6963      	ldr	r3, [r4, #20]
 8004328:	425b      	negs	r3, r3
 800432a:	61a3      	str	r3, [r4, #24]
 800432c:	6923      	ldr	r3, [r4, #16]
 800432e:	b953      	cbnz	r3, 8004346 <__swsetup_r+0xc6>
 8004330:	f9b4 300c 	ldrsh.w	r3, [r4, #12]
 8004334:	f013 0080 	ands.w	r0, r3, #128	; 0x80
 8004338:	d1ba      	bne.n	80042b0 <__swsetup_r+0x30>
 800433a:	bd70      	pop	{r4, r5, r6, pc}
 800433c:	0792      	lsls	r2, r2, #30
 800433e:	bf58      	it	pl
 8004340:	6963      	ldrpl	r3, [r4, #20]
 8004342:	60a3      	str	r3, [r4, #8]
 8004344:	e7f2      	b.n	800432c <__swsetup_r+0xac>
 8004346:	2000      	movs	r0, #0
 8004348:	e7f7      	b.n	800433a <__swsetup_r+0xba>
 800434a:	bf00      	nop
 800434c:	2000002c 	.word	0x2000002c
 8004350:	08004ea8 	.word	0x08004ea8
 8004354:	08004ec8 	.word	0x08004ec8
 8004358:	08004e88 	.word	0x08004e88

0800435c <__sflush_r>:
 800435c:	898a      	ldrh	r2, [r1, #12]
 800435e:	e92d 41f0 	stmdb	sp!, {r4, r5, r6, r7, r8, lr}
 8004362:	4605      	mov	r5, r0
 8004364:	0710      	lsls	r0, r2, #28
 8004366:	460c      	mov	r4, r1
 8004368:	d45a      	bmi.n	8004420 <__sflush_r+0xc4>
 800436a:	684b      	ldr	r3, [r1, #4]
 800436c:	2b00      	cmp	r3, #0
 800436e:	dc05      	bgt.n	800437c <__sflush_r+0x20>
 8004370:	6c0b      	ldr	r3, [r1, #64]	; 0x40
 8004372:	2b00      	cmp	r3, #0
 8004374:	dc02      	bgt.n	800437c <__sflush_r+0x20>
 8004376:	2000      	movs	r0, #0
 8004378:	e8bd 81f0 	ldmia.w	sp!, {r4, r5, r6, r7, r8, pc}
 800437c:	6ae6      	ldr	r6, [r4, #44]	; 0x2c
 800437e:	2e00      	cmp	r6, #0
 8004380:	d0f9      	beq.n	8004376 <__sflush_r+0x1a>
 8004382:	2300      	movs	r3, #0
 8004384:	f412 5280 	ands.w	r2, r2, #4096	; 0x1000
 8004388:	682f      	ldr	r7, [r5, #0]
 800438a:	602b      	str	r3, [r5, #0]
 800438c:	d033      	beq.n	80043f6 <__sflush_r+0x9a>
 800438e:	6d60      	ldr	r0, [r4, #84]	; 0x54
 8004390:	89a3      	ldrh	r3, [r4, #12]
 8004392:	075a      	lsls	r2, r3, #29
 8004394:	d505      	bpl.n	80043a2 <__sflush_r+0x46>
 8004396:	6863      	ldr	r3, [r4, #4]
 8004398:	1ac0      	subs	r0, r0, r3
 800439a:	6b63      	ldr	r3, [r4, #52]	; 0x34
 800439c:	b10b      	cbz	r3, 80043a2 <__sflush_r+0x46>
 800439e:	6c23      	ldr	r3, [r4, #64]	; 0x40
 80043a0:	1ac0      	subs	r0, r0, r3
 80043a2:	2300      	movs	r3, #0
 80043a4:	4602      	mov	r2, r0
 80043a6:	6ae6      	ldr	r6, [r4, #44]	; 0x2c
 80043a8:	6a21      	ldr	r1, [r4, #32]
 80043aa:	4628      	mov	r0, r5
 80043ac:	47b0      	blx	r6
 80043ae:	1c43      	adds	r3, r0, #1
 80043b0:	89a3      	ldrh	r3, [r4, #12]
 80043b2:	d106      	bne.n	80043c2 <__sflush_r+0x66>
 80043b4:	6829      	ldr	r1, [r5, #0]
 80043b6:	291d      	cmp	r1, #29
 80043b8:	d84b      	bhi.n	8004452 <__sflush_r+0xf6>
 80043ba:	4a2b      	ldr	r2, [pc, #172]	; (8004468 <__sflush_r+0x10c>)
 80043bc:	40ca      	lsrs	r2, r1
 80043be:	07d6      	lsls	r6, r2, #31
 80043c0:	d547      	bpl.n	8004452 <__sflush_r+0xf6>
 80043c2:	2200      	movs	r2, #0
 80043c4:	6062      	str	r2, [r4, #4]
 80043c6:	04d9      	lsls	r1, r3, #19
 80043c8:	6922      	ldr	r2, [r4, #16]
 80043ca:	6022      	str	r2, [r4, #0]
 80043cc:	d504      	bpl.n	80043d8 <__sflush_r+0x7c>
 80043ce:	1c42      	adds	r2, r0, #1
 80043d0:	d101      	bne.n	80043d6 <__sflush_r+0x7a>
 80043d2:	682b      	ldr	r3, [r5, #0]
 80043d4:	b903      	cbnz	r3, 80043d8 <__sflush_r+0x7c>
 80043d6:	6560      	str	r0, [r4, #84]	; 0x54
 80043d8:	6b61      	ldr	r1, [r4, #52]	; 0x34
 80043da:	602f      	str	r7, [r5, #0]
 80043dc:	2900      	cmp	r1, #0
 80043de:	d0ca      	beq.n	8004376 <__sflush_r+0x1a>
 80043e0:	f104 0344 	add.w	r3, r4, #68	; 0x44
 80043e4:	4299      	cmp	r1, r3
 80043e6:	d002      	beq.n	80043ee <__sflush_r+0x92>
 80043e8:	4628      	mov	r0, r5
 80043ea:	f7ff fdbf 	bl	8003f6c <_free_r>
 80043ee:	2000      	movs	r0, #0
 80043f0:	6360      	str	r0, [r4, #52]	; 0x34
 80043f2:	e8bd 81f0 	ldmia.w	sp!, {r4, r5, r6, r7, r8, pc}
 80043f6:	6a21      	ldr	r1, [r4, #32]
 80043f8:	2301      	movs	r3, #1
 80043fa:	4628      	mov	r0, r5
 80043fc:	47b0      	blx	r6
 80043fe:	1c41      	adds	r1, r0, #1
 8004400:	d1c6      	bne.n	8004390 <__sflush_r+0x34>
 8004402:	682b      	ldr	r3, [r5, #0]
 8004404:	2b00      	cmp	r3, #0
 8004406:	d0c3      	beq.n	8004390 <__sflush_r+0x34>
 8004408:	2b1d      	cmp	r3, #29
 800440a:	d001      	beq.n	8004410 <__sflush_r+0xb4>
 800440c:	2b16      	cmp	r3, #22
 800440e:	d101      	bne.n	8004414 <__sflush_r+0xb8>
 8004410:	602f      	str	r7, [r5, #0]
 8004412:	e7b0      	b.n	8004376 <__sflush_r+0x1a>
 8004414:	89a3      	ldrh	r3, [r4, #12]
 8004416:	f043 0340 	orr.w	r3, r3, #64	; 0x40
 800441a:	81a3      	strh	r3, [r4, #12]
 800441c:	e8bd 81f0 	ldmia.w	sp!, {r4, r5, r6, r7, r8, pc}
 8004420:	690f      	ldr	r7, [r1, #16]
 8004422:	2f00      	cmp	r7, #0
 8004424:	d0a7      	beq.n	8004376 <__sflush_r+0x1a>
 8004426:	0793      	lsls	r3, r2, #30
 8004428:	680e      	ldr	r6, [r1, #0]
 800442a:	bf08      	it	eq
 800442c:	694b      	ldreq	r3, [r1, #20]
 800442e:	600f      	str	r7, [r1, #0]
 8004430:	bf18      	it	ne
 8004432:	2300      	movne	r3, #0
 8004434:	eba6 0807 	sub.w	r8, r6, r7
 8004438:	608b      	str	r3, [r1, #8]
 800443a:	f1b8 0f00 	cmp.w	r8, #0
 800443e:	dd9a      	ble.n	8004376 <__sflush_r+0x1a>
 8004440:	4643      	mov	r3, r8
 8004442:	463a      	mov	r2, r7
 8004444:	6a21      	ldr	r1, [r4, #32]
 8004446:	6aa6      	ldr	r6, [r4, #40]	; 0x28
 8004448:	4628      	mov	r0, r5
 800444a:	47b0      	blx	r6
 800444c:	2800      	cmp	r0, #0
 800444e:	dc07      	bgt.n	8004460 <__sflush_r+0x104>
 8004450:	89a3      	ldrh	r3, [r4, #12]
 8004452:	f043 0340 	orr.w	r3, r3, #64	; 0x40
 8004456:	81a3      	strh	r3, [r4, #12]
 8004458:	f04f 30ff 	mov.w	r0, #4294967295
 800445c:	e8bd 81f0 	ldmia.w	sp!, {r4, r5, r6, r7, r8, pc}
 8004460:	4407      	add	r7, r0
 8004462:	eba8 0800 	sub.w	r8, r8, r0
 8004466:	e7e8      	b.n	800443a <__sflush_r+0xde>
 8004468:	20400001 	.word	0x20400001

0800446c <_fflush_r>:
 800446c:	b538      	push	{r3, r4, r5, lr}
 800446e:	690b      	ldr	r3, [r1, #16]
 8004470:	4605      	mov	r5, r0
 8004472:	460c      	mov	r4, r1
 8004474:	b1db      	cbz	r3, 80044ae <_fflush_r+0x42>
 8004476:	b118      	cbz	r0, 8004480 <_fflush_r+0x14>
 8004478:	6983      	ldr	r3, [r0, #24]
 800447a:	b90b      	cbnz	r3, 8004480 <_fflush_r+0x14>
 800447c:	f000 f860 	bl	8004540 <__sinit>
 8004480:	4b0c      	ldr	r3, [pc, #48]	; (80044b4 <_fflush_r+0x48>)
 8004482:	429c      	cmp	r4, r3
 8004484:	d109      	bne.n	800449a <_fflush_r+0x2e>
 8004486:	686c      	ldr	r4, [r5, #4]
 8004488:	f9b4 300c 	ldrsh.w	r3, [r4, #12]
 800448c:	b17b      	cbz	r3, 80044ae <_fflush_r+0x42>
 800448e:	4621      	mov	r1, r4
 8004490:	4628      	mov	r0, r5
 8004492:	e8bd 4038 	ldmia.w	sp!, {r3, r4, r5, lr}
 8004496:	f7ff bf61 	b.w	800435c <__sflush_r>
 800449a:	4b07      	ldr	r3, [pc, #28]	; (80044b8 <_fflush_r+0x4c>)
 800449c:	429c      	cmp	r4, r3
 800449e:	d101      	bne.n	80044a4 <_fflush_r+0x38>
 80044a0:	68ac      	ldr	r4, [r5, #8]
 80044a2:	e7f1      	b.n	8004488 <_fflush_r+0x1c>
 80044a4:	4b05      	ldr	r3, [pc, #20]	; (80044bc <_fflush_r+0x50>)
 80044a6:	429c      	cmp	r4, r3
 80044a8:	bf08      	it	eq
 80044aa:	68ec      	ldreq	r4, [r5, #12]
 80044ac:	e7ec      	b.n	8004488 <_fflush_r+0x1c>
 80044ae:	2000      	movs	r0, #0
 80044b0:	bd38      	pop	{r3, r4, r5, pc}
 80044b2:	bf00      	nop
 80044b4:	08004ea8 	.word	0x08004ea8
 80044b8:	08004ec8 	.word	0x08004ec8
 80044bc:	08004e88 	.word	0x08004e88

080044c0 <_cleanup_r>:
 80044c0:	4901      	ldr	r1, [pc, #4]	; (80044c8 <_cleanup_r+0x8>)
 80044c2:	f000 b8a9 	b.w	8004618 <_fwalk_reent>
 80044c6:	bf00      	nop
 80044c8:	0800446d 	.word	0x0800446d

080044cc <std.isra.0>:
 80044cc:	2300      	movs	r3, #0
 80044ce:	b510      	push	{r4, lr}
 80044d0:	4604      	mov	r4, r0
 80044d2:	6003      	str	r3, [r0, #0]
 80044d4:	6043      	str	r3, [r0, #4]
 80044d6:	6083      	str	r3, [r0, #8]
 80044d8:	8181      	strh	r1, [r0, #12]
 80044da:	6643      	str	r3, [r0, #100]	; 0x64
 80044dc:	81c2      	strh	r2, [r0, #14]
 80044de:	6103      	str	r3, [r0, #16]
 80044e0:	6143      	str	r3, [r0, #20]
 80044e2:	6183      	str	r3, [r0, #24]
 80044e4:	4619      	mov	r1, r3
 80044e6:	2208      	movs	r2, #8
 80044e8:	305c      	adds	r0, #92	; 0x5c
 80044ea:	f7ff fd37 	bl	8003f5c <memset>
 80044ee:	4b05      	ldr	r3, [pc, #20]	; (8004504 <std.isra.0+0x38>)
 80044f0:	6263      	str	r3, [r4, #36]	; 0x24
 80044f2:	4b05      	ldr	r3, [pc, #20]	; (8004508 <std.isra.0+0x3c>)
 80044f4:	62a3      	str	r3, [r4, #40]	; 0x28
 80044f6:	4b05      	ldr	r3, [pc, #20]	; (800450c <std.isra.0+0x40>)
 80044f8:	62e3      	str	r3, [r4, #44]	; 0x2c
 80044fa:	4b05      	ldr	r3, [pc, #20]	; (8004510 <std.isra.0+0x44>)
 80044fc:	6224      	str	r4, [r4, #32]
 80044fe:	6323      	str	r3, [r4, #48]	; 0x30
 8004500:	bd10      	pop	{r4, pc}
 8004502:	bf00      	nop
 8004504:	08004ccd 	.word	0x08004ccd
 8004508:	08004cef 	.word	0x08004cef
 800450c:	08004d27 	.word	0x08004d27
 8004510:	08004d4b 	.word	0x08004d4b

08004514 <__sfmoreglue>:
 8004514:	b570      	push	{r4, r5, r6, lr}
 8004516:	1e4a      	subs	r2, r1, #1
 8004518:	2568      	movs	r5, #104	; 0x68
 800451a:	4355      	muls	r5, r2
 800451c:	460e      	mov	r6, r1
 800451e:	f105 0174 	add.w	r1, r5, #116	; 0x74
 8004522:	f7ff fd71 	bl	8004008 <_malloc_r>
 8004526:	4604      	mov	r4, r0
 8004528:	b140      	cbz	r0, 800453c <__sfmoreglue+0x28>
 800452a:	2100      	movs	r1, #0
 800452c:	e880 0042 	stmia.w	r0, {r1, r6}
 8004530:	300c      	adds	r0, #12
 8004532:	60a0      	str	r0, [r4, #8]
 8004534:	f105 0268 	add.w	r2, r5, #104	; 0x68
 8004538:	f7ff fd10 	bl	8003f5c <memset>
 800453c:	4620      	mov	r0, r4
 800453e:	bd70      	pop	{r4, r5, r6, pc}

08004540 <__sinit>:
 8004540:	6983      	ldr	r3, [r0, #24]
 8004542:	b510      	push	{r4, lr}
 8004544:	4604      	mov	r4, r0
 8004546:	bb33      	cbnz	r3, 8004596 <__sinit+0x56>
 8004548:	6483      	str	r3, [r0, #72]	; 0x48
 800454a:	64c3      	str	r3, [r0, #76]	; 0x4c
 800454c:	6503      	str	r3, [r0, #80]	; 0x50
 800454e:	4b12      	ldr	r3, [pc, #72]	; (8004598 <__sinit+0x58>)
 8004550:	4a12      	ldr	r2, [pc, #72]	; (800459c <__sinit+0x5c>)
 8004552:	681b      	ldr	r3, [r3, #0]
 8004554:	6282      	str	r2, [r0, #40]	; 0x28
 8004556:	4298      	cmp	r0, r3
 8004558:	bf04      	itt	eq
 800455a:	2301      	moveq	r3, #1
 800455c:	6183      	streq	r3, [r0, #24]
 800455e:	f000 f81f 	bl	80045a0 <__sfp>
 8004562:	6060      	str	r0, [r4, #4]
 8004564:	4620      	mov	r0, r4
 8004566:	f000 f81b 	bl	80045a0 <__sfp>
 800456a:	60a0      	str	r0, [r4, #8]
 800456c:	4620      	mov	r0, r4
 800456e:	f000 f817 	bl	80045a0 <__sfp>
 8004572:	2200      	movs	r2, #0
 8004574:	60e0      	str	r0, [r4, #12]
 8004576:	2104      	movs	r1, #4
 8004578:	6860      	ldr	r0, [r4, #4]
 800457a:	f7ff ffa7 	bl	80044cc <std.isra.0>
 800457e:	2201      	movs	r2, #1
 8004580:	2109      	movs	r1, #9
 8004582:	68a0      	ldr	r0, [r4, #8]
 8004584:	f7ff ffa2 	bl	80044cc <std.isra.0>
 8004588:	2202      	movs	r2, #2
 800458a:	2112      	movs	r1, #18
 800458c:	68e0      	ldr	r0, [r4, #12]
 800458e:	f7ff ff9d 	bl	80044cc <std.isra.0>
 8004592:	2301      	movs	r3, #1
 8004594:	61a3      	str	r3, [r4, #24]
 8004596:	bd10      	pop	{r4, pc}
 8004598:	08004e84 	.word	0x08004e84
 800459c:	080044c1 	.word	0x080044c1

080045a0 <__sfp>:
 80045a0:	b5f8      	push	{r3, r4, r5, r6, r7, lr}
 80045a2:	4b1c      	ldr	r3, [pc, #112]	; (8004614 <__sfp+0x74>)
 80045a4:	681e      	ldr	r6, [r3, #0]
 80045a6:	69b3      	ldr	r3, [r6, #24]
 80045a8:	4607      	mov	r7, r0
 80045aa:	b913      	cbnz	r3, 80045b2 <__sfp+0x12>
 80045ac:	4630      	mov	r0, r6
 80045ae:	f7ff ffc7 	bl	8004540 <__sinit>
 80045b2:	3648      	adds	r6, #72	; 0x48
 80045b4:	68b4      	ldr	r4, [r6, #8]
 80045b6:	6873      	ldr	r3, [r6, #4]
 80045b8:	3b01      	subs	r3, #1
 80045ba:	d503      	bpl.n	80045c4 <__sfp+0x24>
 80045bc:	6833      	ldr	r3, [r6, #0]
 80045be:	b133      	cbz	r3, 80045ce <__sfp+0x2e>
 80045c0:	6836      	ldr	r6, [r6, #0]
 80045c2:	e7f7      	b.n	80045b4 <__sfp+0x14>
 80045c4:	f9b4 500c 	ldrsh.w	r5, [r4, #12]
 80045c8:	b16d      	cbz	r5, 80045e6 <__sfp+0x46>
 80045ca:	3468      	adds	r4, #104	; 0x68
 80045cc:	e7f4      	b.n	80045b8 <__sfp+0x18>
 80045ce:	2104      	movs	r1, #4
 80045d0:	4638      	mov	r0, r7
 80045d2:	f7ff ff9f 	bl	8004514 <__sfmoreglue>
 80045d6:	6030      	str	r0, [r6, #0]
 80045d8:	2800      	cmp	r0, #0
 80045da:	d1f1      	bne.n	80045c0 <__sfp+0x20>
 80045dc:	230c      	movs	r3, #12
 80045de:	603b      	str	r3, [r7, #0]
 80045e0:	4604      	mov	r4, r0
 80045e2:	4620      	mov	r0, r4
 80045e4:	bdf8      	pop	{r3, r4, r5, r6, r7, pc}
 80045e6:	f64f 73ff 	movw	r3, #65535	; 0xffff
 80045ea:	81e3      	strh	r3, [r4, #14]
 80045ec:	2301      	movs	r3, #1
 80045ee:	81a3      	strh	r3, [r4, #12]
 80045f0:	6665      	str	r5, [r4, #100]	; 0x64
 80045f2:	6025      	str	r5, [r4, #0]
 80045f4:	60a5      	str	r5, [r4, #8]
 80045f6:	6065      	str	r5, [r4, #4]
 80045f8:	6125      	str	r5, [r4, #16]
 80045fa:	6165      	str	r5, [r4, #20]
 80045fc:	61a5      	str	r5, [r4, #24]
 80045fe:	2208      	movs	r2, #8
 8004600:	4629      	mov	r1, r5
 8004602:	f104 005c 	add.w	r0, r4, #92	; 0x5c
 8004606:	f7ff fca9 	bl	8003f5c <memset>
 800460a:	6365      	str	r5, [r4, #52]	; 0x34
 800460c:	63a5      	str	r5, [r4, #56]	; 0x38
 800460e:	64a5      	str	r5, [r4, #72]	; 0x48
 8004610:	64e5      	str	r5, [r4, #76]	; 0x4c
 8004612:	e7e6      	b.n	80045e2 <__sfp+0x42>
 8004614:	08004e84 	.word	0x08004e84

08004618 <_fwalk_reent>:
 8004618:	e92d 43f8 	stmdb	sp!, {r3, r4, r5, r6, r7, r8, r9, lr}
 800461c:	4680      	mov	r8, r0
 800461e:	4689      	mov	r9, r1
 8004620:	f100 0448 	add.w	r4, r0, #72	; 0x48
 8004624:	2600      	movs	r6, #0
 8004626:	b914      	cbnz	r4, 800462e <_fwalk_reent+0x16>
 8004628:	4630      	mov	r0, r6
 800462a:	e8bd 83f8 	ldmia.w	sp!, {r3, r4, r5, r6, r7, r8, r9, pc}
 800462e:	68a5      	ldr	r5, [r4, #8]
 8004630:	6867      	ldr	r7, [r4, #4]
 8004632:	3f01      	subs	r7, #1
 8004634:	d501      	bpl.n	800463a <_fwalk_reent+0x22>
 8004636:	6824      	ldr	r4, [r4, #0]
 8004638:	e7f5      	b.n	8004626 <_fwalk_reent+0xe>
 800463a:	89ab      	ldrh	r3, [r5, #12]
 800463c:	2b01      	cmp	r3, #1
 800463e:	d907      	bls.n	8004650 <_fwalk_reent+0x38>
 8004640:	f9b5 300e 	ldrsh.w	r3, [r5, #14]
 8004644:	3301      	adds	r3, #1
 8004646:	d003      	beq.n	8004650 <_fwalk_reent+0x38>
 8004648:	4629      	mov	r1, r5
 800464a:	4640      	mov	r0, r8
 800464c:	47c8      	blx	r9
 800464e:	4306      	orrs	r6, r0
 8004650:	3568      	adds	r5, #104	; 0x68
 8004652:	e7ee      	b.n	8004632 <_fwalk_reent+0x1a>

08004654 <__swhatbuf_r>:
 8004654:	b570      	push	{r4, r5, r6, lr}
 8004656:	460e      	mov	r6, r1
 8004658:	f9b1 100e 	ldrsh.w	r1, [r1, #14]
 800465c:	2900      	cmp	r1, #0
 800465e:	b090      	sub	sp, #64	; 0x40
 8004660:	4614      	mov	r4, r2
 8004662:	461d      	mov	r5, r3
 8004664:	da07      	bge.n	8004676 <__swhatbuf_r+0x22>
 8004666:	2300      	movs	r3, #0
 8004668:	602b      	str	r3, [r5, #0]
 800466a:	89b3      	ldrh	r3, [r6, #12]
 800466c:	061a      	lsls	r2, r3, #24
 800466e:	d410      	bmi.n	8004692 <__swhatbuf_r+0x3e>
 8004670:	f44f 6380 	mov.w	r3, #1024	; 0x400
 8004674:	e00e      	b.n	8004694 <__swhatbuf_r+0x40>
 8004676:	aa01      	add	r2, sp, #4
 8004678:	f000 fb8e 	bl	8004d98 <_fstat_r>
 800467c:	2800      	cmp	r0, #0
 800467e:	dbf2      	blt.n	8004666 <__swhatbuf_r+0x12>
 8004680:	9a02      	ldr	r2, [sp, #8]
 8004682:	f402 4270 	and.w	r2, r2, #61440	; 0xf000
 8004686:	f5a2 5300 	sub.w	r3, r2, #8192	; 0x2000
 800468a:	425a      	negs	r2, r3
 800468c:	415a      	adcs	r2, r3
 800468e:	602a      	str	r2, [r5, #0]
 8004690:	e7ee      	b.n	8004670 <__swhatbuf_r+0x1c>
 8004692:	2340      	movs	r3, #64	; 0x40
 8004694:	2000      	movs	r0, #0
 8004696:	6023      	str	r3, [r4, #0]
 8004698:	b010      	add	sp, #64	; 0x40
 800469a:	bd70      	pop	{r4, r5, r6, pc}

0800469c <__smakebuf_r>:
 800469c:	898b      	ldrh	r3, [r1, #12]
 800469e:	b573      	push	{r0, r1, r4, r5, r6, lr}
 80046a0:	079d      	lsls	r5, r3, #30
 80046a2:	4606      	mov	r6, r0
 80046a4:	460c      	mov	r4, r1
 80046a6:	d507      	bpl.n	80046b8 <__smakebuf_r+0x1c>
 80046a8:	f104 0347 	add.w	r3, r4, #71	; 0x47
 80046ac:	6023      	str	r3, [r4, #0]
 80046ae:	6123      	str	r3, [r4, #16]
 80046b0:	2301      	movs	r3, #1
 80046b2:	6163      	str	r3, [r4, #20]
 80046b4:	b002      	add	sp, #8
 80046b6:	bd70      	pop	{r4, r5, r6, pc}
 80046b8:	ab01      	add	r3, sp, #4
 80046ba:	466a      	mov	r2, sp
 80046bc:	f7ff ffca 	bl	8004654 <__swhatbuf_r>
 80046c0:	9900      	ldr	r1, [sp, #0]
 80046c2:	4605      	mov	r5, r0
 80046c4:	4630      	mov	r0, r6
 80046c6:	f7ff fc9f 	bl	8004008 <_malloc_r>
 80046ca:	b948      	cbnz	r0, 80046e0 <__smakebuf_r+0x44>
 80046cc:	f9b4 300c 	ldrsh.w	r3, [r4, #12]
 80046d0:	059a      	lsls	r2, r3, #22
 80046d2:	d4ef      	bmi.n	80046b4 <__smakebuf_r+0x18>
 80046d4:	f023 0303 	bic.w	r3, r3, #3
 80046d8:	f043 0302 	orr.w	r3, r3, #2
 80046dc:	81a3      	strh	r3, [r4, #12]
 80046de:	e7e3      	b.n	80046a8 <__smakebuf_r+0xc>
 80046e0:	4b0d      	ldr	r3, [pc, #52]	; (8004718 <__smakebuf_r+0x7c>)
 80046e2:	62b3      	str	r3, [r6, #40]	; 0x28
 80046e4:	89a3      	ldrh	r3, [r4, #12]
 80046e6:	6020      	str	r0, [r4, #0]
 80046e8:	f043 0380 	orr.w	r3, r3, #128	; 0x80
 80046ec:	81a3      	strh	r3, [r4, #12]
 80046ee:	9b00      	ldr	r3, [sp, #0]
 80046f0:	6163      	str	r3, [r4, #20]
 80046f2:	9b01      	ldr	r3, [sp, #4]
 80046f4:	6120      	str	r0, [r4, #16]
 80046f6:	b15b      	cbz	r3, 8004710 <__smakebuf_r+0x74>
 80046f8:	f9b4 100e 	ldrsh.w	r1, [r4, #14]
 80046fc:	4630      	mov	r0, r6
 80046fe:	f000 fb5d 	bl	8004dbc <_isatty_r>
 8004702:	b128      	cbz	r0, 8004710 <__smakebuf_r+0x74>
 8004704:	89a3      	ldrh	r3, [r4, #12]
 8004706:	f023 0303 	bic.w	r3, r3, #3
 800470a:	f043 0301 	orr.w	r3, r3, #1
 800470e:	81a3      	strh	r3, [r4, #12]
 8004710:	89a3      	ldrh	r3, [r4, #12]
 8004712:	431d      	orrs	r5, r3
 8004714:	81a5      	strh	r5, [r4, #12]
 8004716:	e7cd      	b.n	80046b4 <__smakebuf_r+0x18>
 8004718:	080044c1 	.word	0x080044c1

0800471c <__malloc_lock>:
 800471c:	4770      	bx	lr

0800471e <__malloc_unlock>:
 800471e:	4770      	bx	lr

08004720 <__sfputc_r>:
 8004720:	6893      	ldr	r3, [r2, #8]
 8004722:	3b01      	subs	r3, #1
 8004724:	2b00      	cmp	r3, #0
 8004726:	b410      	push	{r4}
 8004728:	6093      	str	r3, [r2, #8]
 800472a:	da09      	bge.n	8004740 <__sfputc_r+0x20>
 800472c:	6994      	ldr	r4, [r2, #24]
 800472e:	42a3      	cmp	r3, r4
 8004730:	db02      	blt.n	8004738 <__sfputc_r+0x18>
 8004732:	b2cb      	uxtb	r3, r1
 8004734:	2b0a      	cmp	r3, #10
 8004736:	d103      	bne.n	8004740 <__sfputc_r+0x20>
 8004738:	f85d 4b04 	ldr.w	r4, [sp], #4
 800473c:	f7ff bd4e 	b.w	80041dc <__swbuf_r>
 8004740:	6813      	ldr	r3, [r2, #0]
 8004742:	1c58      	adds	r0, r3, #1
 8004744:	6010      	str	r0, [r2, #0]
 8004746:	7019      	strb	r1, [r3, #0]
 8004748:	b2c8      	uxtb	r0, r1
 800474a:	f85d 4b04 	ldr.w	r4, [sp], #4
 800474e:	4770      	bx	lr

08004750 <__sfputs_r>:
 8004750:	b5f8      	push	{r3, r4, r5, r6, r7, lr}
 8004752:	4606      	mov	r6, r0
 8004754:	460f      	mov	r7, r1
 8004756:	4614      	mov	r4, r2
 8004758:	18d5      	adds	r5, r2, r3
 800475a:	42ac      	cmp	r4, r5
 800475c:	d101      	bne.n	8004762 <__sfputs_r+0x12>
 800475e:	2000      	movs	r0, #0
 8004760:	e007      	b.n	8004772 <__sfputs_r+0x22>
 8004762:	463a      	mov	r2, r7
 8004764:	f814 1b01 	ldrb.w	r1, [r4], #1
 8004768:	4630      	mov	r0, r6
 800476a:	f7ff ffd9 	bl	8004720 <__sfputc_r>
 800476e:	1c43      	adds	r3, r0, #1
 8004770:	d1f3      	bne.n	800475a <__sfputs_r+0xa>
 8004772:	bdf8      	pop	{r3, r4, r5, r6, r7, pc}

08004774 <_vfiprintf_r>:
 8004774:	e92d 4ff0 	stmdb	sp!, {r4, r5, r6, r7, r8, r9, sl, fp, lr}
 8004778:	b09d      	sub	sp, #116	; 0x74
 800477a:	460c      	mov	r4, r1
 800477c:	4617      	mov	r7, r2
 800477e:	9303      	str	r3, [sp, #12]
 8004780:	4606      	mov	r6, r0
 8004782:	b118      	cbz	r0, 800478c <_vfiprintf_r+0x18>
 8004784:	6983      	ldr	r3, [r0, #24]
 8004786:	b90b      	cbnz	r3, 800478c <_vfiprintf_r+0x18>
 8004788:	f7ff feda 	bl	8004540 <__sinit>
 800478c:	4b7c      	ldr	r3, [pc, #496]	; (8004980 <_vfiprintf_r+0x20c>)
 800478e:	429c      	cmp	r4, r3
 8004790:	d157      	bne.n	8004842 <_vfiprintf_r+0xce>
 8004792:	6874      	ldr	r4, [r6, #4]
 8004794:	89a3      	ldrh	r3, [r4, #12]
 8004796:	0718      	lsls	r0, r3, #28
 8004798:	d55d      	bpl.n	8004856 <_vfiprintf_r+0xe2>
 800479a:	6923      	ldr	r3, [r4, #16]
 800479c:	2b00      	cmp	r3, #0
 800479e:	d05a      	beq.n	8004856 <_vfiprintf_r+0xe2>
 80047a0:	2300      	movs	r3, #0
 80047a2:	9309      	str	r3, [sp, #36]	; 0x24
 80047a4:	2320      	movs	r3, #32
 80047a6:	f88d 3029 	strb.w	r3, [sp, #41]	; 0x29
 80047aa:	2330      	movs	r3, #48	; 0x30
 80047ac:	f88d 302a 	strb.w	r3, [sp, #42]	; 0x2a
 80047b0:	f04f 0b01 	mov.w	fp, #1
 80047b4:	46b8      	mov	r8, r7
 80047b6:	4645      	mov	r5, r8
 80047b8:	f815 3b01 	ldrb.w	r3, [r5], #1
 80047bc:	2b00      	cmp	r3, #0
 80047be:	d155      	bne.n	800486c <_vfiprintf_r+0xf8>
 80047c0:	ebb8 0a07 	subs.w	sl, r8, r7
 80047c4:	d00b      	beq.n	80047de <_vfiprintf_r+0x6a>
 80047c6:	4653      	mov	r3, sl
 80047c8:	463a      	mov	r2, r7
 80047ca:	4621      	mov	r1, r4
 80047cc:	4630      	mov	r0, r6
 80047ce:	f7ff ffbf 	bl	8004750 <__sfputs_r>
 80047d2:	3001      	adds	r0, #1
 80047d4:	f000 80c4 	beq.w	8004960 <_vfiprintf_r+0x1ec>
 80047d8:	9b09      	ldr	r3, [sp, #36]	; 0x24
 80047da:	4453      	add	r3, sl
 80047dc:	9309      	str	r3, [sp, #36]	; 0x24
 80047de:	f898 3000 	ldrb.w	r3, [r8]
 80047e2:	2b00      	cmp	r3, #0
 80047e4:	f000 80bc 	beq.w	8004960 <_vfiprintf_r+0x1ec>
 80047e8:	2300      	movs	r3, #0
 80047ea:	f04f 32ff 	mov.w	r2, #4294967295
 80047ee:	9304      	str	r3, [sp, #16]
 80047f0:	9307      	str	r3, [sp, #28]
 80047f2:	9205      	str	r2, [sp, #20]
 80047f4:	9306      	str	r3, [sp, #24]
 80047f6:	f88d 3053 	strb.w	r3, [sp, #83]	; 0x53
 80047fa:	931a      	str	r3, [sp, #104]	; 0x68
 80047fc:	2205      	movs	r2, #5
 80047fe:	7829      	ldrb	r1, [r5, #0]
 8004800:	4860      	ldr	r0, [pc, #384]	; (8004984 <_vfiprintf_r+0x210>)
 8004802:	f7fb fce5 	bl	80001d0 <memchr>
 8004806:	f105 0801 	add.w	r8, r5, #1
 800480a:	9b04      	ldr	r3, [sp, #16]
 800480c:	2800      	cmp	r0, #0
 800480e:	d131      	bne.n	8004874 <_vfiprintf_r+0x100>
 8004810:	06d9      	lsls	r1, r3, #27
 8004812:	bf44      	itt	mi
 8004814:	2220      	movmi	r2, #32
 8004816:	f88d 2053 	strbmi.w	r2, [sp, #83]	; 0x53
 800481a:	071a      	lsls	r2, r3, #28
 800481c:	bf44      	itt	mi
 800481e:	222b      	movmi	r2, #43	; 0x2b
 8004820:	f88d 2053 	strbmi.w	r2, [sp, #83]	; 0x53
 8004824:	782a      	ldrb	r2, [r5, #0]
 8004826:	2a2a      	cmp	r2, #42	; 0x2a
 8004828:	d02c      	beq.n	8004884 <_vfiprintf_r+0x110>
 800482a:	9a07      	ldr	r2, [sp, #28]
 800482c:	2100      	movs	r1, #0
 800482e:	200a      	movs	r0, #10
 8004830:	46a8      	mov	r8, r5
 8004832:	3501      	adds	r5, #1
 8004834:	f898 3000 	ldrb.w	r3, [r8]
 8004838:	3b30      	subs	r3, #48	; 0x30
 800483a:	2b09      	cmp	r3, #9
 800483c:	d96d      	bls.n	800491a <_vfiprintf_r+0x1a6>
 800483e:	b371      	cbz	r1, 800489e <_vfiprintf_r+0x12a>
 8004840:	e026      	b.n	8004890 <_vfiprintf_r+0x11c>
 8004842:	4b51      	ldr	r3, [pc, #324]	; (8004988 <_vfiprintf_r+0x214>)
 8004844:	429c      	cmp	r4, r3
 8004846:	d101      	bne.n	800484c <_vfiprintf_r+0xd8>
 8004848:	68b4      	ldr	r4, [r6, #8]
 800484a:	e7a3      	b.n	8004794 <_vfiprintf_r+0x20>
 800484c:	4b4f      	ldr	r3, [pc, #316]	; (800498c <_vfiprintf_r+0x218>)
 800484e:	429c      	cmp	r4, r3
 8004850:	bf08      	it	eq
 8004852:	68f4      	ldreq	r4, [r6, #12]
 8004854:	e79e      	b.n	8004794 <_vfiprintf_r+0x20>
 8004856:	4621      	mov	r1, r4
 8004858:	4630      	mov	r0, r6
 800485a:	f7ff fd11 	bl	8004280 <__swsetup_r>
 800485e:	2800      	cmp	r0, #0
 8004860:	d09e      	beq.n	80047a0 <_vfiprintf_r+0x2c>
 8004862:	f04f 30ff 	mov.w	r0, #4294967295
 8004866:	b01d      	add	sp, #116	; 0x74
 8004868:	e8bd 8ff0 	ldmia.w	sp!, {r4, r5, r6, r7, r8, r9, sl, fp, pc}
 800486c:	2b25      	cmp	r3, #37	; 0x25
 800486e:	d0a7      	beq.n	80047c0 <_vfiprintf_r+0x4c>
 8004870:	46a8      	mov	r8, r5
 8004872:	e7a0      	b.n	80047b6 <_vfiprintf_r+0x42>
 8004874:	4a43      	ldr	r2, [pc, #268]	; (8004984 <_vfiprintf_r+0x210>)
 8004876:	1a80      	subs	r0, r0, r2
 8004878:	fa0b f000 	lsl.w	r0, fp, r0
 800487c:	4318      	orrs	r0, r3
 800487e:	9004      	str	r0, [sp, #16]
 8004880:	4645      	mov	r5, r8
 8004882:	e7bb      	b.n	80047fc <_vfiprintf_r+0x88>
 8004884:	9a03      	ldr	r2, [sp, #12]
 8004886:	1d11      	adds	r1, r2, #4
 8004888:	6812      	ldr	r2, [r2, #0]
 800488a:	9103      	str	r1, [sp, #12]
 800488c:	2a00      	cmp	r2, #0
 800488e:	db01      	blt.n	8004894 <_vfiprintf_r+0x120>
 8004890:	9207      	str	r2, [sp, #28]
 8004892:	e004      	b.n	800489e <_vfiprintf_r+0x12a>
 8004894:	4252      	negs	r2, r2
 8004896:	f043 0302 	orr.w	r3, r3, #2
 800489a:	9207      	str	r2, [sp, #28]
 800489c:	9304      	str	r3, [sp, #16]
 800489e:	f898 3000 	ldrb.w	r3, [r8]
 80048a2:	2b2e      	cmp	r3, #46	; 0x2e
 80048a4:	d110      	bne.n	80048c8 <_vfiprintf_r+0x154>
 80048a6:	f898 3001 	ldrb.w	r3, [r8, #1]
 80048aa:	2b2a      	cmp	r3, #42	; 0x2a
 80048ac:	f108 0101 	add.w	r1, r8, #1
 80048b0:	d137      	bne.n	8004922 <_vfiprintf_r+0x1ae>
 80048b2:	9b03      	ldr	r3, [sp, #12]
 80048b4:	1d1a      	adds	r2, r3, #4
 80048b6:	681b      	ldr	r3, [r3, #0]
 80048b8:	9203      	str	r2, [sp, #12]
 80048ba:	2b00      	cmp	r3, #0
 80048bc:	bfb8      	it	lt
 80048be:	f04f 33ff 	movlt.w	r3, #4294967295
 80048c2:	f108 0802 	add.w	r8, r8, #2
 80048c6:	9305      	str	r3, [sp, #20]
 80048c8:	4d31      	ldr	r5, [pc, #196]	; (8004990 <_vfiprintf_r+0x21c>)
 80048ca:	f898 1000 	ldrb.w	r1, [r8]
 80048ce:	2203      	movs	r2, #3
 80048d0:	4628      	mov	r0, r5
 80048d2:	f7fb fc7d 	bl	80001d0 <memchr>
 80048d6:	b140      	cbz	r0, 80048ea <_vfiprintf_r+0x176>
 80048d8:	2340      	movs	r3, #64	; 0x40
 80048da:	1b40      	subs	r0, r0, r5
 80048dc:	fa03 f000 	lsl.w	r0, r3, r0
 80048e0:	9b04      	ldr	r3, [sp, #16]
 80048e2:	4303      	orrs	r3, r0
 80048e4:	9304      	str	r3, [sp, #16]
 80048e6:	f108 0801 	add.w	r8, r8, #1
 80048ea:	f898 1000 	ldrb.w	r1, [r8]
 80048ee:	4829      	ldr	r0, [pc, #164]	; (8004994 <_vfiprintf_r+0x220>)
 80048f0:	f88d 1028 	strb.w	r1, [sp, #40]	; 0x28
 80048f4:	2206      	movs	r2, #6
 80048f6:	f108 0701 	add.w	r7, r8, #1
 80048fa:	f7fb fc69 	bl	80001d0 <memchr>
 80048fe:	2800      	cmp	r0, #0
 8004900:	d034      	beq.n	800496c <_vfiprintf_r+0x1f8>
 8004902:	4b25      	ldr	r3, [pc, #148]	; (8004998 <_vfiprintf_r+0x224>)
 8004904:	bb03      	cbnz	r3, 8004948 <_vfiprintf_r+0x1d4>
 8004906:	9b03      	ldr	r3, [sp, #12]
 8004908:	3307      	adds	r3, #7
 800490a:	f023 0307 	bic.w	r3, r3, #7
 800490e:	3308      	adds	r3, #8
 8004910:	9303      	str	r3, [sp, #12]
 8004912:	9b09      	ldr	r3, [sp, #36]	; 0x24
 8004914:	444b      	add	r3, r9
 8004916:	9309      	str	r3, [sp, #36]	; 0x24
 8004918:	e74c      	b.n	80047b4 <_vfiprintf_r+0x40>
 800491a:	fb00 3202 	mla	r2, r0, r2, r3
 800491e:	2101      	movs	r1, #1
 8004920:	e786      	b.n	8004830 <_vfiprintf_r+0xbc>
 8004922:	2300      	movs	r3, #0
 8004924:	9305      	str	r3, [sp, #20]
 8004926:	4618      	mov	r0, r3
 8004928:	250a      	movs	r5, #10
 800492a:	4688      	mov	r8, r1
 800492c:	3101      	adds	r1, #1
 800492e:	f898 2000 	ldrb.w	r2, [r8]
 8004932:	3a30      	subs	r2, #48	; 0x30
 8004934:	2a09      	cmp	r2, #9
 8004936:	d903      	bls.n	8004940 <_vfiprintf_r+0x1cc>
 8004938:	2b00      	cmp	r3, #0
 800493a:	d0c5      	beq.n	80048c8 <_vfiprintf_r+0x154>
 800493c:	9005      	str	r0, [sp, #20]
 800493e:	e7c3      	b.n	80048c8 <_vfiprintf_r+0x154>
 8004940:	fb05 2000 	mla	r0, r5, r0, r2
 8004944:	2301      	movs	r3, #1
 8004946:	e7f0      	b.n	800492a <_vfiprintf_r+0x1b6>
 8004948:	ab03      	add	r3, sp, #12
 800494a:	9300      	str	r3, [sp, #0]
 800494c:	4622      	mov	r2, r4
 800494e:	4b13      	ldr	r3, [pc, #76]	; (800499c <_vfiprintf_r+0x228>)
 8004950:	a904      	add	r1, sp, #16
 8004952:	4630      	mov	r0, r6
 8004954:	f3af 8000 	nop.w
 8004958:	f1b0 3fff 	cmp.w	r0, #4294967295
 800495c:	4681      	mov	r9, r0
 800495e:	d1d8      	bne.n	8004912 <_vfiprintf_r+0x19e>
 8004960:	89a3      	ldrh	r3, [r4, #12]
 8004962:	065b      	lsls	r3, r3, #25
 8004964:	f53f af7d 	bmi.w	8004862 <_vfiprintf_r+0xee>
 8004968:	9809      	ldr	r0, [sp, #36]	; 0x24
 800496a:	e77c      	b.n	8004866 <_vfiprintf_r+0xf2>
 800496c:	ab03      	add	r3, sp, #12
 800496e:	9300      	str	r3, [sp, #0]
 8004970:	4622      	mov	r2, r4
 8004972:	4b0a      	ldr	r3, [pc, #40]	; (800499c <_vfiprintf_r+0x228>)
 8004974:	a904      	add	r1, sp, #16
 8004976:	4630      	mov	r0, r6
 8004978:	f000 f888 	bl	8004a8c <_printf_i>
 800497c:	e7ec      	b.n	8004958 <_vfiprintf_r+0x1e4>
 800497e:	bf00      	nop
 8004980:	08004ea8 	.word	0x08004ea8
 8004984:	08004ee8 	.word	0x08004ee8
 8004988:	08004ec8 	.word	0x08004ec8
 800498c:	08004e88 	.word	0x08004e88
 8004990:	08004eee 	.word	0x08004eee
 8004994:	08004ef2 	.word	0x08004ef2
 8004998:	00000000 	.word	0x00000000
 800499c:	08004751 	.word	0x08004751

080049a0 <_printf_common>:
 80049a0:	e92d 47f0 	stmdb	sp!, {r4, r5, r6, r7, r8, r9, sl, lr}
 80049a4:	4691      	mov	r9, r2
 80049a6:	461f      	mov	r7, r3
 80049a8:	688a      	ldr	r2, [r1, #8]
 80049aa:	690b      	ldr	r3, [r1, #16]
 80049ac:	f8dd 8020 	ldr.w	r8, [sp, #32]
 80049b0:	4293      	cmp	r3, r2
 80049b2:	bfb8      	it	lt
 80049b4:	4613      	movlt	r3, r2
 80049b6:	f8c9 3000 	str.w	r3, [r9]
 80049ba:	f891 2043 	ldrb.w	r2, [r1, #67]	; 0x43
 80049be:	4606      	mov	r6, r0
 80049c0:	460c      	mov	r4, r1
 80049c2:	b112      	cbz	r2, 80049ca <_printf_common+0x2a>
 80049c4:	3301      	adds	r3, #1
 80049c6:	f8c9 3000 	str.w	r3, [r9]
 80049ca:	6823      	ldr	r3, [r4, #0]
 80049cc:	0699      	lsls	r1, r3, #26
 80049ce:	bf42      	ittt	mi
 80049d0:	f8d9 3000 	ldrmi.w	r3, [r9]
 80049d4:	3302      	addmi	r3, #2
 80049d6:	f8c9 3000 	strmi.w	r3, [r9]
 80049da:	6825      	ldr	r5, [r4, #0]
 80049dc:	f015 0506 	ands.w	r5, r5, #6
 80049e0:	d107      	bne.n	80049f2 <_printf_common+0x52>
 80049e2:	f104 0a19 	add.w	sl, r4, #25
 80049e6:	68e3      	ldr	r3, [r4, #12]
 80049e8:	f8d9 2000 	ldr.w	r2, [r9]
 80049ec:	1a9b      	subs	r3, r3, r2
 80049ee:	429d      	cmp	r5, r3
 80049f0:	db29      	blt.n	8004a46 <_printf_common+0xa6>
 80049f2:	f894 3043 	ldrb.w	r3, [r4, #67]	; 0x43
 80049f6:	6822      	ldr	r2, [r4, #0]
 80049f8:	3300      	adds	r3, #0
 80049fa:	bf18      	it	ne
 80049fc:	2301      	movne	r3, #1
 80049fe:	0692      	lsls	r2, r2, #26
 8004a00:	d42e      	bmi.n	8004a60 <_printf_common+0xc0>
 8004a02:	f104 0243 	add.w	r2, r4, #67	; 0x43
 8004a06:	4639      	mov	r1, r7
 8004a08:	4630      	mov	r0, r6
 8004a0a:	47c0      	blx	r8
 8004a0c:	3001      	adds	r0, #1
 8004a0e:	d021      	beq.n	8004a54 <_printf_common+0xb4>
 8004a10:	6823      	ldr	r3, [r4, #0]
 8004a12:	68e5      	ldr	r5, [r4, #12]
 8004a14:	f8d9 2000 	ldr.w	r2, [r9]
 8004a18:	f003 0306 	and.w	r3, r3, #6
 8004a1c:	2b04      	cmp	r3, #4
 8004a1e:	bf08      	it	eq
 8004a20:	1aad      	subeq	r5, r5, r2
 8004a22:	68a3      	ldr	r3, [r4, #8]
 8004a24:	6922      	ldr	r2, [r4, #16]
 8004a26:	bf0c      	ite	eq
 8004a28:	ea25 75e5 	biceq.w	r5, r5, r5, asr #31
 8004a2c:	2500      	movne	r5, #0
 8004a2e:	4293      	cmp	r3, r2
 8004a30:	bfc4      	itt	gt
 8004a32:	1a9b      	subgt	r3, r3, r2
 8004a34:	18ed      	addgt	r5, r5, r3
 8004a36:	f04f 0900 	mov.w	r9, #0
 8004a3a:	341a      	adds	r4, #26
 8004a3c:	454d      	cmp	r5, r9
 8004a3e:	d11b      	bne.n	8004a78 <_printf_common+0xd8>
 8004a40:	2000      	movs	r0, #0
 8004a42:	e8bd 87f0 	ldmia.w	sp!, {r4, r5, r6, r7, r8, r9, sl, pc}
 8004a46:	2301      	movs	r3, #1
 8004a48:	4652      	mov	r2, sl
 8004a4a:	4639      	mov	r1, r7
 8004a4c:	4630      	mov	r0, r6
 8004a4e:	47c0      	blx	r8
 8004a50:	3001      	adds	r0, #1
 8004a52:	d103      	bne.n	8004a5c <_printf_common+0xbc>
 8004a54:	f04f 30ff 	mov.w	r0, #4294967295
 8004a58:	e8bd 87f0 	ldmia.w	sp!, {r4, r5, r6, r7, r8, r9, sl, pc}
 8004a5c:	3501      	adds	r5, #1
 8004a5e:	e7c2      	b.n	80049e6 <_printf_common+0x46>
 8004a60:	18e1      	adds	r1, r4, r3
 8004a62:	1c5a      	adds	r2, r3, #1
 8004a64:	2030      	movs	r0, #48	; 0x30
 8004a66:	f881 0043 	strb.w	r0, [r1, #67]	; 0x43
 8004a6a:	4422      	add	r2, r4
 8004a6c:	f894 1045 	ldrb.w	r1, [r4, #69]	; 0x45
 8004a70:	f882 1043 	strb.w	r1, [r2, #67]	; 0x43
 8004a74:	3302      	adds	r3, #2
 8004a76:	e7c4      	b.n	8004a02 <_printf_common+0x62>
 8004a78:	2301      	movs	r3, #1
 8004a7a:	4622      	mov	r2, r4
 8004a7c:	4639      	mov	r1, r7
 8004a7e:	4630      	mov	r0, r6
 8004a80:	47c0      	blx	r8
 8004a82:	3001      	adds	r0, #1
 8004a84:	d0e6      	beq.n	8004a54 <_printf_common+0xb4>
 8004a86:	f109 0901 	add.w	r9, r9, #1
 8004a8a:	e7d7      	b.n	8004a3c <_printf_common+0x9c>

08004a8c <_printf_i>:
 8004a8c:	e92d 43f0 	stmdb	sp!, {r4, r5, r6, r7, r8, r9, lr}
 8004a90:	4617      	mov	r7, r2
 8004a92:	7e0a      	ldrb	r2, [r1, #24]
 8004a94:	b085      	sub	sp, #20
 8004a96:	2a6e      	cmp	r2, #110	; 0x6e
 8004a98:	4698      	mov	r8, r3
 8004a9a:	4606      	mov	r6, r0
 8004a9c:	460c      	mov	r4, r1
 8004a9e:	9b0c      	ldr	r3, [sp, #48]	; 0x30
 8004aa0:	f101 0e43 	add.w	lr, r1, #67	; 0x43
 8004aa4:	f000 80bc 	beq.w	8004c20 <_printf_i+0x194>
 8004aa8:	d81a      	bhi.n	8004ae0 <_printf_i+0x54>
 8004aaa:	2a63      	cmp	r2, #99	; 0x63
 8004aac:	d02e      	beq.n	8004b0c <_printf_i+0x80>
 8004aae:	d80a      	bhi.n	8004ac6 <_printf_i+0x3a>
 8004ab0:	2a00      	cmp	r2, #0
 8004ab2:	f000 80c8 	beq.w	8004c46 <_printf_i+0x1ba>
 8004ab6:	2a58      	cmp	r2, #88	; 0x58
 8004ab8:	f000 808a 	beq.w	8004bd0 <_printf_i+0x144>
 8004abc:	f104 0542 	add.w	r5, r4, #66	; 0x42
 8004ac0:	f884 2042 	strb.w	r2, [r4, #66]	; 0x42
 8004ac4:	e02a      	b.n	8004b1c <_printf_i+0x90>
 8004ac6:	2a64      	cmp	r2, #100	; 0x64
 8004ac8:	d001      	beq.n	8004ace <_printf_i+0x42>
 8004aca:	2a69      	cmp	r2, #105	; 0x69
 8004acc:	d1f6      	bne.n	8004abc <_printf_i+0x30>
 8004ace:	6821      	ldr	r1, [r4, #0]
 8004ad0:	681a      	ldr	r2, [r3, #0]
 8004ad2:	f011 0f80 	tst.w	r1, #128	; 0x80
 8004ad6:	d023      	beq.n	8004b20 <_printf_i+0x94>
 8004ad8:	1d11      	adds	r1, r2, #4
 8004ada:	6019      	str	r1, [r3, #0]
 8004adc:	6813      	ldr	r3, [r2, #0]
 8004ade:	e027      	b.n	8004b30 <_printf_i+0xa4>
 8004ae0:	2a73      	cmp	r2, #115	; 0x73
 8004ae2:	f000 80b4 	beq.w	8004c4e <_printf_i+0x1c2>
 8004ae6:	d808      	bhi.n	8004afa <_printf_i+0x6e>
 8004ae8:	2a6f      	cmp	r2, #111	; 0x6f
 8004aea:	d02a      	beq.n	8004b42 <_printf_i+0xb6>
 8004aec:	2a70      	cmp	r2, #112	; 0x70
 8004aee:	d1e5      	bne.n	8004abc <_printf_i+0x30>
 8004af0:	680a      	ldr	r2, [r1, #0]
 8004af2:	f042 0220 	orr.w	r2, r2, #32
 8004af6:	600a      	str	r2, [r1, #0]
 8004af8:	e003      	b.n	8004b02 <_printf_i+0x76>
 8004afa:	2a75      	cmp	r2, #117	; 0x75
 8004afc:	d021      	beq.n	8004b42 <_printf_i+0xb6>
 8004afe:	2a78      	cmp	r2, #120	; 0x78
 8004b00:	d1dc      	bne.n	8004abc <_printf_i+0x30>
 8004b02:	2278      	movs	r2, #120	; 0x78
 8004b04:	f884 2045 	strb.w	r2, [r4, #69]	; 0x45
 8004b08:	496e      	ldr	r1, [pc, #440]	; (8004cc4 <_printf_i+0x238>)
 8004b0a:	e064      	b.n	8004bd6 <_printf_i+0x14a>
 8004b0c:	681a      	ldr	r2, [r3, #0]
 8004b0e:	f101 0542 	add.w	r5, r1, #66	; 0x42
 8004b12:	1d11      	adds	r1, r2, #4
 8004b14:	6019      	str	r1, [r3, #0]
 8004b16:	6813      	ldr	r3, [r2, #0]
 8004b18:	f884 3042 	strb.w	r3, [r4, #66]	; 0x42
 8004b1c:	2301      	movs	r3, #1
 8004b1e:	e0a3      	b.n	8004c68 <_printf_i+0x1dc>
 8004b20:	f011 0f40 	tst.w	r1, #64	; 0x40
 8004b24:	f102 0104 	add.w	r1, r2, #4
 8004b28:	6019      	str	r1, [r3, #0]
 8004b2a:	d0d7      	beq.n	8004adc <_printf_i+0x50>
 8004b2c:	f9b2 3000 	ldrsh.w	r3, [r2]
 8004b30:	2b00      	cmp	r3, #0
 8004b32:	da03      	bge.n	8004b3c <_printf_i+0xb0>
 8004b34:	222d      	movs	r2, #45	; 0x2d
 8004b36:	425b      	negs	r3, r3
 8004b38:	f884 2043 	strb.w	r2, [r4, #67]	; 0x43
 8004b3c:	4962      	ldr	r1, [pc, #392]	; (8004cc8 <_printf_i+0x23c>)
 8004b3e:	220a      	movs	r2, #10
 8004b40:	e017      	b.n	8004b72 <_printf_i+0xe6>
 8004b42:	6820      	ldr	r0, [r4, #0]
 8004b44:	6819      	ldr	r1, [r3, #0]
 8004b46:	f010 0f80 	tst.w	r0, #128	; 0x80
 8004b4a:	d003      	beq.n	8004b54 <_printf_i+0xc8>
 8004b4c:	1d08      	adds	r0, r1, #4
 8004b4e:	6018      	str	r0, [r3, #0]
 8004b50:	680b      	ldr	r3, [r1, #0]
 8004b52:	e006      	b.n	8004b62 <_printf_i+0xd6>
 8004b54:	f010 0f40 	tst.w	r0, #64	; 0x40
 8004b58:	f101 0004 	add.w	r0, r1, #4
 8004b5c:	6018      	str	r0, [r3, #0]
 8004b5e:	d0f7      	beq.n	8004b50 <_printf_i+0xc4>
 8004b60:	880b      	ldrh	r3, [r1, #0]
 8004b62:	4959      	ldr	r1, [pc, #356]	; (8004cc8 <_printf_i+0x23c>)
 8004b64:	2a6f      	cmp	r2, #111	; 0x6f
 8004b66:	bf14      	ite	ne
 8004b68:	220a      	movne	r2, #10
 8004b6a:	2208      	moveq	r2, #8
 8004b6c:	2000      	movs	r0, #0
 8004b6e:	f884 0043 	strb.w	r0, [r4, #67]	; 0x43
 8004b72:	6865      	ldr	r5, [r4, #4]
 8004b74:	60a5      	str	r5, [r4, #8]
 8004b76:	2d00      	cmp	r5, #0
 8004b78:	f2c0 809c 	blt.w	8004cb4 <_printf_i+0x228>
 8004b7c:	6820      	ldr	r0, [r4, #0]
 8004b7e:	f020 0004 	bic.w	r0, r0, #4
 8004b82:	6020      	str	r0, [r4, #0]
 8004b84:	2b00      	cmp	r3, #0
 8004b86:	d13f      	bne.n	8004c08 <_printf_i+0x17c>
 8004b88:	2d00      	cmp	r5, #0
 8004b8a:	f040 8095 	bne.w	8004cb8 <_printf_i+0x22c>
 8004b8e:	4675      	mov	r5, lr
 8004b90:	2a08      	cmp	r2, #8
 8004b92:	d10b      	bne.n	8004bac <_printf_i+0x120>
 8004b94:	6823      	ldr	r3, [r4, #0]
 8004b96:	07da      	lsls	r2, r3, #31
 8004b98:	d508      	bpl.n	8004bac <_printf_i+0x120>
 8004b9a:	6923      	ldr	r3, [r4, #16]
 8004b9c:	6862      	ldr	r2, [r4, #4]
 8004b9e:	429a      	cmp	r2, r3
 8004ba0:	bfde      	ittt	le
 8004ba2:	2330      	movle	r3, #48	; 0x30
 8004ba4:	f805 3c01 	strble.w	r3, [r5, #-1]
 8004ba8:	f105 35ff 	addle.w	r5, r5, #4294967295
 8004bac:	ebae 0305 	sub.w	r3, lr, r5
 8004bb0:	6123      	str	r3, [r4, #16]
 8004bb2:	f8cd 8000 	str.w	r8, [sp]
 8004bb6:	463b      	mov	r3, r7
 8004bb8:	aa03      	add	r2, sp, #12
 8004bba:	4621      	mov	r1, r4
 8004bbc:	4630      	mov	r0, r6
 8004bbe:	f7ff feef 	bl	80049a0 <_printf_common>
 8004bc2:	3001      	adds	r0, #1
 8004bc4:	d155      	bne.n	8004c72 <_printf_i+0x1e6>
 8004bc6:	f04f 30ff 	mov.w	r0, #4294967295
 8004bca:	b005      	add	sp, #20
 8004bcc:	e8bd 83f0 	ldmia.w	sp!, {r4, r5, r6, r7, r8, r9, pc}
 8004bd0:	f881 2045 	strb.w	r2, [r1, #69]	; 0x45
 8004bd4:	493c      	ldr	r1, [pc, #240]	; (8004cc8 <_printf_i+0x23c>)
 8004bd6:	6822      	ldr	r2, [r4, #0]
 8004bd8:	6818      	ldr	r0, [r3, #0]
 8004bda:	f012 0f80 	tst.w	r2, #128	; 0x80
 8004bde:	f100 0504 	add.w	r5, r0, #4
 8004be2:	601d      	str	r5, [r3, #0]
 8004be4:	d001      	beq.n	8004bea <_printf_i+0x15e>
 8004be6:	6803      	ldr	r3, [r0, #0]
 8004be8:	e002      	b.n	8004bf0 <_printf_i+0x164>
 8004bea:	0655      	lsls	r5, r2, #25
 8004bec:	d5fb      	bpl.n	8004be6 <_printf_i+0x15a>
 8004bee:	8803      	ldrh	r3, [r0, #0]
 8004bf0:	07d0      	lsls	r0, r2, #31
 8004bf2:	bf44      	itt	mi
 8004bf4:	f042 0220 	orrmi.w	r2, r2, #32
 8004bf8:	6022      	strmi	r2, [r4, #0]
 8004bfa:	b91b      	cbnz	r3, 8004c04 <_printf_i+0x178>
 8004bfc:	6822      	ldr	r2, [r4, #0]
 8004bfe:	f022 0220 	bic.w	r2, r2, #32
 8004c02:	6022      	str	r2, [r4, #0]
 8004c04:	2210      	movs	r2, #16
 8004c06:	e7b1      	b.n	8004b6c <_printf_i+0xe0>
 8004c08:	4675      	mov	r5, lr
 8004c0a:	fbb3 f0f2 	udiv	r0, r3, r2
 8004c0e:	fb02 3310 	mls	r3, r2, r0, r3
 8004c12:	5ccb      	ldrb	r3, [r1, r3]
 8004c14:	f805 3d01 	strb.w	r3, [r5, #-1]!
 8004c18:	4603      	mov	r3, r0
 8004c1a:	2800      	cmp	r0, #0
 8004c1c:	d1f5      	bne.n	8004c0a <_printf_i+0x17e>
 8004c1e:	e7b7      	b.n	8004b90 <_printf_i+0x104>
 8004c20:	6808      	ldr	r0, [r1, #0]
 8004c22:	681a      	ldr	r2, [r3, #0]
 8004c24:	6949      	ldr	r1, [r1, #20]
 8004c26:	f010 0f80 	tst.w	r0, #128	; 0x80
 8004c2a:	d004      	beq.n	8004c36 <_printf_i+0x1aa>
 8004c2c:	1d10      	adds	r0, r2, #4
 8004c2e:	6018      	str	r0, [r3, #0]
 8004c30:	6813      	ldr	r3, [r2, #0]
 8004c32:	6019      	str	r1, [r3, #0]
 8004c34:	e007      	b.n	8004c46 <_printf_i+0x1ba>
 8004c36:	f010 0f40 	tst.w	r0, #64	; 0x40
 8004c3a:	f102 0004 	add.w	r0, r2, #4
 8004c3e:	6018      	str	r0, [r3, #0]
 8004c40:	6813      	ldr	r3, [r2, #0]
 8004c42:	d0f6      	beq.n	8004c32 <_printf_i+0x1a6>
 8004c44:	8019      	strh	r1, [r3, #0]
 8004c46:	2300      	movs	r3, #0
 8004c48:	6123      	str	r3, [r4, #16]
 8004c4a:	4675      	mov	r5, lr
 8004c4c:	e7b1      	b.n	8004bb2 <_printf_i+0x126>
 8004c4e:	681a      	ldr	r2, [r3, #0]
 8004c50:	1d11      	adds	r1, r2, #4
 8004c52:	6019      	str	r1, [r3, #0]
 8004c54:	6815      	ldr	r5, [r2, #0]
 8004c56:	6862      	ldr	r2, [r4, #4]
 8004c58:	2100      	movs	r1, #0
 8004c5a:	4628      	mov	r0, r5
 8004c5c:	f7fb fab8 	bl	80001d0 <memchr>
 8004c60:	b108      	cbz	r0, 8004c66 <_printf_i+0x1da>
 8004c62:	1b40      	subs	r0, r0, r5
 8004c64:	6060      	str	r0, [r4, #4]
 8004c66:	6863      	ldr	r3, [r4, #4]
 8004c68:	6123      	str	r3, [r4, #16]
 8004c6a:	2300      	movs	r3, #0
 8004c6c:	f884 3043 	strb.w	r3, [r4, #67]	; 0x43
 8004c70:	e79f      	b.n	8004bb2 <_printf_i+0x126>
 8004c72:	6923      	ldr	r3, [r4, #16]
 8004c74:	462a      	mov	r2, r5
 8004c76:	4639      	mov	r1, r7
 8004c78:	4630      	mov	r0, r6
 8004c7a:	47c0      	blx	r8
 8004c7c:	3001      	adds	r0, #1
 8004c7e:	d0a2      	beq.n	8004bc6 <_printf_i+0x13a>
 8004c80:	6823      	ldr	r3, [r4, #0]
 8004c82:	079b      	lsls	r3, r3, #30
 8004c84:	d507      	bpl.n	8004c96 <_printf_i+0x20a>
 8004c86:	2500      	movs	r5, #0
 8004c88:	f104 0919 	add.w	r9, r4, #25
 8004c8c:	68e3      	ldr	r3, [r4, #12]
 8004c8e:	9a03      	ldr	r2, [sp, #12]
 8004c90:	1a9b      	subs	r3, r3, r2
 8004c92:	429d      	cmp	r5, r3
 8004c94:	db05      	blt.n	8004ca2 <_printf_i+0x216>
 8004c96:	68e0      	ldr	r0, [r4, #12]
 8004c98:	9b03      	ldr	r3, [sp, #12]
 8004c9a:	4298      	cmp	r0, r3
 8004c9c:	bfb8      	it	lt
 8004c9e:	4618      	movlt	r0, r3
 8004ca0:	e793      	b.n	8004bca <_printf_i+0x13e>
 8004ca2:	2301      	movs	r3, #1
 8004ca4:	464a      	mov	r2, r9
 8004ca6:	4639      	mov	r1, r7
 8004ca8:	4630      	mov	r0, r6
 8004caa:	47c0      	blx	r8
 8004cac:	3001      	adds	r0, #1
 8004cae:	d08a      	beq.n	8004bc6 <_printf_i+0x13a>
 8004cb0:	3501      	adds	r5, #1
 8004cb2:	e7eb      	b.n	8004c8c <_printf_i+0x200>
 8004cb4:	2b00      	cmp	r3, #0
 8004cb6:	d1a7      	bne.n	8004c08 <_printf_i+0x17c>
 8004cb8:	780b      	ldrb	r3, [r1, #0]
 8004cba:	f884 3042 	strb.w	r3, [r4, #66]	; 0x42
 8004cbe:	f104 0542 	add.w	r5, r4, #66	; 0x42
 8004cc2:	e765      	b.n	8004b90 <_printf_i+0x104>
 8004cc4:	08004f0a 	.word	0x08004f0a
 8004cc8:	08004ef9 	.word	0x08004ef9

08004ccc <__sread>:
 8004ccc:	b510      	push	{r4, lr}
 8004cce:	460c      	mov	r4, r1
 8004cd0:	f9b1 100e 	ldrsh.w	r1, [r1, #14]
 8004cd4:	f000 f894 	bl	8004e00 <_read_r>
 8004cd8:	2800      	cmp	r0, #0
 8004cda:	bfab      	itete	ge
 8004cdc:	6d63      	ldrge	r3, [r4, #84]	; 0x54
 8004cde:	89a3      	ldrhlt	r3, [r4, #12]
 8004ce0:	181b      	addge	r3, r3, r0
 8004ce2:	f423 5380 	biclt.w	r3, r3, #4096	; 0x1000
 8004ce6:	bfac      	ite	ge
 8004ce8:	6563      	strge	r3, [r4, #84]	; 0x54
 8004cea:	81a3      	strhlt	r3, [r4, #12]
 8004cec:	bd10      	pop	{r4, pc}

08004cee <__swrite>:
 8004cee:	e92d 41f0 	stmdb	sp!, {r4, r5, r6, r7, r8, lr}
 8004cf2:	461f      	mov	r7, r3
 8004cf4:	898b      	ldrh	r3, [r1, #12]
 8004cf6:	05db      	lsls	r3, r3, #23
 8004cf8:	4605      	mov	r5, r0
 8004cfa:	460c      	mov	r4, r1
 8004cfc:	4616      	mov	r6, r2
 8004cfe:	d505      	bpl.n	8004d0c <__swrite+0x1e>
 8004d00:	2302      	movs	r3, #2
 8004d02:	2200      	movs	r2, #0
 8004d04:	f9b1 100e 	ldrsh.w	r1, [r1, #14]
 8004d08:	f000 f868 	bl	8004ddc <_lseek_r>
 8004d0c:	89a3      	ldrh	r3, [r4, #12]
 8004d0e:	f9b4 100e 	ldrsh.w	r1, [r4, #14]
 8004d12:	f423 5380 	bic.w	r3, r3, #4096	; 0x1000
 8004d16:	81a3      	strh	r3, [r4, #12]
 8004d18:	4632      	mov	r2, r6
 8004d1a:	463b      	mov	r3, r7
 8004d1c:	4628      	mov	r0, r5
 8004d1e:	e8bd 41f0 	ldmia.w	sp!, {r4, r5, r6, r7, r8, lr}
 8004d22:	f000 b817 	b.w	8004d54 <_write_r>

08004d26 <__sseek>:
 8004d26:	b510      	push	{r4, lr}
 8004d28:	460c      	mov	r4, r1
 8004d2a:	f9b1 100e 	ldrsh.w	r1, [r1, #14]
 8004d2e:	f000 f855 	bl	8004ddc <_lseek_r>
 8004d32:	1c43      	adds	r3, r0, #1
 8004d34:	89a3      	ldrh	r3, [r4, #12]
 8004d36:	bf15      	itete	ne
 8004d38:	6560      	strne	r0, [r4, #84]	; 0x54
 8004d3a:	f423 5380 	biceq.w	r3, r3, #4096	; 0x1000
 8004d3e:	f443 5380 	orrne.w	r3, r3, #4096	; 0x1000
 8004d42:	81a3      	strheq	r3, [r4, #12]
 8004d44:	bf18      	it	ne
 8004d46:	81a3      	strhne	r3, [r4, #12]
 8004d48:	bd10      	pop	{r4, pc}

08004d4a <__sclose>:
 8004d4a:	f9b1 100e 	ldrsh.w	r1, [r1, #14]
 8004d4e:	f000 b813 	b.w	8004d78 <_close_r>
	...

08004d54 <_write_r>:
 8004d54:	b538      	push	{r3, r4, r5, lr}
 8004d56:	4c07      	ldr	r4, [pc, #28]	; (8004d74 <_write_r+0x20>)
 8004d58:	4605      	mov	r5, r0
 8004d5a:	4608      	mov	r0, r1
 8004d5c:	4611      	mov	r1, r2
 8004d5e:	2200      	movs	r2, #0
 8004d60:	6022      	str	r2, [r4, #0]
 8004d62:	461a      	mov	r2, r3
 8004d64:	f7fe fe7e 	bl	8003a64 <_write>
 8004d68:	1c43      	adds	r3, r0, #1
 8004d6a:	d102      	bne.n	8004d72 <_write_r+0x1e>
 8004d6c:	6823      	ldr	r3, [r4, #0]
 8004d6e:	b103      	cbz	r3, 8004d72 <_write_r+0x1e>
 8004d70:	602b      	str	r3, [r5, #0]
 8004d72:	bd38      	pop	{r3, r4, r5, pc}
 8004d74:	20000898 	.word	0x20000898

08004d78 <_close_r>:
 8004d78:	b538      	push	{r3, r4, r5, lr}
 8004d7a:	4c06      	ldr	r4, [pc, #24]	; (8004d94 <_close_r+0x1c>)
 8004d7c:	2300      	movs	r3, #0
 8004d7e:	4605      	mov	r5, r0
 8004d80:	4608      	mov	r0, r1
 8004d82:	6023      	str	r3, [r4, #0]
 8004d84:	f7fe fea8 	bl	8003ad8 <_close>
 8004d88:	1c43      	adds	r3, r0, #1
 8004d8a:	d102      	bne.n	8004d92 <_close_r+0x1a>
 8004d8c:	6823      	ldr	r3, [r4, #0]
 8004d8e:	b103      	cbz	r3, 8004d92 <_close_r+0x1a>
 8004d90:	602b      	str	r3, [r5, #0]
 8004d92:	bd38      	pop	{r3, r4, r5, pc}
 8004d94:	20000898 	.word	0x20000898

08004d98 <_fstat_r>:
 8004d98:	b538      	push	{r3, r4, r5, lr}
 8004d9a:	4c07      	ldr	r4, [pc, #28]	; (8004db8 <_fstat_r+0x20>)
 8004d9c:	2300      	movs	r3, #0
 8004d9e:	4605      	mov	r5, r0
 8004da0:	4608      	mov	r0, r1
 8004da2:	4611      	mov	r1, r2
 8004da4:	6023      	str	r3, [r4, #0]
 8004da6:	f7fe fe9a 	bl	8003ade <_fstat>
 8004daa:	1c43      	adds	r3, r0, #1
 8004dac:	d102      	bne.n	8004db4 <_fstat_r+0x1c>
 8004dae:	6823      	ldr	r3, [r4, #0]
 8004db0:	b103      	cbz	r3, 8004db4 <_fstat_r+0x1c>
 8004db2:	602b      	str	r3, [r5, #0]
 8004db4:	bd38      	pop	{r3, r4, r5, pc}
 8004db6:	bf00      	nop
 8004db8:	20000898 	.word	0x20000898

08004dbc <_isatty_r>:
 8004dbc:	b538      	push	{r3, r4, r5, lr}
 8004dbe:	4c06      	ldr	r4, [pc, #24]	; (8004dd8 <_isatty_r+0x1c>)
 8004dc0:	2300      	movs	r3, #0
 8004dc2:	4605      	mov	r5, r0
 8004dc4:	4608      	mov	r0, r1
 8004dc6:	6023      	str	r3, [r4, #0]
 8004dc8:	f7fe fe8e 	bl	8003ae8 <_isatty>
 8004dcc:	1c43      	adds	r3, r0, #1
 8004dce:	d102      	bne.n	8004dd6 <_isatty_r+0x1a>
 8004dd0:	6823      	ldr	r3, [r4, #0]
 8004dd2:	b103      	cbz	r3, 8004dd6 <_isatty_r+0x1a>
 8004dd4:	602b      	str	r3, [r5, #0]
 8004dd6:	bd38      	pop	{r3, r4, r5, pc}
 8004dd8:	20000898 	.word	0x20000898

08004ddc <_lseek_r>:
 8004ddc:	b538      	push	{r3, r4, r5, lr}
 8004dde:	4c07      	ldr	r4, [pc, #28]	; (8004dfc <_lseek_r+0x20>)
 8004de0:	4605      	mov	r5, r0
 8004de2:	4608      	mov	r0, r1
 8004de4:	4611      	mov	r1, r2
 8004de6:	2200      	movs	r2, #0
 8004de8:	6022      	str	r2, [r4, #0]
 8004dea:	461a      	mov	r2, r3
 8004dec:	f7fe fe7e 	bl	8003aec <_lseek>
 8004df0:	1c43      	adds	r3, r0, #1
 8004df2:	d102      	bne.n	8004dfa <_lseek_r+0x1e>
 8004df4:	6823      	ldr	r3, [r4, #0]
 8004df6:	b103      	cbz	r3, 8004dfa <_lseek_r+0x1e>
 8004df8:	602b      	str	r3, [r5, #0]
 8004dfa:	bd38      	pop	{r3, r4, r5, pc}
 8004dfc:	20000898 	.word	0x20000898

08004e00 <_read_r>:
 8004e00:	b538      	push	{r3, r4, r5, lr}
 8004e02:	4c07      	ldr	r4, [pc, #28]	; (8004e20 <_read_r+0x20>)
 8004e04:	4605      	mov	r5, r0
 8004e06:	4608      	mov	r0, r1
 8004e08:	4611      	mov	r1, r2
 8004e0a:	2200      	movs	r2, #0
 8004e0c:	6022      	str	r2, [r4, #0]
 8004e0e:	461a      	mov	r2, r3
 8004e10:	f7fe fe1a 	bl	8003a48 <_read>
 8004e14:	1c43      	adds	r3, r0, #1
 8004e16:	d102      	bne.n	8004e1e <_read_r+0x1e>
 8004e18:	6823      	ldr	r3, [r4, #0]
 8004e1a:	b103      	cbz	r3, 8004e1e <_read_r+0x1e>
 8004e1c:	602b      	str	r3, [r5, #0]
 8004e1e:	bd38      	pop	{r3, r4, r5, pc}
 8004e20:	20000898 	.word	0x20000898

08004e24 <_init>:
 8004e24:	b5f8      	push	{r3, r4, r5, r6, r7, lr}
 8004e26:	bf00      	nop
 8004e28:	bcf8      	pop	{r3, r4, r5, r6, r7}
 8004e2a:	bc08      	pop	{r3}
 8004e2c:	469e      	mov	lr, r3
 8004e2e:	4770      	bx	lr

08004e30 <_fini>:
 8004e30:	b5f8      	push	{r3, r4, r5, r6, r7, lr}
 8004e32:	bf00      	nop
 8004e34:	bcf8      	pop	{r3, r4, r5, r6, r7}
 8004e36:	bc08      	pop	{r3}
 8004e38:	469e      	mov	lr, r3
 8004e3a:	4770      	bx	lr
